ARM GAS  C:\Users\Jacob\AppData\Local\Temp\ccka1BXn.s 			page 1


   1              		.syntax unified
   2              		.cpu cortex-m0
   3              		.fpu softvfp
   4              		.eabi_attribute 20, 1
   5              		.eabi_attribute 21, 1
   6              		.eabi_attribute 23, 3
   7              		.eabi_attribute 24, 1
   8              		.eabi_attribute 25, 1
   9              		.eabi_attribute 26, 1
  10              		.eabi_attribute 30, 6
  11              		.eabi_attribute 34, 0
  12              		.eabi_attribute 18, 4
  13              		.thumb
  14              		.syntax unified
  15              		.file	"LED_RGB.c"
  16              		.text
  17              	.Ltext0:
  18              		.cfi_sections	.debug_frame
  19              		.section	.text.LED_RGB_Start,"ax",%progbits
  20              		.align	2
  21              		.global	LED_RGB_Start
  22              		.code	16
  23              		.thumb_func
  24              		.type	LED_RGB_Start, %function
  25              	LED_RGB_Start:
  26              	.LFB35:
  27              		.file 1 "LED_RGB.c"
   1:LED_RGB.c     **** /* ========================================
   2:LED_RGB.c     ****  *
   3:LED_RGB.c     ****  * The following firmware was developed by Cypress Semiconductor
   4:LED_RGB.c     ****  * This work is licensed under a Creative Commons Attribution 3.0 Unported License.
   5:LED_RGB.c     ****  * 
   6:LED_RGB.c     ****  * http://creativecommons.org/licenses/by/3.0/deed.en_US
   7:LED_RGB.c     ****  * 
   8:LED_RGB.c     ****  * You are free to:
   9:LED_RGB.c     ****  * -To Share — to copy, distribute and transmit the work 
  10:LED_RGB.c     ****  * -To Remix — to adapt the work 
  11:LED_RGB.c     ****  * -To make commercial use of the work
  12:LED_RGB.c     ****  *
  13:LED_RGB.c     ****  * ========================================
  14:LED_RGB.c     ****  */
  15:LED_RGB.c     **** 
  16:LED_RGB.c     **** /* ========================================
  17:LED_RGB.c     ****  * CY8CKIT-042 LED RGB Driver Module
  18:LED_RGB.c     ****  * This module was designed to drive the RGB LEDs on the KIT-042 with pleasing
  19:LED_RGB.c     ****  * colors. This module requires that three 16- or 8-bit PWMs be placed and named
  20:LED_RGB.c     ****  * PWM_R, PWM_G, and PWM_B. Their outputs should be inverted because the LEDs on
  21:LED_RGB.c     ****  * the kit are sunk by the PSoC 4 GPIOs. LEDs are on P1[6], P0[2], P0[3] (RGB).
  22:LED_RGB.c     ****  * The PWMs should be clocked at a rate such that the output frequency is 45 Hz
  23:LED_RGB.c     ****  * or greater to avoid weird blinking.
  24:LED_RGB.c     ****  * ========================================
  25:LED_RGB.c     ****  */
  26:LED_RGB.c     **** 
  27:LED_RGB.c     **** #include <LED_RGB.h>
  28:LED_RGB.c     **** 
  29:LED_RGB.c     **** /*****************************************************************************
  30:LED_RGB.c     **** * Function Name: LED_RGB_Start()
ARM GAS  C:\Users\Jacob\AppData\Local\Temp\ccka1BXn.s 			page 2


  31:LED_RGB.c     **** ******************************************************************************
  32:LED_RGB.c     **** * Summary:
  33:LED_RGB.c     **** *  Starts the LED PWM components.
  34:LED_RGB.c     **** *
  35:LED_RGB.c     **** *****************************************************************************/
  36:LED_RGB.c     **** void LED_RGB_Start(void)
  37:LED_RGB.c     **** {
  28              		.loc 1 37 0
  29              		.cfi_startproc
  30              		@ args = 0, pretend = 0, frame = 0
  31              		@ frame_needed = 1, uses_anonymous_args = 0
  32 0000 80B5     		push	{r7, lr}
  33              		.cfi_def_cfa_offset 8
  34              		.cfi_offset 7, -8
  35              		.cfi_offset 14, -4
  36 0002 00AF     		add	r7, sp, #0
  37              		.cfi_def_cfa_register 7
  38:LED_RGB.c     ****     PWM_R_Start();
  38              		.loc 1 38 0
  39 0004 FFF7FEFF 		bl	PWM_R_Start
  39:LED_RGB.c     ****     PWM_G_Start();
  40              		.loc 1 39 0
  41 0008 FFF7FEFF 		bl	PWM_G_Start
  40:LED_RGB.c     ****     PWM_B_Start();
  42              		.loc 1 40 0
  43 000c FFF7FEFF 		bl	PWM_B_Start
  41:LED_RGB.c     **** }
  44              		.loc 1 41 0
  45 0010 C046     		nop
  46 0012 BD46     		mov	sp, r7
  47              		@ sp needed
  48 0014 80BD     		pop	{r7, pc}
  49              		.cfi_endproc
  50              	.LFE35:
  51              		.size	LED_RGB_Start, .-LED_RGB_Start
  52 0016 C046     		.section	.text.LED_RGB_Stop,"ax",%progbits
  53              		.align	2
  54              		.global	LED_RGB_Stop
  55              		.code	16
  56              		.thumb_func
  57              		.type	LED_RGB_Stop, %function
  58              	LED_RGB_Stop:
  59              	.LFB36:
  42:LED_RGB.c     **** 
  43:LED_RGB.c     **** /*****************************************************************************
  44:LED_RGB.c     **** * Function Name: LED_RGB_Stop()
  45:LED_RGB.c     **** ******************************************************************************
  46:LED_RGB.c     **** * Summary:
  47:LED_RGB.c     **** *  Stops the LED PWM components.
  48:LED_RGB.c     **** *
  49:LED_RGB.c     **** *****************************************************************************/
  50:LED_RGB.c     **** void LED_RGB_Stop(void)
  51:LED_RGB.c     **** {
  60              		.loc 1 51 0
  61              		.cfi_startproc
  62              		@ args = 0, pretend = 0, frame = 0
  63              		@ frame_needed = 1, uses_anonymous_args = 0
ARM GAS  C:\Users\Jacob\AppData\Local\Temp\ccka1BXn.s 			page 3


  64 0000 80B5     		push	{r7, lr}
  65              		.cfi_def_cfa_offset 8
  66              		.cfi_offset 7, -8
  67              		.cfi_offset 14, -4
  68 0002 00AF     		add	r7, sp, #0
  69              		.cfi_def_cfa_register 7
  52:LED_RGB.c     ****     PWM_R_Stop();
  70              		.loc 1 52 0
  71 0004 FFF7FEFF 		bl	PWM_R_Stop
  53:LED_RGB.c     ****     PWM_G_Stop();
  72              		.loc 1 53 0
  73 0008 FFF7FEFF 		bl	PWM_G_Stop
  54:LED_RGB.c     ****     PWM_B_Stop();
  74              		.loc 1 54 0
  75 000c FFF7FEFF 		bl	PWM_B_Stop
  55:LED_RGB.c     **** }
  76              		.loc 1 55 0
  77 0010 C046     		nop
  78 0012 BD46     		mov	sp, r7
  79              		@ sp needed
  80 0014 80BD     		pop	{r7, pc}
  81              		.cfi_endproc
  82              	.LFE36:
  83              		.size	LED_RGB_Stop, .-LED_RGB_Stop
  84 0016 C046     		.section	.text.LED_RGB_DCWrite,"ax",%progbits
  85              		.align	2
  86              		.global	LED_RGB_DCWrite
  87              		.code	16
  88              		.thumb_func
  89              		.type	LED_RGB_DCWrite, %function
  90              	LED_RGB_DCWrite:
  91              	.LFB37:
  56:LED_RGB.c     **** 
  57:LED_RGB.c     **** /*****************************************************************************
  58:LED_RGB.c     **** * Function Name: LED_RGB_DCWrite()
  59:LED_RGB.c     **** ******************************************************************************
  60:LED_RGB.c     **** * Summary:
  61:LED_RGB.c     **** *  Writes one of the three LED color duty cycles
  62:LED_RGB.c     **** *
  63:LED_RGB.c     **** * Parameters:
  64:LED_RGB.c     **** *  LED_Color: Describes which LED color is to be written.
  65:LED_RGB.c     **** *  LED_NewDutyCycle: Describes the new duty cycle to be written to the PWM.
  66:LED_RGB.c     **** *   Tested with 16-bit values(0-65535 dark to bright), but should work with
  67:LED_RGB.c     **** *   8-bit values if the PWMs are 8-bit.
  68:LED_RGB.c     **** *
  69:LED_RGB.c     **** *****************************************************************************/
  70:LED_RGB.c     **** void LED_RGB_DCWrite(uint8 LED_Color, uint16 LED_NewDutyCycle)
  71:LED_RGB.c     **** {
  92              		.loc 1 71 0
  93              		.cfi_startproc
  94              		@ args = 0, pretend = 0, frame = 8
  95              		@ frame_needed = 1, uses_anonymous_args = 0
  96 0000 80B5     		push	{r7, lr}
  97              		.cfi_def_cfa_offset 8
  98              		.cfi_offset 7, -8
  99              		.cfi_offset 14, -4
 100 0002 82B0     		sub	sp, sp, #8
ARM GAS  C:\Users\Jacob\AppData\Local\Temp\ccka1BXn.s 			page 4


 101              		.cfi_def_cfa_offset 16
 102 0004 00AF     		add	r7, sp, #0
 103              		.cfi_def_cfa_register 7
 104 0006 0200     		movs	r2, r0
 105 0008 FB1D     		adds	r3, r7, #7
 106 000a 1A70     		strb	r2, [r3]
 107 000c 3B1D     		adds	r3, r7, #4
 108 000e 0A1C     		adds	r2, r1, #0
 109 0010 1A80     		strh	r2, [r3]
  72:LED_RGB.c     ****     #if ( LED_RGB_PWM_RESOLUTION == 16 )
  73:LED_RGB.c     ****     
  74:LED_RGB.c     ****     switch(LED_Color)
 110              		.loc 1 74 0
 111 0012 FB1D     		adds	r3, r7, #7
 112 0014 1B78     		ldrb	r3, [r3]
 113 0016 022B     		cmp	r3, #2
 114 0018 0AD0     		beq	.L5
 115 001a 032B     		cmp	r3, #3
 116 001c 0ED0     		beq	.L6
 117 001e 012B     		cmp	r3, #1
 118 0020 00D0     		beq	.L7
  75:LED_RGB.c     ****     {
  76:LED_RGB.c     ****     case LED_RED:
  77:LED_RGB.c     ****         PWM_R_WriteCompare(LED_NewDutyCycle);
  78:LED_RGB.c     ****         break;
  79:LED_RGB.c     ****     case LED_GREEN:
  80:LED_RGB.c     ****         PWM_G_WriteCompare(LED_NewDutyCycle);
  81:LED_RGB.c     ****         break;
  82:LED_RGB.c     ****     case LED_BLUE:
  83:LED_RGB.c     ****         PWM_B_WriteCompare(LED_NewDutyCycle);
  84:LED_RGB.c     ****         break;
  85:LED_RGB.c     ****     default:
  86:LED_RGB.c     ****         break;
 119              		.loc 1 86 0
 120 0022 11E0     		b	.L8
 121              	.L7:
  77:LED_RGB.c     ****         break;
 122              		.loc 1 77 0
 123 0024 3B1D     		adds	r3, r7, #4
 124 0026 1B88     		ldrh	r3, [r3]
 125 0028 1800     		movs	r0, r3
 126 002a FFF7FEFF 		bl	PWM_R_WriteCompare
  78:LED_RGB.c     ****     case LED_GREEN:
 127              		.loc 1 78 0
 128 002e 0BE0     		b	.L8
 129              	.L5:
  80:LED_RGB.c     ****         break;
 130              		.loc 1 80 0
 131 0030 3B1D     		adds	r3, r7, #4
 132 0032 1B88     		ldrh	r3, [r3]
 133 0034 1800     		movs	r0, r3
 134 0036 FFF7FEFF 		bl	PWM_G_WriteCompare
  81:LED_RGB.c     ****     case LED_BLUE:
 135              		.loc 1 81 0
 136 003a 05E0     		b	.L8
 137              	.L6:
  83:LED_RGB.c     ****         break;
ARM GAS  C:\Users\Jacob\AppData\Local\Temp\ccka1BXn.s 			page 5


 138              		.loc 1 83 0
 139 003c 3B1D     		adds	r3, r7, #4
 140 003e 1B88     		ldrh	r3, [r3]
 141 0040 1800     		movs	r0, r3
 142 0042 FFF7FEFF 		bl	PWM_B_WriteCompare
  84:LED_RGB.c     ****     default:
 143              		.loc 1 84 0
 144 0046 C046     		nop
 145              	.L8:
  87:LED_RGB.c     ****     }
  88:LED_RGB.c     ****     
  89:LED_RGB.c     ****     #elif ( LED_RGB_PWM_RESOLUTION == 8 )
  90:LED_RGB.c     ****     
  91:LED_RGB.c     ****     switch(LED_Color)
  92:LED_RGB.c     ****     {
  93:LED_RGB.c     ****     case LED_RED:
  94:LED_RGB.c     ****         PWM_RG_WriteCompare1(LED_NewDutyCycle>>8);
  95:LED_RGB.c     ****         break;
  96:LED_RGB.c     ****     case LED_GREEN:
  97:LED_RGB.c     ****         PWM_RG_WriteCompare2(LED_NewDutyCycle>>8);
  98:LED_RGB.c     ****         break;
  99:LED_RGB.c     ****     case LED_BLUE:
 100:LED_RGB.c     ****         PWM_B_WriteCompare(LED_NewDutyCycle>>8);
 101:LED_RGB.c     ****         break;
 102:LED_RGB.c     ****     default:
 103:LED_RGB.c     ****         break;
 104:LED_RGB.c     ****     }
 105:LED_RGB.c     ****     
 106:LED_RGB.c     ****     #else
 107:LED_RGB.c     ****     
 108:LED_RGB.c     ****     /* This should never happen so we force a compile error. Use 8 or 16 bit! */
 109:LED_RGB.c     ****     Use 8 or 16 bit only!
 110:LED_RGB.c     ****     
 111:LED_RGB.c     ****     #endif
 112:LED_RGB.c     **** }
 146              		.loc 1 112 0
 147 0048 C046     		nop
 148 004a BD46     		mov	sp, r7
 149 004c 02B0     		add	sp, sp, #8
 150              		@ sp needed
 151 004e 80BD     		pop	{r7, pc}
 152              		.cfi_endproc
 153              	.LFE37:
 154              		.size	LED_RGB_DCWrite, .-LED_RGB_DCWrite
 155              		.section	.text.LED_RGB_SetColorRGB,"ax",%progbits
 156              		.align	2
 157              		.global	LED_RGB_SetColorRGB
 158              		.code	16
 159              		.thumb_func
 160              		.type	LED_RGB_SetColorRGB, %function
 161              	LED_RGB_SetColorRGB:
 162              	.LFB38:
 113:LED_RGB.c     **** 
 114:LED_RGB.c     **** /*****************************************************************************
 115:LED_RGB.c     **** * Function Name: LED_RGB_SetColorRGB()
 116:LED_RGB.c     **** ******************************************************************************
 117:LED_RGB.c     **** * Summary:
ARM GAS  C:\Users\Jacob\AppData\Local\Temp\ccka1BXn.s 			page 6


 118:LED_RGB.c     **** *  Writes all three of the LED duty cycles at once
 119:LED_RGB.c     **** *
 120:LED_RGB.c     **** * Parameters:
 121:LED_RGB.c     **** *  redIntensity: Describes the new red LED intensity
 122:LED_RGB.c     **** *  greenIntensity: Describes the new green LED intensity
 123:LED_RGB.c     **** *  blueIntensity: Describes the new blue LED intensity
 124:LED_RGB.c     **** *
 125:LED_RGB.c     **** *  Note: Each intensity value should be 0-65535 dark to bright full scale.
 126:LED_RGB.c     **** *
 127:LED_RGB.c     **** *****************************************************************************/
 128:LED_RGB.c     **** void LED_RGB_SetColorRGB(uint16 redIntensity, uint16 greenIntensity, uint16 blueIntensity)
 129:LED_RGB.c     **** {     
 163              		.loc 1 129 0
 164              		.cfi_startproc
 165              		@ args = 0, pretend = 0, frame = 8
 166              		@ frame_needed = 1, uses_anonymous_args = 0
 167 0000 90B5     		push	{r4, r7, lr}
 168              		.cfi_def_cfa_offset 12
 169              		.cfi_offset 4, -12
 170              		.cfi_offset 7, -8
 171              		.cfi_offset 14, -4
 172 0002 83B0     		sub	sp, sp, #12
 173              		.cfi_def_cfa_offset 24
 174 0004 00AF     		add	r7, sp, #0
 175              		.cfi_def_cfa_register 7
 176 0006 0400     		movs	r4, r0
 177 0008 0800     		movs	r0, r1
 178 000a 1100     		movs	r1, r2
 179 000c BB1D     		adds	r3, r7, #6
 180 000e 221C     		adds	r2, r4, #0
 181 0010 1A80     		strh	r2, [r3]
 182 0012 3B1D     		adds	r3, r7, #4
 183 0014 021C     		adds	r2, r0, #0
 184 0016 1A80     		strh	r2, [r3]
 185 0018 BB1C     		adds	r3, r7, #2
 186 001a 0A1C     		adds	r2, r1, #0
 187 001c 1A80     		strh	r2, [r3]
 130:LED_RGB.c     ****     LED_RGB_DCWrite(LED_RED, (uint32) redIntensity);
 188              		.loc 1 130 0
 189 001e BB1D     		adds	r3, r7, #6
 190 0020 1B88     		ldrh	r3, [r3]
 191 0022 1900     		movs	r1, r3
 192 0024 0120     		movs	r0, #1
 193 0026 FFF7FEFF 		bl	LED_RGB_DCWrite
 131:LED_RGB.c     ****     LED_RGB_DCWrite(LED_GREEN, (uint32) greenIntensity);
 194              		.loc 1 131 0
 195 002a 3B1D     		adds	r3, r7, #4
 196 002c 1B88     		ldrh	r3, [r3]
 197 002e 1900     		movs	r1, r3
 198 0030 0220     		movs	r0, #2
 199 0032 FFF7FEFF 		bl	LED_RGB_DCWrite
 132:LED_RGB.c     ****     LED_RGB_DCWrite(LED_BLUE, (uint32) blueIntensity);
 200              		.loc 1 132 0
 201 0036 BB1C     		adds	r3, r7, #2
 202 0038 1B88     		ldrh	r3, [r3]
 203 003a 1900     		movs	r1, r3
 204 003c 0320     		movs	r0, #3
ARM GAS  C:\Users\Jacob\AppData\Local\Temp\ccka1BXn.s 			page 7


 205 003e FFF7FEFF 		bl	LED_RGB_DCWrite
 133:LED_RGB.c     **** }
 206              		.loc 1 133 0
 207 0042 C046     		nop
 208 0044 BD46     		mov	sp, r7
 209 0046 03B0     		add	sp, sp, #12
 210              		@ sp needed
 211 0048 90BD     		pop	{r4, r7, pc}
 212              		.cfi_endproc
 213              	.LFE38:
 214              		.size	LED_RGB_SetColorRGB, .-LED_RGB_SetColorRGB
 215 004a C046     		.section	.text.LED_RGB_SetColorCircle,"ax",%progbits
 216              		.align	2
 217              		.global	LED_RGB_SetColorCircle
 218              		.code	16
 219              		.thumb_func
 220              		.type	LED_RGB_SetColorCircle, %function
 221              	LED_RGB_SetColorCircle:
 222              	.LFB39:
 134:LED_RGB.c     **** 
 135:LED_RGB.c     **** /*****************************************************************************
 136:LED_RGB.c     **** * Function Name: LED_RGB_SetColorCircle()
 137:LED_RGB.c     **** ******************************************************************************
 138:LED_RGB.c     **** * Summary:
 139:LED_RGB.c     **** *  Sets the three LEDs to produce the specified hue at 100% saturation and
 140:LED_RGB.c     **** * value. This will produce the most saturated version of the color.
 141:LED_RGB.c     **** *
 142:LED_RGB.c     **** * Parameters:
 143:LED_RGB.c     **** *  hue: Describes the LED color hue 
 144:LED_RGB.c     **** *   (0-65535 full scale, red->green->blue->red)
 145:LED_RGB.c     **** *
 146:LED_RGB.c     **** *****************************************************************************/
 147:LED_RGB.c     **** void LED_RGB_SetColorCircle(uint16 hue)
 148:LED_RGB.c     **** {
 223              		.loc 1 148 0
 224              		.cfi_startproc
 225              		@ args = 0, pretend = 0, frame = 16
 226              		@ frame_needed = 1, uses_anonymous_args = 0
 227 0000 80B5     		push	{r7, lr}
 228              		.cfi_def_cfa_offset 8
 229              		.cfi_offset 7, -8
 230              		.cfi_offset 14, -4
 231 0002 84B0     		sub	sp, sp, #16
 232              		.cfi_def_cfa_offset 24
 233 0004 00AF     		add	r7, sp, #0
 234              		.cfi_def_cfa_register 7
 235 0006 0200     		movs	r2, r0
 236 0008 BB1D     		adds	r3, r7, #6
 237 000a 1A80     		strh	r2, [r3]
 149:LED_RGB.c     ****     uint16 redIntensity, greenIntensity, blueIntensity;
 150:LED_RGB.c     **** 
 151:LED_RGB.c     ****     if(hue < UINT16_1_6TH_MAX)
 238              		.loc 1 151 0
 239 000c BB1D     		adds	r3, r7, #6
 240 000e 1B88     		ldrh	r3, [r3]
 241 0010 564A     		ldr	r2, .L17
 242 0012 9342     		cmp	r3, r2
ARM GAS  C:\Users\Jacob\AppData\Local\Temp\ccka1BXn.s 			page 8


 243 0014 12D8     		bhi	.L11
 152:LED_RGB.c     ****     {
 153:LED_RGB.c     ****         //red on, green increasing
 154:LED_RGB.c     ****         redIntensity = UINT16_MAX;
 244              		.loc 1 154 0
 245 0016 0E23     		movs	r3, #14
 246 0018 FB18     		adds	r3, r7, r3
 247 001a 0122     		movs	r2, #1
 248 001c 5242     		rsbs	r2, r2, #0
 249 001e 1A80     		strh	r2, [r3]
 155:LED_RGB.c     ****         greenIntensity = hue * 6;
 250              		.loc 1 155 0
 251 0020 0C23     		movs	r3, #12
 252 0022 F918     		adds	r1, r7, r3
 253 0024 BB1D     		adds	r3, r7, #6
 254 0026 1B88     		ldrh	r3, [r3]
 255 0028 1A1C     		adds	r2, r3, #0
 256 002a 9218     		adds	r2, r2, r2
 257 002c D318     		adds	r3, r2, r3
 258 002e DB18     		adds	r3, r3, r3
 259 0030 0B80     		strh	r3, [r1]
 156:LED_RGB.c     ****         blueIntensity = 0;
 260              		.loc 1 156 0
 261 0032 0A23     		movs	r3, #10
 262 0034 FB18     		adds	r3, r7, r3
 263 0036 0022     		movs	r2, #0
 264 0038 1A80     		strh	r2, [r3]
 265 003a 87E0     		b	.L12
 266              	.L11:
 157:LED_RGB.c     ****     }
 158:LED_RGB.c     ****     else if(hue < UINT16_2_6TH_MAX)
 267              		.loc 1 158 0
 268 003c BB1D     		adds	r3, r7, #6
 269 003e 1B88     		ldrh	r3, [r3]
 270 0040 4B4A     		ldr	r2, .L17+4
 271 0042 9342     		cmp	r3, r2
 272 0044 16D8     		bhi	.L13
 159:LED_RGB.c     ****     {
 160:LED_RGB.c     ****         //green on, red decreasing
 161:LED_RGB.c     ****         redIntensity = (UINT16_2_6TH_MAX - hue) * 6;
 273              		.loc 1 161 0
 274 0046 BB1D     		adds	r3, r7, #6
 275 0048 1B88     		ldrh	r3, [r3]
 276 004a 4A4A     		ldr	r2, .L17+8
 277 004c D31A     		subs	r3, r2, r3
 278 004e 9BB2     		uxth	r3, r3
 279 0050 0E22     		movs	r2, #14
 280 0052 BA18     		adds	r2, r7, r2
 281 0054 191C     		adds	r1, r3, #0
 282 0056 0B1C     		adds	r3, r1, #0
 283 0058 DB18     		adds	r3, r3, r3
 284 005a 5B18     		adds	r3, r3, r1
 285 005c DB18     		adds	r3, r3, r3
 286 005e 1380     		strh	r3, [r2]
 162:LED_RGB.c     ****         greenIntensity = UINT16_MAX;
 287              		.loc 1 162 0
 288 0060 0C23     		movs	r3, #12
ARM GAS  C:\Users\Jacob\AppData\Local\Temp\ccka1BXn.s 			page 9


 289 0062 FB18     		adds	r3, r7, r3
 290 0064 0122     		movs	r2, #1
 291 0066 5242     		rsbs	r2, r2, #0
 292 0068 1A80     		strh	r2, [r3]
 163:LED_RGB.c     ****         blueIntensity = 0;
 293              		.loc 1 163 0
 294 006a 0A23     		movs	r3, #10
 295 006c FB18     		adds	r3, r7, r3
 296 006e 0022     		movs	r2, #0
 297 0070 1A80     		strh	r2, [r3]
 298 0072 6BE0     		b	.L12
 299              	.L13:
 164:LED_RGB.c     ****     }
 165:LED_RGB.c     ****     else if(hue < UINT16_3_6TH_MAX)
 300              		.loc 1 165 0
 301 0074 BB1D     		adds	r3, r7, #6
 302 0076 1B88     		ldrh	r3, [r3]
 303 0078 3F4A     		ldr	r2, .L17+12
 304 007a 9342     		cmp	r3, r2
 305 007c 17D8     		bhi	.L14
 166:LED_RGB.c     ****     {
 167:LED_RGB.c     ****         //green on, blue increasing
 168:LED_RGB.c     ****         redIntensity = 0;
 306              		.loc 1 168 0
 307 007e 0E23     		movs	r3, #14
 308 0080 FB18     		adds	r3, r7, r3
 309 0082 0022     		movs	r2, #0
 310 0084 1A80     		strh	r2, [r3]
 169:LED_RGB.c     ****         greenIntensity = UINT16_MAX;
 311              		.loc 1 169 0
 312 0086 0C23     		movs	r3, #12
 313 0088 FB18     		adds	r3, r7, r3
 314 008a 0122     		movs	r2, #1
 315 008c 5242     		rsbs	r2, r2, #0
 316 008e 1A80     		strh	r2, [r3]
 170:LED_RGB.c     ****         blueIntensity = (hue - UINT16_2_6TH_MAX) * 6;
 317              		.loc 1 170 0
 318 0090 BB1D     		adds	r3, r7, #6
 319 0092 1B88     		ldrh	r3, [r3]
 320 0094 394A     		ldr	r2, .L17+16
 321 0096 9446     		mov	ip, r2
 322 0098 6344     		add	r3, r3, ip
 323 009a 9BB2     		uxth	r3, r3
 324 009c 0A22     		movs	r2, #10
 325 009e BA18     		adds	r2, r7, r2
 326 00a0 191C     		adds	r1, r3, #0
 327 00a2 0B1C     		adds	r3, r1, #0
 328 00a4 DB18     		adds	r3, r3, r3
 329 00a6 5B18     		adds	r3, r3, r1
 330 00a8 DB18     		adds	r3, r3, r3
 331 00aa 1380     		strh	r3, [r2]
 332 00ac 4EE0     		b	.L12
 333              	.L14:
 171:LED_RGB.c     ****     }
 172:LED_RGB.c     ****     else if(hue < UINT16_4_6TH_MAX)
 334              		.loc 1 172 0
 335 00ae BB1D     		adds	r3, r7, #6
ARM GAS  C:\Users\Jacob\AppData\Local\Temp\ccka1BXn.s 			page 10


 336 00b0 1B88     		ldrh	r3, [r3]
 337 00b2 334A     		ldr	r2, .L17+20
 338 00b4 9342     		cmp	r3, r2
 339 00b6 16D8     		bhi	.L15
 173:LED_RGB.c     ****     {
 174:LED_RGB.c     ****         //blue on, green decreasing
 175:LED_RGB.c     ****         redIntensity = 0;
 340              		.loc 1 175 0
 341 00b8 0E23     		movs	r3, #14
 342 00ba FB18     		adds	r3, r7, r3
 343 00bc 0022     		movs	r2, #0
 344 00be 1A80     		strh	r2, [r3]
 176:LED_RGB.c     ****         greenIntensity = (UINT16_4_6TH_MAX - hue) * 6;
 345              		.loc 1 176 0
 346 00c0 BB1D     		adds	r3, r7, #6
 347 00c2 1B88     		ldrh	r3, [r3]
 348 00c4 2F4A     		ldr	r2, .L17+24
 349 00c6 D31A     		subs	r3, r2, r3
 350 00c8 9BB2     		uxth	r3, r3
 351 00ca 0C22     		movs	r2, #12
 352 00cc BA18     		adds	r2, r7, r2
 353 00ce 191C     		adds	r1, r3, #0
 354 00d0 0B1C     		adds	r3, r1, #0
 355 00d2 DB18     		adds	r3, r3, r3
 356 00d4 5B18     		adds	r3, r3, r1
 357 00d6 DB18     		adds	r3, r3, r3
 358 00d8 1380     		strh	r3, [r2]
 177:LED_RGB.c     ****         blueIntensity = UINT16_MAX;
 359              		.loc 1 177 0
 360 00da 0A23     		movs	r3, #10
 361 00dc FB18     		adds	r3, r7, r3
 362 00de 0122     		movs	r2, #1
 363 00e0 5242     		rsbs	r2, r2, #0
 364 00e2 1A80     		strh	r2, [r3]
 365 00e4 32E0     		b	.L12
 366              	.L15:
 178:LED_RGB.c     ****     }
 179:LED_RGB.c     ****     else if(hue < UINT16_5_6TH_MAX)
 367              		.loc 1 179 0
 368 00e6 BB1D     		adds	r3, r7, #6
 369 00e8 1B88     		ldrh	r3, [r3]
 370 00ea 274A     		ldr	r2, .L17+28
 371 00ec 9342     		cmp	r3, r2
 372 00ee 17D8     		bhi	.L16
 180:LED_RGB.c     ****     {
 181:LED_RGB.c     ****         //blue on, red increasing
 182:LED_RGB.c     ****         redIntensity =  (hue - UINT16_4_6TH_MAX) * 6;
 373              		.loc 1 182 0
 374 00f0 BB1D     		adds	r3, r7, #6
 375 00f2 1B88     		ldrh	r3, [r3]
 376 00f4 254A     		ldr	r2, .L17+32
 377 00f6 9446     		mov	ip, r2
 378 00f8 6344     		add	r3, r3, ip
 379 00fa 9BB2     		uxth	r3, r3
 380 00fc 0E22     		movs	r2, #14
 381 00fe BA18     		adds	r2, r7, r2
 382 0100 191C     		adds	r1, r3, #0
ARM GAS  C:\Users\Jacob\AppData\Local\Temp\ccka1BXn.s 			page 11


 383 0102 0B1C     		adds	r3, r1, #0
 384 0104 DB18     		adds	r3, r3, r3
 385 0106 5B18     		adds	r3, r3, r1
 386 0108 DB18     		adds	r3, r3, r3
 387 010a 1380     		strh	r3, [r2]
 183:LED_RGB.c     ****         greenIntensity = 0;
 388              		.loc 1 183 0
 389 010c 0C23     		movs	r3, #12
 390 010e FB18     		adds	r3, r7, r3
 391 0110 0022     		movs	r2, #0
 392 0112 1A80     		strh	r2, [r3]
 184:LED_RGB.c     ****         blueIntensity = UINT16_MAX;
 393              		.loc 1 184 0
 394 0114 0A23     		movs	r3, #10
 395 0116 FB18     		adds	r3, r7, r3
 396 0118 0122     		movs	r2, #1
 397 011a 5242     		rsbs	r2, r2, #0
 398 011c 1A80     		strh	r2, [r3]
 399 011e 15E0     		b	.L12
 400              	.L16:
 185:LED_RGB.c     ****     }
 186:LED_RGB.c     ****     else
 187:LED_RGB.c     ****     {
 188:LED_RGB.c     ****         //red on, blue decreasing
 189:LED_RGB.c     ****         redIntensity = UINT16_MAX;
 401              		.loc 1 189 0
 402 0120 0E23     		movs	r3, #14
 403 0122 FB18     		adds	r3, r7, r3
 404 0124 0122     		movs	r2, #1
 405 0126 5242     		rsbs	r2, r2, #0
 406 0128 1A80     		strh	r2, [r3]
 190:LED_RGB.c     ****         greenIntensity = 0;
 407              		.loc 1 190 0
 408 012a 0C23     		movs	r3, #12
 409 012c FB18     		adds	r3, r7, r3
 410 012e 0022     		movs	r2, #0
 411 0130 1A80     		strh	r2, [r3]
 191:LED_RGB.c     ****         blueIntensity = (UINT16_MAX - hue) * 6;
 412              		.loc 1 191 0
 413 0132 BB1D     		adds	r3, r7, #6
 414 0134 1B88     		ldrh	r3, [r3]
 415 0136 164A     		ldr	r2, .L17+36
 416 0138 D31A     		subs	r3, r2, r3
 417 013a 9BB2     		uxth	r3, r3
 418 013c 0A22     		movs	r2, #10
 419 013e BA18     		adds	r2, r7, r2
 420 0140 191C     		adds	r1, r3, #0
 421 0142 0B1C     		adds	r3, r1, #0
 422 0144 DB18     		adds	r3, r3, r3
 423 0146 5B18     		adds	r3, r3, r1
 424 0148 DB18     		adds	r3, r3, r3
 425 014a 1380     		strh	r3, [r2]
 426              	.L12:
 192:LED_RGB.c     ****     }
 193:LED_RGB.c     ****     
 194:LED_RGB.c     ****     LED_RGB_SetColorRGB(redIntensity, greenIntensity, blueIntensity);
 427              		.loc 1 194 0
ARM GAS  C:\Users\Jacob\AppData\Local\Temp\ccka1BXn.s 			page 12


 428 014c 0A23     		movs	r3, #10
 429 014e FB18     		adds	r3, r7, r3
 430 0150 1A88     		ldrh	r2, [r3]
 431 0152 0C23     		movs	r3, #12
 432 0154 FB18     		adds	r3, r7, r3
 433 0156 1988     		ldrh	r1, [r3]
 434 0158 0E23     		movs	r3, #14
 435 015a FB18     		adds	r3, r7, r3
 436 015c 1B88     		ldrh	r3, [r3]
 437 015e 1800     		movs	r0, r3
 438 0160 FFF7FEFF 		bl	LED_RGB_SetColorRGB
 195:LED_RGB.c     **** }
 439              		.loc 1 195 0
 440 0164 C046     		nop
 441 0166 BD46     		mov	sp, r7
 442 0168 04B0     		add	sp, sp, #16
 443              		@ sp needed
 444 016a 80BD     		pop	{r7, pc}
 445              	.L18:
 446              		.align	2
 447              	.L17:
 448 016c A92A0000 		.word	10921
 449 0170 54550000 		.word	21844
 450 0174 55550000 		.word	21845
 451 0178 FE7F0000 		.word	32766
 452 017c ABAAFFFF 		.word	-21845
 453 0180 A9AA0000 		.word	43689
 454 0184 AAAA0000 		.word	43690
 455 0188 53D50000 		.word	54611
 456 018c 5655FFFF 		.word	-43690
 457 0190 FFFF0000 		.word	65535
 458              		.cfi_endproc
 459              	.LFE39:
 460              		.size	LED_RGB_SetColorCircle, .-LED_RGB_SetColorCircle
 461              		.global	__aeabi_uidiv
 462              		.section	.text.LED_RGB_SetColorCircleHSV,"ax",%progbits
 463              		.align	2
 464              		.global	LED_RGB_SetColorCircleHSV
 465              		.code	16
 466              		.thumb_func
 467              		.type	LED_RGB_SetColorCircleHSV, %function
 468              	LED_RGB_SetColorCircleHSV:
 469              	.LFB40:
 196:LED_RGB.c     **** 
 197:LED_RGB.c     **** /*****************************************************************************
 198:LED_RGB.c     **** * Function Name: LED_RGB_SetColorCircleHSV()
 199:LED_RGB.c     **** ******************************************************************************
 200:LED_RGB.c     **** * Summary:
 201:LED_RGB.c     **** *  Sets the three LEDs to produce the specified hue, saturation and value.
 202:LED_RGB.c     **** *
 203:LED_RGB.c     **** * Parameters:
 204:LED_RGB.c     **** *  hue: Describes the LED array hue (color)
 205:LED_RGB.c     **** *   (0-65535 full scale, red->green->blue->red)
 206:LED_RGB.c     **** *  saturation: Describes the LED array saturation (un-whiteness)
 207:LED_RGB.c     **** *   (0-65535 full scale, white->hue)
 208:LED_RGB.c     **** *  value: Describes the LED array value (un-blackness)
 209:LED_RGB.c     **** *   (0-65535 full scale, black->hue)
ARM GAS  C:\Users\Jacob\AppData\Local\Temp\ccka1BXn.s 			page 13


 210:LED_RGB.c     **** *
 211:LED_RGB.c     **** *****************************************************************************/
 212:LED_RGB.c     **** void LED_RGB_SetColorCircleHSV(uint16 hue, uint16 saturation, uint16 value)
 213:LED_RGB.c     **** {
 470              		.loc 1 213 0
 471              		.cfi_startproc
 472              		@ args = 0, pretend = 0, frame = 32
 473              		@ frame_needed = 1, uses_anonymous_args = 0
 474 0000 90B5     		push	{r4, r7, lr}
 475              		.cfi_def_cfa_offset 12
 476              		.cfi_offset 4, -12
 477              		.cfi_offset 7, -8
 478              		.cfi_offset 14, -4
 479 0002 89B0     		sub	sp, sp, #36
 480              		.cfi_def_cfa_offset 48
 481 0004 00AF     		add	r7, sp, #0
 482              		.cfi_def_cfa_register 7
 483 0006 0400     		movs	r4, r0
 484 0008 0800     		movs	r0, r1
 485 000a 1100     		movs	r1, r2
 486 000c BB1D     		adds	r3, r7, #6
 487 000e 221C     		adds	r2, r4, #0
 488 0010 1A80     		strh	r2, [r3]
 489 0012 3B1D     		adds	r3, r7, #4
 490 0014 021C     		adds	r2, r0, #0
 491 0016 1A80     		strh	r2, [r3]
 492 0018 BB1C     		adds	r3, r7, #2
 493 001a 0A1C     		adds	r2, r1, #0
 494 001c 1A80     		strh	r2, [r3]
 214:LED_RGB.c     ****     int32 redIntensity, greenIntensity, blueIntensity;
 215:LED_RGB.c     ****     
 216:LED_RGB.c     ****     uint32 dominantIntensityC = ((uint32)saturation) * value / UINT16_MAX;
 495              		.loc 1 216 0
 496 001e 3B1D     		adds	r3, r7, #4
 497 0020 1B88     		ldrh	r3, [r3]
 498 0022 BA1C     		adds	r2, r7, #2
 499 0024 1288     		ldrh	r2, [r2]
 500 0026 5343     		muls	r3, r2
 501 0028 6749     		ldr	r1, .L32
 502 002a 1800     		movs	r0, r3
 503 002c FFF7FEFF 		bl	__aeabi_uidiv
 504 0030 0300     		movs	r3, r0
 505 0032 3B61     		str	r3, [r7, #16]
 217:LED_RGB.c     ****     
 218:LED_RGB.c     ****     int32 intensityShiftM = ((int32)value) - dominantIntensityC;
 506              		.loc 1 218 0
 507 0034 BB1C     		adds	r3, r7, #2
 508 0036 1A88     		ldrh	r2, [r3]
 509 0038 3B69     		ldr	r3, [r7, #16]
 510 003a D31A     		subs	r3, r2, r3
 511 003c FB60     		str	r3, [r7, #12]
 219:LED_RGB.c     ****     
 220:LED_RGB.c     ****     if(hue < UINT16_1_6TH_MAX)
 512              		.loc 1 220 0
 513 003e BB1D     		adds	r3, r7, #6
 514 0040 1B88     		ldrh	r3, [r3]
 515 0042 624A     		ldr	r2, .L32+4
ARM GAS  C:\Users\Jacob\AppData\Local\Temp\ccka1BXn.s 			page 14


 516 0044 9342     		cmp	r3, r2
 517 0046 12D8     		bhi	.L20
 221:LED_RGB.c     ****     {
 222:LED_RGB.c     ****         //red on, green increasing
 223:LED_RGB.c     ****         redIntensity = dominantIntensityC;
 518              		.loc 1 223 0
 519 0048 3B69     		ldr	r3, [r7, #16]
 520 004a FB61     		str	r3, [r7, #28]
 224:LED_RGB.c     ****         greenIntensity = (hue * 6) * dominantIntensityC / UINT16_2_6TH_MAX ;
 521              		.loc 1 224 0
 522 004c BB1D     		adds	r3, r7, #6
 523 004e 1B88     		ldrh	r3, [r3]
 524 0050 3A69     		ldr	r2, [r7, #16]
 525 0052 5A43     		muls	r2, r3
 526 0054 1300     		movs	r3, r2
 527 0056 5B00     		lsls	r3, r3, #1
 528 0058 9B18     		adds	r3, r3, r2
 529 005a 5B00     		lsls	r3, r3, #1
 530 005c 5C49     		ldr	r1, .L32+8
 531 005e 1800     		movs	r0, r3
 532 0060 FFF7FEFF 		bl	__aeabi_uidiv
 533 0064 0300     		movs	r3, r0
 534 0066 BB61     		str	r3, [r7, #24]
 225:LED_RGB.c     ****         blueIntensity = 0;
 535              		.loc 1 225 0
 536 0068 0023     		movs	r3, #0
 537 006a 7B61     		str	r3, [r7, #20]
 538 006c 6EE0     		b	.L21
 539              	.L20:
 226:LED_RGB.c     ****     }
 227:LED_RGB.c     ****     else if(hue < UINT16_2_6TH_MAX)
 540              		.loc 1 227 0
 541 006e BB1D     		adds	r3, r7, #6
 542 0070 1B88     		ldrh	r3, [r3]
 543 0072 584A     		ldr	r2, .L32+12
 544 0074 9342     		cmp	r3, r2
 545 0076 11D8     		bhi	.L22
 228:LED_RGB.c     ****     {
 229:LED_RGB.c     ****         //green on, red decreasing
 230:LED_RGB.c     ****         redIntensity = (UINT16_2_6TH_MAX - hue) * dominantIntensityC / UINT16_1_6TH_MAX;
 546              		.loc 1 230 0
 547 0078 BB1D     		adds	r3, r7, #6
 548 007a 1B88     		ldrh	r3, [r3]
 549 007c 544A     		ldr	r2, .L32+8
 550 007e D31A     		subs	r3, r2, r3
 551 0080 1A00     		movs	r2, r3
 552 0082 3B69     		ldr	r3, [r7, #16]
 553 0084 5343     		muls	r3, r2
 554 0086 5449     		ldr	r1, .L32+16
 555 0088 1800     		movs	r0, r3
 556 008a FFF7FEFF 		bl	__aeabi_uidiv
 557 008e 0300     		movs	r3, r0
 558 0090 FB61     		str	r3, [r7, #28]
 231:LED_RGB.c     ****         greenIntensity = dominantIntensityC;
 559              		.loc 1 231 0
 560 0092 3B69     		ldr	r3, [r7, #16]
 561 0094 BB61     		str	r3, [r7, #24]
ARM GAS  C:\Users\Jacob\AppData\Local\Temp\ccka1BXn.s 			page 15


 232:LED_RGB.c     ****         blueIntensity = 0;
 562              		.loc 1 232 0
 563 0096 0023     		movs	r3, #0
 564 0098 7B61     		str	r3, [r7, #20]
 565 009a 57E0     		b	.L21
 566              	.L22:
 233:LED_RGB.c     ****     }
 234:LED_RGB.c     ****     else if(hue < UINT16_3_6TH_MAX)
 567              		.loc 1 234 0
 568 009c BB1D     		adds	r3, r7, #6
 569 009e 1B88     		ldrh	r3, [r3]
 570 00a0 4E4A     		ldr	r2, .L32+20
 571 00a2 9342     		cmp	r3, r2
 572 00a4 12D8     		bhi	.L23
 235:LED_RGB.c     ****     {
 236:LED_RGB.c     ****         //green on, blue increasing
 237:LED_RGB.c     ****         redIntensity = 0;
 573              		.loc 1 237 0
 574 00a6 0023     		movs	r3, #0
 575 00a8 FB61     		str	r3, [r7, #28]
 238:LED_RGB.c     ****         greenIntensity = dominantIntensityC;
 576              		.loc 1 238 0
 577 00aa 3B69     		ldr	r3, [r7, #16]
 578 00ac BB61     		str	r3, [r7, #24]
 239:LED_RGB.c     ****         blueIntensity = (hue - UINT16_2_6TH_MAX) * dominantIntensityC / UINT16_1_6TH_MAX;
 579              		.loc 1 239 0
 580 00ae BB1D     		adds	r3, r7, #6
 581 00b0 1B88     		ldrh	r3, [r3]
 582 00b2 4B4A     		ldr	r2, .L32+24
 583 00b4 9446     		mov	ip, r2
 584 00b6 6344     		add	r3, r3, ip
 585 00b8 1A00     		movs	r2, r3
 586 00ba 3B69     		ldr	r3, [r7, #16]
 587 00bc 5343     		muls	r3, r2
 588 00be 4649     		ldr	r1, .L32+16
 589 00c0 1800     		movs	r0, r3
 590 00c2 FFF7FEFF 		bl	__aeabi_uidiv
 591 00c6 0300     		movs	r3, r0
 592 00c8 7B61     		str	r3, [r7, #20]
 593 00ca 3FE0     		b	.L21
 594              	.L23:
 240:LED_RGB.c     ****     }
 241:LED_RGB.c     ****     else if(hue < UINT16_4_6TH_MAX)
 595              		.loc 1 241 0
 596 00cc BB1D     		adds	r3, r7, #6
 597 00ce 1B88     		ldrh	r3, [r3]
 598 00d0 444A     		ldr	r2, .L32+28
 599 00d2 9342     		cmp	r3, r2
 600 00d4 11D8     		bhi	.L24
 242:LED_RGB.c     ****     {
 243:LED_RGB.c     ****         //blue on, green decreasing
 244:LED_RGB.c     ****         redIntensity = 0;
 601              		.loc 1 244 0
 602 00d6 0023     		movs	r3, #0
 603 00d8 FB61     		str	r3, [r7, #28]
 245:LED_RGB.c     ****         greenIntensity = (UINT16_4_6TH_MAX - hue) * dominantIntensityC / UINT16_1_6TH_MAX;
 604              		.loc 1 245 0
ARM GAS  C:\Users\Jacob\AppData\Local\Temp\ccka1BXn.s 			page 16


 605 00da BB1D     		adds	r3, r7, #6
 606 00dc 1B88     		ldrh	r3, [r3]
 607 00de 424A     		ldr	r2, .L32+32
 608 00e0 D31A     		subs	r3, r2, r3
 609 00e2 1A00     		movs	r2, r3
 610 00e4 3B69     		ldr	r3, [r7, #16]
 611 00e6 5343     		muls	r3, r2
 612 00e8 3B49     		ldr	r1, .L32+16
 613 00ea 1800     		movs	r0, r3
 614 00ec FFF7FEFF 		bl	__aeabi_uidiv
 615 00f0 0300     		movs	r3, r0
 616 00f2 BB61     		str	r3, [r7, #24]
 246:LED_RGB.c     ****         blueIntensity = dominantIntensityC;
 617              		.loc 1 246 0
 618 00f4 3B69     		ldr	r3, [r7, #16]
 619 00f6 7B61     		str	r3, [r7, #20]
 620 00f8 28E0     		b	.L21
 621              	.L24:
 247:LED_RGB.c     ****     }
 248:LED_RGB.c     ****     else if(hue < UINT16_5_6TH_MAX)
 622              		.loc 1 248 0
 623 00fa BB1D     		adds	r3, r7, #6
 624 00fc 1B88     		ldrh	r3, [r3]
 625 00fe 3B4A     		ldr	r2, .L32+36
 626 0100 9342     		cmp	r3, r2
 627 0102 12D8     		bhi	.L25
 249:LED_RGB.c     ****     {
 250:LED_RGB.c     ****         //blue on, red increasing
 251:LED_RGB.c     ****         redIntensity =  (hue - UINT16_4_6TH_MAX) * dominantIntensityC / UINT16_1_6TH_MAX;
 628              		.loc 1 251 0
 629 0104 BB1D     		adds	r3, r7, #6
 630 0106 1B88     		ldrh	r3, [r3]
 631 0108 394A     		ldr	r2, .L32+40
 632 010a 9446     		mov	ip, r2
 633 010c 6344     		add	r3, r3, ip
 634 010e 1A00     		movs	r2, r3
 635 0110 3B69     		ldr	r3, [r7, #16]
 636 0112 5343     		muls	r3, r2
 637 0114 3049     		ldr	r1, .L32+16
 638 0116 1800     		movs	r0, r3
 639 0118 FFF7FEFF 		bl	__aeabi_uidiv
 640 011c 0300     		movs	r3, r0
 641 011e FB61     		str	r3, [r7, #28]
 252:LED_RGB.c     ****         greenIntensity = 0;
 642              		.loc 1 252 0
 643 0120 0023     		movs	r3, #0
 644 0122 BB61     		str	r3, [r7, #24]
 253:LED_RGB.c     ****         blueIntensity = dominantIntensityC;
 645              		.loc 1 253 0
 646 0124 3B69     		ldr	r3, [r7, #16]
 647 0126 7B61     		str	r3, [r7, #20]
 648 0128 10E0     		b	.L21
 649              	.L25:
 254:LED_RGB.c     ****     }
 255:LED_RGB.c     ****     else
 256:LED_RGB.c     ****     {
 257:LED_RGB.c     ****         //red on, blue decreasing
ARM GAS  C:\Users\Jacob\AppData\Local\Temp\ccka1BXn.s 			page 17


 258:LED_RGB.c     ****         redIntensity = dominantIntensityC;
 650              		.loc 1 258 0
 651 012a 3B69     		ldr	r3, [r7, #16]
 652 012c FB61     		str	r3, [r7, #28]
 259:LED_RGB.c     ****         greenIntensity = 0;
 653              		.loc 1 259 0
 654 012e 0023     		movs	r3, #0
 655 0130 BB61     		str	r3, [r7, #24]
 260:LED_RGB.c     ****         blueIntensity = (UINT16_MAX - hue) * dominantIntensityC / UINT16_1_6TH_MAX;
 656              		.loc 1 260 0
 657 0132 BB1D     		adds	r3, r7, #6
 658 0134 1B88     		ldrh	r3, [r3]
 659 0136 244A     		ldr	r2, .L32
 660 0138 D31A     		subs	r3, r2, r3
 661 013a 1A00     		movs	r2, r3
 662 013c 3B69     		ldr	r3, [r7, #16]
 663 013e 5343     		muls	r3, r2
 664 0140 2549     		ldr	r1, .L32+16
 665 0142 1800     		movs	r0, r3
 666 0144 FFF7FEFF 		bl	__aeabi_uidiv
 667 0148 0300     		movs	r3, r0
 668 014a 7B61     		str	r3, [r7, #20]
 669              	.L21:
 261:LED_RGB.c     ****     }
 262:LED_RGB.c     **** 
 263:LED_RGB.c     ****     /* Scale for Saturation and Value */
 264:LED_RGB.c     ****     redIntensity += intensityShiftM;
 670              		.loc 1 264 0
 671 014c FA69     		ldr	r2, [r7, #28]
 672 014e FB68     		ldr	r3, [r7, #12]
 673 0150 D318     		adds	r3, r2, r3
 674 0152 FB61     		str	r3, [r7, #28]
 265:LED_RGB.c     ****     greenIntensity += intensityShiftM;
 675              		.loc 1 265 0
 676 0154 BA69     		ldr	r2, [r7, #24]
 677 0156 FB68     		ldr	r3, [r7, #12]
 678 0158 D318     		adds	r3, r2, r3
 679 015a BB61     		str	r3, [r7, #24]
 266:LED_RGB.c     ****     blueIntensity += intensityShiftM;
 680              		.loc 1 266 0
 681 015c 7A69     		ldr	r2, [r7, #20]
 682 015e FB68     		ldr	r3, [r7, #12]
 683 0160 D318     		adds	r3, r2, r3
 684 0162 7B61     		str	r3, [r7, #20]
 267:LED_RGB.c     ****     
 268:LED_RGB.c     ****     /* fix the overflow and underflow cases */
 269:LED_RGB.c     ****     if(redIntensity>UINT16_MAX)
 685              		.loc 1 269 0
 686 0164 FB69     		ldr	r3, [r7, #28]
 687 0166 184A     		ldr	r2, .L32
 688 0168 9342     		cmp	r3, r2
 689 016a 02DD     		ble	.L26
 270:LED_RGB.c     ****     {
 271:LED_RGB.c     ****         redIntensity=UINT16_MAX;
 690              		.loc 1 271 0
 691 016c 164B     		ldr	r3, .L32
 692 016e FB61     		str	r3, [r7, #28]
ARM GAS  C:\Users\Jacob\AppData\Local\Temp\ccka1BXn.s 			page 18


 693 0170 04E0     		b	.L27
 694              	.L26:
 272:LED_RGB.c     ****     }
 273:LED_RGB.c     ****     else if(redIntensity<0)
 695              		.loc 1 273 0
 696 0172 FB69     		ldr	r3, [r7, #28]
 697 0174 002B     		cmp	r3, #0
 698 0176 01DA     		bge	.L27
 274:LED_RGB.c     ****     {
 275:LED_RGB.c     ****         redIntensity=0;
 699              		.loc 1 275 0
 700 0178 0023     		movs	r3, #0
 701 017a FB61     		str	r3, [r7, #28]
 702              	.L27:
 276:LED_RGB.c     ****     }
 277:LED_RGB.c     ****     
 278:LED_RGB.c     ****     if(greenIntensity>UINT16_MAX)
 703              		.loc 1 278 0
 704 017c BB69     		ldr	r3, [r7, #24]
 705 017e 124A     		ldr	r2, .L32
 706 0180 9342     		cmp	r3, r2
 707 0182 02DD     		ble	.L28
 279:LED_RGB.c     ****     {
 280:LED_RGB.c     ****         greenIntensity=UINT16_MAX;
 708              		.loc 1 280 0
 709 0184 104B     		ldr	r3, .L32
 710 0186 BB61     		str	r3, [r7, #24]
 711 0188 04E0     		b	.L29
 712              	.L28:
 281:LED_RGB.c     ****     }
 282:LED_RGB.c     ****     else if(greenIntensity<0)
 713              		.loc 1 282 0
 714 018a BB69     		ldr	r3, [r7, #24]
 715 018c 002B     		cmp	r3, #0
 716 018e 01DA     		bge	.L29
 283:LED_RGB.c     ****     {
 284:LED_RGB.c     ****         greenIntensity=0;
 717              		.loc 1 284 0
 718 0190 0023     		movs	r3, #0
 719 0192 BB61     		str	r3, [r7, #24]
 720              	.L29:
 285:LED_RGB.c     ****     }
 286:LED_RGB.c     ****     
 287:LED_RGB.c     ****     if(blueIntensity>UINT16_MAX)
 721              		.loc 1 287 0
 722 0194 7B69     		ldr	r3, [r7, #20]
 723 0196 0C4A     		ldr	r2, .L32
 724 0198 9342     		cmp	r3, r2
 725 019a 02DD     		ble	.L30
 288:LED_RGB.c     ****     {
 289:LED_RGB.c     ****         blueIntensity=UINT16_MAX;
 726              		.loc 1 289 0
 727 019c 0A4B     		ldr	r3, .L32
 728 019e 7B61     		str	r3, [r7, #20]
 729 01a0 04E0     		b	.L31
 730              	.L30:
 290:LED_RGB.c     ****     }
ARM GAS  C:\Users\Jacob\AppData\Local\Temp\ccka1BXn.s 			page 19


 291:LED_RGB.c     ****     else if(blueIntensity<0)
 731              		.loc 1 291 0
 732 01a2 7B69     		ldr	r3, [r7, #20]
 733 01a4 002B     		cmp	r3, #0
 734 01a6 01DA     		bge	.L31
 292:LED_RGB.c     ****     {
 293:LED_RGB.c     ****         blueIntensity=0;
 735              		.loc 1 293 0
 736 01a8 0023     		movs	r3, #0
 737 01aa 7B61     		str	r3, [r7, #20]
 738              	.L31:
 294:LED_RGB.c     ****     }
 295:LED_RGB.c     ****     
 296:LED_RGB.c     ****     LED_RGB_SetColorRGB(redIntensity, greenIntensity, blueIntensity);
 739              		.loc 1 296 0
 740 01ac FB69     		ldr	r3, [r7, #28]
 741 01ae 9BB2     		uxth	r3, r3
 742 01b0 BA69     		ldr	r2, [r7, #24]
 743 01b2 91B2     		uxth	r1, r2
 744 01b4 7A69     		ldr	r2, [r7, #20]
 745 01b6 92B2     		uxth	r2, r2
 746 01b8 1800     		movs	r0, r3
 747 01ba FFF7FEFF 		bl	LED_RGB_SetColorRGB
 297:LED_RGB.c     **** }
 748              		.loc 1 297 0
 749 01be C046     		nop
 750 01c0 BD46     		mov	sp, r7
 751 01c2 09B0     		add	sp, sp, #36
 752              		@ sp needed
 753 01c4 90BD     		pop	{r4, r7, pc}
 754              	.L33:
 755 01c6 C046     		.align	2
 756              	.L32:
 757 01c8 FFFF0000 		.word	65535
 758 01cc A92A0000 		.word	10921
 759 01d0 55550000 		.word	21845
 760 01d4 54550000 		.word	21844
 761 01d8 AA2A0000 		.word	10922
 762 01dc FE7F0000 		.word	32766
 763 01e0 ABAAFFFF 		.word	-21845
 764 01e4 A9AA0000 		.word	43689
 765 01e8 AAAA0000 		.word	43690
 766 01ec 53D50000 		.word	54611
 767 01f0 5655FFFF 		.word	-43690
 768              		.cfi_endproc
 769              	.LFE40:
 770              		.size	LED_RGB_SetColorCircleHSV, .-LED_RGB_SetColorCircleHSV
 771              		.text
 772              	.Letext0:
 773              		.file 2 "Generated_Source\\PSoC4/cytypes.h"