ARM GAS  C:\Users\Jacob\AppData\Local\Temp\ccciIvbh.s 			page 1


   1              		.syntax unified
   2              		.cpu cortex-m0
   3              		.fpu softvfp
   4              		.eabi_attribute 20, 1
   5              		.eabi_attribute 21, 1
   6              		.eabi_attribute 23, 3
   7              		.eabi_attribute 24, 1
   8              		.eabi_attribute 25, 1
   9              		.eabi_attribute 26, 1
  10              		.eabi_attribute 30, 6
  11              		.eabi_attribute 34, 0
  12              		.eabi_attribute 18, 4
  13              		.thumb
  14              		.syntax unified
  15              		.file	"main.c"
  16              		.text
  17              	.Ltext0:
  18              		.cfi_sections	.debug_frame
  19              		.section	.rodata
  20              		.align	2
  21              	.LC0:
  22 0000 2564200A 		.ascii	"%d \012\000"
  22      00
  23              		.section	.text.main,"ax",%progbits
  24              		.align	2
  25              		.global	main
  26              		.code	16
  27              		.thumb_func
  28              		.type	main, %function
  29              	main:
  30              	.LFB36:
  31              		.file 1 "main.c"
   1:main.c        **** #include <device.h>
   2:main.c        **** #include <LED_RGB.h>
   3:main.c        **** #include <stdio.h>
   4:main.c        **** 
   5:main.c        **** int main()
   6:main.c        **** {
  32              		.loc 1 6 0
  33              		.cfi_startproc
  34              		@ args = 0, pretend = 0, frame = 40
  35              		@ frame_needed = 1, uses_anonymous_args = 0
  36 0000 80B5     		push	{r7, lr}
  37              		.cfi_def_cfa_offset 8
  38              		.cfi_offset 7, -8
  39              		.cfi_offset 14, -4
  40 0002 8AB0     		sub	sp, sp, #40
  41              		.cfi_def_cfa_offset 48
  42 0004 00AF     		add	r7, sp, #0
  43              		.cfi_def_cfa_register 7
   7:main.c        ****     /* Place your initialization/startup code here (e.g. MyInst_Start()) */
   8:main.c        ****     uint16 ADCResult;
   9:main.c        ****     LED_RGB_Start();
  44              		.loc 1 9 0
  45 0006 FFF7FEFF 		bl	LED_RGB_Start
  10:main.c        ****     char buffer[32];
  11:main.c        ****     
ARM GAS  C:\Users\Jacob\AppData\Local\Temp\ccciIvbh.s 			page 2


  12:main.c        ****     CyGlobalIntEnable; /* Uncomment this line to enable global interrupts. */
  46              		.loc 1 12 0
  47              		.syntax divided
  48              	@ 12 "main.c" 1
  49 000a 62B6     		CPSIE   i
  50              	@ 0 "" 2
  13:main.c        ****     
  14:main.c        ****     ADC_Start(); /* Replace this line with the ADC Start code */
  51              		.loc 1 14 0
  52              		.thumb
  53              		.syntax unified
  54 000c FFF7FEFF 		bl	ADC_Start
  15:main.c        ****     ADC_StartConvert();
  55              		.loc 1 15 0
  56 0010 FFF7FEFF 		bl	ADC_StartConvert
  16:main.c        ****     ADC_IsEndConversion(ADC_WAIT_FOR_RESULT);
  57              		.loc 1 16 0
  58 0014 0220     		movs	r0, #2
  59 0016 FFF7FEFF 		bl	ADC_IsEndConversion
  17:main.c        ****     UART_1_Start();
  60              		.loc 1 17 0
  61 001a FFF7FEFF 		bl	UART_1_Start
  62              	.L2:
  18:main.c        ****     for(;;)
  19:main.c        ****     {
  20:main.c        ****         /* Place your application code here. */
  21:main.c        ****         ADCResult = ADC_GetResult16(0); /* Replace this line with the ADC Get Result API */
  63              		.loc 1 21 0 discriminator 1
  64 001e 0020     		movs	r0, #0
  65 0020 FFF7FEFF 		bl	ADC_GetResult16
  66 0024 0300     		movs	r3, r0
  67 0026 1A00     		movs	r2, r3
  68 0028 2623     		movs	r3, #38
  69 002a FB18     		adds	r3, r7, r3
  70 002c 1A80     		strh	r2, [r3]
  22:main.c        ****         LED_RGB_SetColorRGB(ADCResult * (65500 / 2048), 0, 0);
  71              		.loc 1 22 0 discriminator 1
  72 002e 2623     		movs	r3, #38
  73 0030 FB18     		adds	r3, r7, r3
  74 0032 1B88     		ldrh	r3, [r3]
  75 0034 1A1C     		adds	r2, r3, #0
  76 0036 5201     		lsls	r2, r2, #5
  77 0038 D31A     		subs	r3, r2, r3
  78 003a 9BB2     		uxth	r3, r3
  79 003c 0022     		movs	r2, #0
  80 003e 0021     		movs	r1, #0
  81 0040 1800     		movs	r0, r3
  82 0042 FFF7FEFF 		bl	LED_RGB_SetColorRGB
  23:main.c        ****         sprintf(buffer, "%d \n", ADCResult);
  83              		.loc 1 23 0 discriminator 1
  84 0046 2623     		movs	r3, #38
  85 0048 FB18     		adds	r3, r7, r3
  86 004a 1A88     		ldrh	r2, [r3]
  87 004c 0649     		ldr	r1, .L3
  88 004e 3B1D     		adds	r3, r7, #4
  89 0050 1800     		movs	r0, r3
  90 0052 FFF7FEFF 		bl	sprintf
ARM GAS  C:\Users\Jacob\AppData\Local\Temp\ccciIvbh.s 			page 3


  24:main.c        ****         UART_1_PutString(buffer);
  91              		.loc 1 24 0 discriminator 1
  92 0056 3B1D     		adds	r3, r7, #4
  93 0058 1800     		movs	r0, r3
  94 005a FFF7FEFF 		bl	UART_1_PutString
  25:main.c        ****         CyDelay(10);
  95              		.loc 1 25 0 discriminator 1
  96 005e 0A20     		movs	r0, #10
  97 0060 FFF7FEFF 		bl	CyDelay
  26:main.c        ****     }
  98              		.loc 1 26 0 discriminator 1
  99 0064 DBE7     		b	.L2
 100              	.L4:
 101 0066 C046     		.align	2
 102              	.L3:
 103 0068 00000000 		.word	.LC0
 104              		.cfi_endproc
 105              	.LFE36:
 106              		.size	main, .-main
 107              		.text
 108              	.Letext0:
 109              		.file 2 "Generated_Source\\PSoC4/cytypes.h"