ARM GAS  C:\Users\Jacob\AppData\Local\Temp\ccYfASjh.s 			page 1


   1              		.syntax unified
   2              		.cpu cortex-m3
   3              		.fpu softvfp
   4              		.eabi_attribute 20, 1
   5              		.eabi_attribute 21, 1
   6              		.eabi_attribute 23, 3
   7              		.eabi_attribute 24, 1
   8              		.eabi_attribute 25, 1
   9              		.eabi_attribute 26, 1
  10              		.eabi_attribute 30, 1
  11              		.eabi_attribute 34, 1
  12              		.eabi_attribute 18, 4
  13              		.thumb
  14              		.syntax unified
  15              		.file	"main.c"
  16              		.text
  17              	.Ltext0:
  18              		.cfi_sections	.debug_frame
  19              		.global	__aeabi_fmul
  20              		.global	__aeabi_fadd
  21              		.global	__aeabi_f2iz
  22              		.section	.text.theta1,"ax",%progbits
  23              		.align	2
  24              		.global	theta1
  25              		.thumb
  26              		.thumb_func
  27              		.type	theta1, %function
  28              	theta1:
  29              	.LFB63:
  30              		.file 1 "main.c"
   1:main.c        **** /* ========================================
   2:main.c        ****  *
   3:main.c        ****  * Copyright YOUR COMPANY, THE YEAR
   4:main.c        ****  * All Rights Reserved
   5:main.c        ****  * UNPUBLISHED, LICENSED SOFTWARE.
   6:main.c        ****  *
   7:main.c        ****  * CONFIDENTIAL AND PROPRIETARY INFORMATION
   8:main.c        ****  * WHICH IS THE PROPERTY OF your company.
   9:main.c        ****  *
  10:main.c        ****  * ========================================
  11:main.c        **** */
  12:main.c        **** #include "project.h"
  13:main.c        **** #include "math.h"
  14:main.c        **** 
  15:main.c        **** #define rad2deg 180.0/3.14159
  16:main.c        **** 
  17:main.c        **** int theta1(float angle){
  31              		.loc 1 17 0
  32              		.cfi_startproc
  33              		@ args = 0, pretend = 0, frame = 0
  34              		@ frame_needed = 0, uses_anonymous_args = 0
  35              	.LVL0:
  36 0000 08B5     		push	{r3, lr}
  37              		.cfi_def_cfa_offset 8
  38              		.cfi_offset 3, -8
  39              		.cfi_offset 14, -4
  40              	.LVL1:
ARM GAS  C:\Users\Jacob\AppData\Local\Temp\ccYfASjh.s 			page 2


  18:main.c        ****     int max_comp = 6450, min_comp = 1600, max_angle=180, min_angle=0;
  19:main.c        ****     int compare;
  20:main.c        ****     compare = (max_comp-min_comp)/(max_angle-min_angle)*(angle-min_angle) + min_comp;
  41              		.loc 1 20 0
  42 0002 0449     		ldr	r1, .L3
  43 0004 FFF7FEFF 		bl	__aeabi_fmul
  44              	.LVL2:
  45 0008 0349     		ldr	r1, .L3+4
  46 000a FFF7FEFF 		bl	__aeabi_fadd
  47              	.LVL3:
  48 000e FFF7FEFF 		bl	__aeabi_f2iz
  49              	.LVL4:
  21:main.c        ****     return compare;
  22:main.c        **** }
  50              		.loc 1 22 0
  51 0012 08BD     		pop	{r3, pc}
  52              	.L4:
  53              		.align	2
  54              	.L3:
  55 0014 0000D041 		.word	1104150528
  56 0018 0000C844 		.word	1153957888
  57              		.cfi_endproc
  58              	.LFE63:
  59              		.size	theta1, .-theta1
  60              		.section	.text.theta2,"ax",%progbits
  61              		.align	2
  62              		.global	theta2
  63              		.thumb
  64              		.thumb_func
  65              		.type	theta2, %function
  66              	theta2:
  67              	.LFB64:
  23:main.c        **** int theta2(float angle){
  68              		.loc 1 23 0
  69              		.cfi_startproc
  70              		@ args = 0, pretend = 0, frame = 0
  71              		@ frame_needed = 0, uses_anonymous_args = 0
  72              	.LVL5:
  73 0000 08B5     		push	{r3, lr}
  74              		.cfi_def_cfa_offset 8
  75              		.cfi_offset 3, -8
  76              		.cfi_offset 14, -4
  77              	.LVL6:
  24:main.c        ****     int max_comp = 6750, min_comp = 2050, max_angle=90, min_angle=-90;
  25:main.c        ****     int compare;
  26:main.c        ****     compare = (max_comp-min_comp)/(max_angle-min_angle)*(angle-min_angle) + min_comp;
  78              		.loc 1 26 0
  79 0002 0649     		ldr	r1, .L7
  80 0004 FFF7FEFF 		bl	__aeabi_fadd
  81              	.LVL7:
  82 0008 0549     		ldr	r1, .L7+4
  83 000a FFF7FEFF 		bl	__aeabi_fmul
  84              	.LVL8:
  85 000e 0549     		ldr	r1, .L7+8
  86 0010 FFF7FEFF 		bl	__aeabi_fadd
  87              	.LVL9:
  88 0014 FFF7FEFF 		bl	__aeabi_f2iz
ARM GAS  C:\Users\Jacob\AppData\Local\Temp\ccYfASjh.s 			page 3


  89              	.LVL10:
  27:main.c        ****     return compare;
  28:main.c        **** }
  90              		.loc 1 28 0
  91 0018 08BD     		pop	{r3, pc}
  92              	.L8:
  93 001a 00BF     		.align	2
  94              	.L7:
  95 001c 0000B442 		.word	1119092736
  96 0020 0000D041 		.word	1104150528
  97 0024 00200045 		.word	1157636096
  98              		.cfi_endproc
  99              	.LFE64:
 100              		.size	theta2, .-theta2
 101              		.global	__aeabi_fdiv
 102              		.global	__aeabi_f2d
 103              		.global	__aeabi_d2f
 104              		.global	__aeabi_fsub
 105              		.section	.text.main,"ax",%progbits
 106              		.align	2
 107              		.global	main
 108              		.thumb
 109              		.thumb_func
 110              		.type	main, %function
 111              	main:
 112              	.LFB65:
  29:main.c        **** 
  30:main.c        **** int main(void)
  31:main.c        **** {
 113              		.loc 1 31 0
 114              		.cfi_startproc
 115              		@ args = 0, pretend = 0, frame = 0
 116              		@ frame_needed = 0, uses_anonymous_args = 0
 117 0000 08B5     		push	{r3, lr}
 118              		.cfi_def_cfa_offset 8
 119              		.cfi_offset 3, -8
 120              		.cfi_offset 14, -4
  32:main.c        ****     lcd_Start();
 121              		.loc 1 32 0
 122 0002 FFF7FEFF 		bl	lcd_Start
 123              	.LVL11:
  33:main.c        ****     lcd_ClearDisplay();
 124              		.loc 1 33 0
 125 0006 0120     		movs	r0, #1
 126 0008 FFF7FEFF 		bl	lcd_WriteControl
 127              	.LVL12:
  34:main.c        ****     lcd_Position(0,0);
 128              		.loc 1 34 0
 129 000c 0021     		movs	r1, #0
 130 000e 0846     		mov	r0, r1
 131 0010 FFF7FEFF 		bl	lcd_Position
 132              	.LVL13:
  35:main.c        ****         
  36:main.c        ****     pwm1_Start();
 133              		.loc 1 36 0
 134 0014 FFF7FEFF 		bl	pwm1_Start
 135              	.LVL14:
ARM GAS  C:\Users\Jacob\AppData\Local\Temp\ccYfASjh.s 			page 4


  37:main.c        ****     float x = 0.0;//5:9
  38:main.c        ****     float y = 8.0;
  39:main.c        ****     
  40:main.c        ****     float a2 = 6.0, a4=5.25;
  41:main.c        ****     float r1 = sqrt(x*x+y*y); //eq 1
  42:main.c        ****     float phi1 = acos((a4*a4-a2*a2-r1*r1)/(-2.0*a2*r1)); //eq 2
  43:main.c        ****     float phi2 = atan(y/x); //eq 3
 136              		.loc 1 43 0
 137 0018 0021     		movs	r1, #0
 138 001a 4FF08240 		mov	r0, #1090519040
 139 001e FFF7FEFF 		bl	__aeabi_fdiv
 140              	.LVL15:
 141 0022 FFF7FEFF 		bl	__aeabi_f2d
 142              	.LVL16:
 143 0026 FFF7FEFF 		bl	atan
 144              	.LVL17:
 145 002a FFF7FEFF 		bl	__aeabi_d2f
 146              	.LVL18:
  44:main.c        ****     float T1 = phi2-phi1;
 147              		.loc 1 44 0
 148 002e 0E49     		ldr	r1, .L12
 149 0030 FFF7FEFF 		bl	__aeabi_fsub
 150              	.LVL19:
  45:main.c        ****     float phi3 = acos((r1*r1-a2*a2-a4*a4)/(-2.0*a2*a4)); //eq 5
  46:main.c        ****     float T2 = 3.14159-phi3;
  47:main.c        ****     //T1=1, T2=0;
  48:main.c        ****     
  49:main.c        ****     lcd_PrintNumber((int)(T1*100));
 151              		.loc 1 49 0
 152 0034 0D49     		ldr	r1, .L12+4
 153 0036 FFF7FEFF 		bl	__aeabi_fmul
 154              	.LVL20:
 155 003a FFF7FEFF 		bl	__aeabi_f2iz
 156              	.LVL21:
 157 003e 80B2     		uxth	r0, r0
 158 0040 FFF7FEFF 		bl	lcd_PrintU32Number
 159              	.LVL22:
 160              	.L10:
  50:main.c        **** 
  51:main.c        ****     /* Place your initialization/startup code here (e.g. MyInst_Start()) */
  52:main.c        **** 
  53:main.c        ****     for(;;)
  54:main.c        ****     {
  55:main.c        ****         pwm1_WriteCompare1(theta1(45)); //servo 1 full clockwise
 161              		.loc 1 55 0 discriminator 1
 162 0044 0A48     		ldr	r0, .L12+8
 163 0046 FFF7FEFF 		bl	theta1
 164              	.LVL23:
 165 004a 80B2     		uxth	r0, r0
 166 004c FFF7FEFF 		bl	pwm1_WriteCompare1
 167              	.LVL24:
  56:main.c        ****         pwm1_WriteCompare2(theta2(0)); //servo 2 full clockwise
 168              		.loc 1 56 0 discriminator 1
 169 0050 0020     		movs	r0, #0
 170 0052 FFF7FEFF 		bl	theta2
 171              	.LVL25:
 172 0056 80B2     		uxth	r0, r0
ARM GAS  C:\Users\Jacob\AppData\Local\Temp\ccYfASjh.s 			page 5


 173 0058 FFF7FEFF 		bl	pwm1_WriteCompare2
 174              	.LVL26:
  57:main.c        ****         CyDelay(2000);
 175              		.loc 1 57 0 discriminator 1
 176 005c 4FF4FA60 		mov	r0, #2000
 177 0060 FFF7FEFF 		bl	CyDelay
 178              	.LVL27:
 179 0064 EEE7     		b	.L10
 180              	.L13:
 181 0066 00BF     		.align	2
 182              	.L12:
 183 0068 CA3F373F 		.word	1060585418
 184 006c 0000C842 		.word	1120403456
 185 0070 00003442 		.word	1110704128
 186              		.cfi_endproc
 187              	.LFE65:
 188              		.size	main, .-main
 189              		.text
 190              	.Letext0:
 191              		.file 2 "c:\\program files (x86)\\cypress\\psoc creator\\4.1\\psoc creator\\import\\gnu\\arm\\5.4.
 192              		.file 3 "c:\\program files (x86)\\cypress\\psoc creator\\4.1\\psoc creator\\import\\gnu\\arm\\5.4.
 193              		.file 4 "Generated_Source\\PSoC5/cytypes.h"
 194              		.file 5 "Generated_Source\\PSoC5/lcd.h"
 195              		.file 6 "Generated_Source\\PSoC5/pwm1.h"
 196              		.file 7 "c:\\program files (x86)\\cypress\\psoc creator\\4.1\\psoc creator\\import\\gnu\\arm\\5.4.
 197              		.file 8 "Generated_Source\\PSoC5/CyLib.h"
 198              		.file 9 "Generated_Source\\PSoC5/core_cm3.h"