ARM GAS  C:\Users\Jacob\AppData\Local\Temp\ccJ1bqXG.s 			page 1


   1              		.syntax unified
   2              		.cpu cortex-m3
   3              		.fpu softvfp
   4              		.eabi_attribute 20, 1
   5              		.eabi_attribute 21, 1
   6              		.eabi_attribute 23, 3
   7              		.eabi_attribute 24, 1
   8              		.eabi_attribute 25, 1
   9              		.eabi_attribute 26, 1
  10              		.eabi_attribute 30, 1
  11              		.eabi_attribute 34, 1
  12              		.eabi_attribute 18, 4
  13              		.thumb
  14              		.syntax unified
  15              		.file	"main.c"
  16              		.text
  17              	.Ltext0:
  18              		.cfi_sections	.debug_frame
  19              		.global	__aeabi_f2d
  20              		.global	__aeabi_dmul
  21              		.global	__aeabi_ddiv
  22              		.global	__aeabi_d2f
  23              		.global	__aeabi_dsub
  24              		.global	__aeabi_dadd
  25              		.global	__aeabi_fadd
  26              		.global	__aeabi_fdiv
  27              		.global	__aeabi_dcmplt
  28              		.section	.text.main,"ax",%progbits
  29              		.align	2
  30              		.global	main
  31              		.thumb
  32              		.thumb_func
  33              		.type	main, %function
  34              	main:
  35              	.LFB63:
  36              		.file 1 "main.c"
   1:main.c        **** /* ========================================
   2:main.c        ****  *
   3:main.c        ****  * Copyright YOUR COMPANY, THE YEAR
   4:main.c        ****  * All Rights Reserved
   5:main.c        ****  * UNPUBLISHED, LICENSED SOFTWARE.
   6:main.c        ****  *
   7:main.c        ****  * CONFIDENTIAL AND PROPRIETARY INFORMATION
   8:main.c        ****  * WHICH IS THE PROPERTY OF your company.
   9:main.c        ****  *
  10:main.c        ****  * ========================================
  11:main.c        **** */
  12:main.c        **** //#include "project.h"
  13:main.c        **** #include <main.h>
  14:main.c        **** #include "math.h"
  15:main.c        ****     
  16:main.c        **** 
  17:main.c        **** int main(void)
  18:main.c        **** {
  37              		.loc 1 18 0
  38              		.cfi_startproc
  39              		@ args = 0, pretend = 0, frame = 64
ARM GAS  C:\Users\Jacob\AppData\Local\Temp\ccJ1bqXG.s 			page 2


  40              		@ frame_needed = 0, uses_anonymous_args = 0
  41 0000 2DE9F04F 		push	{r4, r5, r6, r7, r8, r9, r10, fp, lr}
  42              		.cfi_def_cfa_offset 36
  43              		.cfi_offset 4, -36
  44              		.cfi_offset 5, -32
  45              		.cfi_offset 6, -28
  46              		.cfi_offset 7, -24
  47              		.cfi_offset 8, -20
  48              		.cfi_offset 9, -16
  49              		.cfi_offset 10, -12
  50              		.cfi_offset 11, -8
  51              		.cfi_offset 14, -4
  52 0004 97B0     		sub	sp, sp, #92
  53              		.cfi_def_cfa_offset 128
  54              	.LVL0:
  19:main.c        ****     float a1 = 4.9, a2 = 6.0, a3 = 5.5, a4 = 7.2, a5 = 8.9;
  20:main.c        **** 
  21:main.c        ****     /* Place your initialization/startup code here (e.g. MyInst_Start()) */
  22:main.c        ****     initializeServos();
  55              		.loc 1 22 0
  56 0006 FFF7FEFF 		bl	initializeServos
  57              	.LVL1:
  23:main.c        ****     
  24:main.c        ****     BottomServo.omega = 0.0;//deg per s
  58              		.loc 1 24 0
  59 000a 164D     		ldr	r5, .L5
  60 000c 0027     		movs	r7, #0
  61 000e EF61     		str	r7, [r5, #28]	@ float
  25:main.c        ****     BottomServo.theta = 60.0;//60
  62              		.loc 1 25 0
  63 0010 154B     		ldr	r3, .L5+4
  64 0012 AB61     		str	r3, [r5, #24]	@ float
  26:main.c        ****     BottomServo.inc = BottomServo.omega/100.0;
  65              		.loc 1 26 0
  66 0014 2F62     		str	r7, [r5, #32]	@ float
  27:main.c        ****     
  28:main.c        ****     TopServo.omega = 0.0;
  67              		.loc 1 28 0
  68 0016 154C     		ldr	r4, .L5+8
  69 0018 E761     		str	r7, [r4, #28]	@ float
  29:main.c        ****     TopServo.theta = -80.0;//-80
  70              		.loc 1 29 0
  71 001a 154A     		ldr	r2, .L5+12
  72 001c A261     		str	r2, [r4, #24]	@ float
  30:main.c        ****     TopServo.inc = TopServo.omega/100.0;
  73              		.loc 1 30 0
  74 001e 2762     		str	r7, [r4, #32]	@ float
  31:main.c        ****     
  32:main.c        ****     moveServo(BottomServo, BottomServo.theta);
  75              		.loc 1 32 0
  76 0020 0593     		str	r3, [sp, #20]	@ float
  77 0022 6E46     		mov	r6, sp
  78 0024 05F1100E 		add	lr, r5, #16
  79 0028 BEE80F00 		ldmia	lr!, {r0, r1, r2, r3}
  80 002c 0FC6     		stmia	r6!, {r0, r1, r2, r3}
  81 002e 0023     		movs	r3, #0
  82 0030 3360     		str	r3, [r6]
ARM GAS  C:\Users\Jacob\AppData\Local\Temp\ccJ1bqXG.s 			page 3


  83 0032 95E80F00 		ldmia	r5, {r0, r1, r2, r3}
  84 0036 FFF7FEFF 		bl	moveServo
  85              	.LVL2:
  33:main.c        ****     moveServo(TopServo, TopServo.theta);
  86              		.loc 1 33 0
  87 003a A369     		ldr	r3, [r4, #24]	@ float
  88 003c 0593     		str	r3, [sp, #20]	@ float
  89 003e 6D46     		mov	r5, sp
  90 0040 04F11006 		add	r6, r4, #16
  91 0044 0FCE     		ldmia	r6!, {r0, r1, r2, r3}
  92 0046 0FC5     		stmia	r5!, {r0, r1, r2, r3}
  93 0048 3368     		ldr	r3, [r6]
  94 004a 2B60     		str	r3, [r5]
  95 004c 94E80F00 		ldmia	r4, {r0, r1, r2, r3}
  96 0050 FFF7FEFF 		bl	moveServo
  97              	.LVL3:
  34:main.c        ****     CyDelay(3000);
  98              		.loc 1 34 0
  99 0054 40F6B830 		movw	r0, #3000
 100 0058 FFF7FEFF 		bl	CyDelay
 101              	.LVL4:
  35:main.c        ****     
  36:main.c        ****     float jac1, jac2;
  37:main.c        ****     float x=0.0, y=0.0;
 102              		.loc 1 37 0
 103 005c 0697     		str	r7, [sp, #24]	@ float
 104 005e 1097     		str	r7, [sp, #64]	@ float
 105 0060 3E46     		mov	r6, r7
  38:main.c        ****     float xDot = -0.0, yDot = 1.0;
  39:main.c        ****     
  40:main.c        ****     while((pow(x,2) + pow(y,2)) < pow(a2+a4,2) - 1){
 106              		.loc 1 40 0
 107 0062 5AE1     		b	.L2
 108              	.L6:
 109              		.align	2
 110              	.L5:
 111 0064 00000000 		.word	BottomServo
 112 0068 00007042 		.word	1114636288
 113 006c 00000000 		.word	TopServo
 114 0070 0000A0C2 		.word	-1029701632
 115              	.LVL5:
 116              	.L3:
 117              	.LBB2:
  41:main.c        ****                
  42:main.c        ****         float q1 = BottomServo.theta*3.14159/180.0;
 118              		.loc 1 42 0
 119 0074 C44D     		ldr	r5, .L7+32
 120 0076 D5F818B0 		ldr	fp, [r5, #24]	@ float
 121 007a 5846     		mov	r0, fp
 122 007c FFF7FEFF 		bl	__aeabi_f2d
 123              	.LVL6:
 124 0080 B9A3     		adr	r3, .L7
 125 0082 D3E90023 		ldrd	r2, [r3]
 126 0086 FFF7FEFF 		bl	__aeabi_dmul
 127              	.LVL7:
 128 008a 0022     		movs	r2, #0
 129 008c BF4B     		ldr	r3, .L7+36
ARM GAS  C:\Users\Jacob\AppData\Local\Temp\ccJ1bqXG.s 			page 4


 130 008e FFF7FEFF 		bl	__aeabi_ddiv
 131              	.LVL8:
 132 0092 FFF7FEFF 		bl	__aeabi_d2f
 133              	.LVL9:
 134 0096 0A90     		str	r0, [sp, #40]	@ float
 135              	.LVL10:
  43:main.c        ****         float q2 = TopServo.theta*3.14159/180.0;
 136              		.loc 1 43 0
 137 0098 BD4C     		ldr	r4, .L7+40
 138 009a D4F818A0 		ldr	r10, [r4, #24]	@ float
 139 009e 5046     		mov	r0, r10
 140              	.LVL11:
 141 00a0 FFF7FEFF 		bl	__aeabi_f2d
 142              	.LVL12:
 143 00a4 B0A3     		adr	r3, .L7
 144 00a6 D3E90023 		ldrd	r2, [r3]
 145 00aa FFF7FEFF 		bl	__aeabi_dmul
 146              	.LVL13:
 147 00ae 0022     		movs	r2, #0
 148 00b0 B64B     		ldr	r3, .L7+36
 149 00b2 FFF7FEFF 		bl	__aeabi_ddiv
 150              	.LVL14:
 151 00b6 FFF7FEFF 		bl	__aeabi_d2f
 152              	.LVL15:
 153 00ba 0C90     		str	r0, [sp, #48]	@ float
 154              	.LVL16:
  44:main.c        ****         
  45:main.c        ****         x = a2*cos(q1) - a4*sin(q1)*sin(q2) + a4*cos(q1)*cos(q2);
 155              		.loc 1 45 0
 156 00bc 0A98     		ldr	r0, [sp, #40]	@ float
 157              	.LVL17:
 158 00be FFF7FEFF 		bl	__aeabi_f2d
 159              	.LVL18:
 160 00c2 8046     		mov	r8, r0
 161 00c4 8946     		mov	r9, r1
 162 00c6 FFF7FEFF 		bl	cos
 163              	.LVL19:
 164 00ca CDE90801 		strd	r0, [sp, #32]
 165 00ce 0022     		movs	r2, #0
 166 00d0 B04B     		ldr	r3, .L7+44
 167 00d2 FFF7FEFF 		bl	__aeabi_dmul
 168              	.LVL20:
 169 00d6 0646     		mov	r6, r0
 170              	.LVL21:
 171 00d8 0F46     		mov	r7, r1
 172 00da 4046     		mov	r0, r8
 173 00dc 4946     		mov	r1, r9
 174 00de FFF7FEFF 		bl	sin
 175              	.LVL22:
 176 00e2 CDE90E01 		strd	r0, [sp, #56]
 177 00e6 A2A3     		adr	r3, .L7+8
 178 00e8 D3E90023 		ldrd	r2, [r3]
 179 00ec FFF7FEFF 		bl	__aeabi_dmul
 180              	.LVL23:
 181 00f0 8046     		mov	r8, r0
 182 00f2 8946     		mov	r9, r1
 183 00f4 0C98     		ldr	r0, [sp, #48]	@ float
ARM GAS  C:\Users\Jacob\AppData\Local\Temp\ccJ1bqXG.s 			page 5


 184 00f6 FFF7FEFF 		bl	__aeabi_f2d
 185              	.LVL24:
 186 00fa CDE91001 		strd	r0, [sp, #64]
 187              	.LVL25:
 188 00fe FFF7FEFF 		bl	sin
 189              	.LVL26:
 190 0102 CDE90601 		strd	r0, [sp, #24]
 191 0106 0246     		mov	r2, r0
 192 0108 0B46     		mov	r3, r1
 193 010a 4046     		mov	r0, r8
 194 010c 4946     		mov	r1, r9
 195 010e FFF7FEFF 		bl	__aeabi_dmul
 196              	.LVL27:
 197 0112 0246     		mov	r2, r0
 198 0114 0B46     		mov	r3, r1
 199 0116 3046     		mov	r0, r6
 200 0118 3946     		mov	r1, r7
 201 011a FFF7FEFF 		bl	__aeabi_dsub
 202              	.LVL28:
 203 011e CDE91201 		strd	r0, [sp, #72]
 204 0122 93A3     		adr	r3, .L7+8
 205 0124 D3E90023 		ldrd	r2, [r3]
 206 0128 DDE90801 		ldrd	r0, [sp, #32]
 207 012c FFF7FEFF 		bl	__aeabi_dmul
 208              	.LVL29:
 209 0130 CDE91401 		strd	r0, [sp, #80]
 210 0134 DDE91001 		ldrd	r0, [sp, #64]
 211 0138 FFF7FEFF 		bl	cos
 212              	.LVL30:
 213 013c 0646     		mov	r6, r0
 214 013e 0F46     		mov	r7, r1
 215 0140 0246     		mov	r2, r0
 216 0142 0B46     		mov	r3, r1
 217 0144 DDE91401 		ldrd	r0, [sp, #80]
 218 0148 FFF7FEFF 		bl	__aeabi_dmul
 219              	.LVL31:
 220 014c 0246     		mov	r2, r0
 221 014e 0B46     		mov	r3, r1
 222 0150 DDE91201 		ldrd	r0, [sp, #72]
 223 0154 FFF7FEFF 		bl	__aeabi_dadd
 224              	.LVL32:
 225 0158 FFF7FEFF 		bl	__aeabi_d2f
 226              	.LVL33:
 227 015c 1090     		str	r0, [sp, #64]	@ float
 228              	.LVL34:
  46:main.c        ****         y = a2*sin(q1) + a4*sin(q1)*cos(q2) + a4*sin(q2)*cos(q1);
 229              		.loc 1 46 0
 230 015e 0022     		movs	r2, #0
 231 0160 8C4B     		ldr	r3, .L7+44
 232 0162 DDE90E01 		ldrd	r0, [sp, #56]
 233              	.LVL35:
 234 0166 FFF7FEFF 		bl	__aeabi_dmul
 235              	.LVL36:
 236 016a CDE90E01 		strd	r0, [sp, #56]
 237 016e 3246     		mov	r2, r6
 238 0170 3B46     		mov	r3, r7
 239 0172 4046     		mov	r0, r8
ARM GAS  C:\Users\Jacob\AppData\Local\Temp\ccJ1bqXG.s 			page 6


 240 0174 4946     		mov	r1, r9
 241 0176 FFF7FEFF 		bl	__aeabi_dmul
 242              	.LVL37:
 243 017a 0246     		mov	r2, r0
 244 017c 0B46     		mov	r3, r1
 245 017e DDE90E01 		ldrd	r0, [sp, #56]
 246 0182 FFF7FEFF 		bl	__aeabi_dadd
 247              	.LVL38:
 248 0186 0646     		mov	r6, r0
 249 0188 0F46     		mov	r7, r1
 250 018a 79A3     		adr	r3, .L7+8
 251 018c D3E90023 		ldrd	r2, [r3]
 252 0190 DDE90601 		ldrd	r0, [sp, #24]
 253 0194 FFF7FEFF 		bl	__aeabi_dmul
 254              	.LVL39:
 255 0198 0246     		mov	r2, r0
 256 019a 0B46     		mov	r3, r1
 257 019c DDE90801 		ldrd	r0, [sp, #32]
 258 01a0 FFF7FEFF 		bl	__aeabi_dmul
 259              	.LVL40:
 260 01a4 0246     		mov	r2, r0
 261 01a6 0B46     		mov	r3, r1
 262 01a8 3046     		mov	r0, r6
 263 01aa 3946     		mov	r1, r7
 264 01ac FFF7FEFF 		bl	__aeabi_dadd
 265              	.LVL41:
 266 01b0 FFF7FEFF 		bl	__aeabi_d2f
 267              	.LVL42:
 268 01b4 0646     		mov	r6, r0
 269              	.LVL43:
  47:main.c        ****         
  48:main.c        ****         jac1 = 1.0*(xDot*cos(q1 + q2) + yDot*sin(q1 + q2))/(a2*sin(q2));
 270              		.loc 1 48 0
 271 01b6 0C99     		ldr	r1, [sp, #48]	@ float
 272 01b8 0A98     		ldr	r0, [sp, #40]	@ float
 273              	.LVL44:
 274 01ba FFF7FEFF 		bl	__aeabi_fadd
 275              	.LVL45:
 276 01be FFF7FEFF 		bl	__aeabi_f2d
 277              	.LVL46:
 278 01c2 8046     		mov	r8, r0
 279 01c4 8946     		mov	r9, r1
 280 01c6 FFF7FEFF 		bl	cos
 281              	.LVL47:
 282 01ca 0022     		movs	r2, #0
 283 01cc 4FF00043 		mov	r3, #-2147483648
 284 01d0 FFF7FEFF 		bl	__aeabi_dmul
 285              	.LVL48:
 286 01d4 CDE90C01 		strd	r0, [sp, #48]
 287              	.LVL49:
 288 01d8 4046     		mov	r0, r8
 289 01da 4946     		mov	r1, r9
 290 01dc FFF7FEFF 		bl	sin
 291              	.LVL50:
 292 01e0 CDE90A01 		strd	r0, [sp, #40]
 293              	.LVL51:
 294 01e4 0246     		mov	r2, r0
ARM GAS  C:\Users\Jacob\AppData\Local\Temp\ccJ1bqXG.s 			page 7


 295 01e6 0B46     		mov	r3, r1
 296 01e8 DDE90C01 		ldrd	r0, [sp, #48]
 297 01ec FFF7FEFF 		bl	__aeabi_dadd
 298              	.LVL52:
 299 01f0 8046     		mov	r8, r0
 300 01f2 8946     		mov	r9, r1
 301 01f4 0022     		movs	r2, #0
 302 01f6 674B     		ldr	r3, .L7+44
 303 01f8 DDE90601 		ldrd	r0, [sp, #24]
 304 01fc FFF7FEFF 		bl	__aeabi_dmul
 305              	.LVL53:
 306 0200 0246     		mov	r2, r0
 307 0202 0B46     		mov	r3, r1
 308 0204 4046     		mov	r0, r8
 309 0206 4946     		mov	r1, r9
 310 0208 FFF7FEFF 		bl	__aeabi_ddiv
 311              	.LVL54:
 312 020c FFF7FEFF 		bl	__aeabi_d2f
 313              	.LVL55:
 314 0210 0746     		mov	r7, r0
 315              	.LVL56:
  49:main.c        ****         jac2  = -(1.0*a2*xDot*cos(q1) + 1.0*a2*yDot*sin(q1) + 1.0*a4*xDot*cos(q1 + q2) + 1.0*a4*yDo
 316              		.loc 1 49 0
 317 0212 0022     		movs	r2, #0
 318 0214 4FF00043 		mov	r3, #-2147483648
 319 0218 DDE90801 		ldrd	r0, [sp, #32]
 320              	.LVL57:
 321 021c FFF7FEFF 		bl	__aeabi_dmul
 322              	.LVL58:
 323 0220 0246     		mov	r2, r0
 324 0222 0B46     		mov	r3, r1
 325 0224 DDE90E01 		ldrd	r0, [sp, #56]
 326 0228 FFF7FEFF 		bl	__aeabi_dadd
 327              	.LVL59:
 328 022c 0246     		mov	r2, r0
 329 022e 0B46     		mov	r3, r1
 330 0230 DDE90C01 		ldrd	r0, [sp, #48]
 331 0234 FFF7FEFF 		bl	__aeabi_dadd
 332              	.LVL60:
 333 0238 8046     		mov	r8, r0
 334 023a 8946     		mov	r9, r1
 335 023c 4CA3     		adr	r3, .L7+8
 336 023e D3E90023 		ldrd	r2, [r3]
 337 0242 DDE90A01 		ldrd	r0, [sp, #40]
 338 0246 FFF7FEFF 		bl	__aeabi_dmul
 339              	.LVL61:
 340 024a 0246     		mov	r2, r0
 341 024c 0B46     		mov	r3, r1
 342 024e 4046     		mov	r0, r8
 343 0250 4946     		mov	r1, r9
 344 0252 FFF7FEFF 		bl	__aeabi_dadd
 345              	.LVL62:
 346 0256 8146     		mov	r9, r0
 347 0258 01F10048 		add	r8, r1, #-2147483648
 348 025c 46A3     		adr	r3, .L7+16
 349 025e D3E90023 		ldrd	r2, [r3]
 350 0262 DDE90601 		ldrd	r0, [sp, #24]
ARM GAS  C:\Users\Jacob\AppData\Local\Temp\ccJ1bqXG.s 			page 8


 351 0266 FFF7FEFF 		bl	__aeabi_dmul
 352              	.LVL63:
 353 026a 0246     		mov	r2, r0
 354 026c 0B46     		mov	r3, r1
 355 026e 4846     		mov	r0, r9
 356 0270 4146     		mov	r1, r8
 357 0272 FFF7FEFF 		bl	__aeabi_ddiv
 358              	.LVL64:
 359 0276 FFF7FEFF 		bl	__aeabi_d2f
 360              	.LVL65:
 361 027a 8046     		mov	r8, r0
 362              	.LVL66:
  50:main.c        ****     
  51:main.c        ****         BottomServo.omega = jac1*180.0/3.14159;//deg per s
 363              		.loc 1 51 0
 364 027c 3846     		mov	r0, r7
 365              	.LVL67:
 366 027e FFF7FEFF 		bl	__aeabi_f2d
 367              	.LVL68:
 368 0282 0022     		movs	r2, #0
 369 0284 414B     		ldr	r3, .L7+36
 370 0286 FFF7FEFF 		bl	__aeabi_dmul
 371              	.LVL69:
 372 028a 37A3     		adr	r3, .L7
 373 028c D3E90023 		ldrd	r2, [r3]
 374 0290 FFF7FEFF 		bl	__aeabi_ddiv
 375              	.LVL70:
 376 0294 FFF7FEFF 		bl	__aeabi_d2f
 377              	.LVL71:
 378 0298 E861     		str	r0, [r5, #28]	@ float
  52:main.c        ****         BottomServo.inc = BottomServo.omega/100.0;
 379              		.loc 1 52 0
 380 029a 3F49     		ldr	r1, .L7+48
 381 029c FFF7FEFF 		bl	__aeabi_fdiv
 382              	.LVL72:
 383 02a0 0146     		mov	r1, r0
 384 02a2 2862     		str	r0, [r5, #32]	@ float
  53:main.c        ****         BottomServo.theta += BottomServo.inc;
 385              		.loc 1 53 0
 386 02a4 5846     		mov	r0, fp
 387 02a6 FFF7FEFF 		bl	__aeabi_fadd
 388              	.LVL73:
 389 02aa 0746     		mov	r7, r0
 390              	.LVL74:
 391 02ac A861     		str	r0, [r5, #24]	@ float
  54:main.c        ****         
  55:main.c        ****         TopServo.omega = jac2*180.0/3.14159;//deg per s
 392              		.loc 1 55 0
 393 02ae 4046     		mov	r0, r8
 394 02b0 FFF7FEFF 		bl	__aeabi_f2d
 395              	.LVL75:
 396 02b4 0022     		movs	r2, #0
 397 02b6 354B     		ldr	r3, .L7+36
 398 02b8 FFF7FEFF 		bl	__aeabi_dmul
 399              	.LVL76:
 400 02bc 2AA3     		adr	r3, .L7
 401 02be D3E90023 		ldrd	r2, [r3]
ARM GAS  C:\Users\Jacob\AppData\Local\Temp\ccJ1bqXG.s 			page 9


 402 02c2 FFF7FEFF 		bl	__aeabi_ddiv
 403              	.LVL77:
 404 02c6 FFF7FEFF 		bl	__aeabi_d2f
 405              	.LVL78:
 406 02ca E061     		str	r0, [r4, #28]	@ float
  56:main.c        ****         TopServo.inc = TopServo.omega/100.0;
 407              		.loc 1 56 0
 408 02cc 3249     		ldr	r1, .L7+48
 409 02ce FFF7FEFF 		bl	__aeabi_fdiv
 410              	.LVL79:
 411 02d2 0146     		mov	r1, r0
 412 02d4 2062     		str	r0, [r4, #32]	@ float
  57:main.c        ****         TopServo.theta += TopServo.inc;
 413              		.loc 1 57 0
 414 02d6 5046     		mov	r0, r10
 415 02d8 FFF7FEFF 		bl	__aeabi_fadd
 416              	.LVL80:
 417 02dc A061     		str	r0, [r4, #24]	@ float
  58:main.c        ****         
  59:main.c        ****         moveServo(BottomServo, BottomServo.theta);
 418              		.loc 1 59 0
 419 02de 0597     		str	r7, [sp, #20]	@ float
 420 02e0 6F46     		mov	r7, sp
 421 02e2 05F1100E 		add	lr, r5, #16
 422 02e6 BEE80F00 		ldmia	lr!, {r0, r1, r2, r3}
 423 02ea 0FC7     		stmia	r7!, {r0, r1, r2, r3}
 424 02ec DEF80030 		ldr	r3, [lr]
 425 02f0 3B60     		str	r3, [r7]
 426 02f2 95E80F00 		ldmia	r5, {r0, r1, r2, r3}
 427 02f6 FFF7FEFF 		bl	moveServo
 428              	.LVL81:
  60:main.c        ****         moveServo(TopServo, TopServo.theta);
 429              		.loc 1 60 0
 430 02fa A369     		ldr	r3, [r4, #24]	@ float
 431 02fc 0593     		str	r3, [sp, #20]	@ float
 432 02fe 6D46     		mov	r5, sp
 433 0300 04F11007 		add	r7, r4, #16
 434 0304 0FCF     		ldmia	r7!, {r0, r1, r2, r3}
 435 0306 0FC5     		stmia	r5!, {r0, r1, r2, r3}
 436 0308 3B68     		ldr	r3, [r7]
 437 030a 2B60     		str	r3, [r5]
 438 030c 94E80F00 		ldmia	r4, {r0, r1, r2, r3}
 439 0310 FFF7FEFF 		bl	moveServo
 440              	.LVL82:
  61:main.c        ****              
  62:main.c        ****         CyDelay(10);
 441              		.loc 1 62 0
 442 0314 0A20     		movs	r0, #10
 443 0316 FFF7FEFF 		bl	CyDelay
 444              	.LVL83:
 445              	.L2:
 446              	.LBE2:
  40:main.c        ****                
 447              		.loc 1 40 0
 448 031a 0024     		movs	r4, #0
 449 031c 4FF08045 		mov	r5, #1073741824
 450 0320 1098     		ldr	r0, [sp, #64]	@ float
ARM GAS  C:\Users\Jacob\AppData\Local\Temp\ccJ1bqXG.s 			page 10


 451 0322 FFF7FEFF 		bl	__aeabi_f2d
 452              	.LVL84:
 453 0326 2246     		mov	r2, r4
 454 0328 2B46     		mov	r3, r5
 455 032a FFF7FEFF 		bl	pow
 456              	.LVL85:
 457 032e 8046     		mov	r8, r0
 458 0330 8946     		mov	r9, r1
 459 0332 3046     		mov	r0, r6
 460 0334 FFF7FEFF 		bl	__aeabi_f2d
 461              	.LVL86:
 462 0338 2246     		mov	r2, r4
 463 033a 2B46     		mov	r3, r5
 464 033c FFF7FEFF 		bl	pow
 465              	.LVL87:
 466 0340 0246     		mov	r2, r0
 467 0342 0B46     		mov	r3, r1
 468 0344 4046     		mov	r0, r8
 469 0346 4946     		mov	r1, r9
 470 0348 FFF7FEFF 		bl	__aeabi_dadd
 471              	.LVL88:
 472 034c 0CA3     		adr	r3, .L7+24
 473 034e D3E90023 		ldrd	r2, [r3]
 474 0352 FFF7FEFF 		bl	__aeabi_dcmplt
 475              	.LVL89:
 476 0356 0028     		cmp	r0, #0
 477 0358 7FF48CAE 		bne	.L3
  63:main.c        ****     }
  64:main.c        ****     //moveServo(TopServo, TopServo.theta);
  65:main.c        ****     //moveServo(BottomServo, BottomServo.theta);
  66:main.c        ****     
  67:main.c        ****     
  68:main.c        **** }
 478              		.loc 1 68 0
 479 035c 17B0     		add	sp, sp, #92
 480              		.cfi_def_cfa_offset 36
 481              		@ sp needed
 482 035e BDE8F08F 		pop	{r4, r5, r6, r7, r8, r9, r10, fp, pc}
 483              	.LVL90:
 484              	.L8:
 485 0362 00BFAFF3 		.align	3
 485      0080
 486              	.L7:
 487 0368 6E861BF0 		.word	-266631570
 488 036c F9210940 		.word	1074340345
 489 0370 000000C0 		.word	-1073741824
 490 0374 CCCC1C40 		.word	1075629260
 491 0378 00000080 		.word	-2147483648
 492 037c 99994540 		.word	1078303129
 493 0380 2085EB09 		.word	166429984
 494 0384 AEA76540 		.word	1080403886
 495 0388 00000000 		.word	BottomServo
 496 038c 00806640 		.word	1080459264
 497 0390 00000000 		.word	TopServo
 498 0394 00001840 		.word	1075314688
 499 0398 0000C842 		.word	1120403456
 500              		.cfi_endproc
ARM GAS  C:\Users\Jacob\AppData\Local\Temp\ccJ1bqXG.s 			page 11


 501              	.LFE63:
 502              		.size	main, .-main
 503              		.comm	TopServo,36,4
 504              		.comm	BottomServo,36,4
 505              		.comm	a,4,4
 506              		.text
 507              	.Letext0:
 508              		.file 2 "c:\\program files (x86)\\cypress\\psoc creator\\4.1\\psoc creator\\import\\gnu\\arm\\5.4.
 509              		.file 3 "c:\\program files (x86)\\cypress\\psoc creator\\4.1\\psoc creator\\import\\gnu\\arm\\5.4.
 510              		.file 4 "./main.h"
 511              		.file 5 "Generated_Source\\PSoC5/core_cm3.h"
 512              		.file 6 "c:\\program files (x86)\\cypress\\psoc creator\\4.1\\psoc creator\\import\\gnu\\arm\\5.4.
 513              		.file 7 "Generated_Source\\PSoC5/CyLib.h"