ARM GAS  C:\Users\Jacob\AppData\Local\Temp\ccIFqiNg.s 			page 1


   1              		.syntax unified
   2              		.cpu cortex-m3
   3              		.fpu softvfp
   4              		.eabi_attribute 20, 1
   5              		.eabi_attribute 21, 1
   6              		.eabi_attribute 23, 3
   7              		.eabi_attribute 24, 1
   8              		.eabi_attribute 25, 1
   9              		.eabi_attribute 26, 1
  10              		.eabi_attribute 30, 1
  11              		.eabi_attribute 34, 1
  12              		.eabi_attribute 18, 4
  13              		.thumb
  14              		.syntax unified
  15              		.file	"servocommands.c"
  16              		.text
  17              	.Ltext0:
  18              		.cfi_sections	.debug_frame
  19              		.section	.text.hi,"ax",%progbits
  20              		.align	2
  21              		.global	hi
  22              		.thumb
  23              		.thumb_func
  24              		.type	hi, %function
  25              	hi:
  26              	.LFB63:
  27              		.file 1 "servocommands.c"
   1:servocommands.c **** /* ========================================
   2:servocommands.c ****  *
   3:servocommands.c ****  * Copyright YOUR COMPANY, THE YEAR
   4:servocommands.c ****  * All Rights Reserved
   5:servocommands.c ****  * UNPUBLISHED, LICENSED SOFTWARE.
   6:servocommands.c ****  *
   7:servocommands.c ****  * CONFIDENTIAL AND PROPRIETARY INFORMATION
   8:servocommands.c ****  * WHICH IS THE PROPERTY OF your company.
   9:servocommands.c ****  *
  10:servocommands.c ****  * ========================================
  11:servocommands.c **** */
  12:servocommands.c **** /* ========================================
  13:servocommands.c ****  *
  14:servocommands.c ****  * Copyright YOUR COMPANY, THE YEAR
  15:servocommands.c ****  * All Rights Reserved
  16:servocommands.c ****  * UNPUBLISHED, LICENSED SOFTWARE.
  17:servocommands.c ****  *
  18:servocommands.c ****  * CONFIDENTIAL AND PROPRIETARY INFORMATION
  19:servocommands.c ****  * WHICH IS THE PROPERTY OF your company.
  20:servocommands.c ****  *
  21:servocommands.c ****  * ========================================
  22:servocommands.c **** */
  23:servocommands.c **** #include <main.h>
  24:servocommands.c **** 
  25:servocommands.c **** void hi(){
  28              		.loc 1 25 0
  29              		.cfi_startproc
  30              		@ args = 0, pretend = 0, frame = 0
  31              		@ frame_needed = 0, uses_anonymous_args = 0
  32              		@ link register save eliminated.
ARM GAS  C:\Users\Jacob\AppData\Local\Temp\ccIFqiNg.s 			page 2


  26:servocommands.c ****     a=2;
  33              		.loc 1 26 0
  34 0000 0222     		movs	r2, #2
  35 0002 014B     		ldr	r3, .L2
  36 0004 1A60     		str	r2, [r3]
  37 0006 7047     		bx	lr
  38              	.L3:
  39              		.align	2
  40              	.L2:
  41 0008 00000000 		.word	a
  42              		.cfi_endproc
  43              	.LFE63:
  44              		.size	hi, .-hi
  45              		.section	.text.initializeServos,"ax",%progbits
  46              		.align	2
  47              		.global	initializeServos
  48              		.thumb
  49              		.thumb_func
  50              		.type	initializeServos, %function
  51              	initializeServos:
  52              	.LFB64:
  27:servocommands.c **** }
  28:servocommands.c **** void initializeServos(){
  53              		.loc 1 28 0
  54              		.cfi_startproc
  55              		@ args = 0, pretend = 0, frame = 0
  56              		@ frame_needed = 0, uses_anonymous_args = 0
  57 0000 08B5     		push	{r3, lr}
  58              		.cfi_def_cfa_offset 8
  59              		.cfi_offset 3, -8
  60              		.cfi_offset 14, -4
  29:servocommands.c ****     
  30:servocommands.c ****     Servos_Start();
  61              		.loc 1 30 0
  62 0002 FFF7FEFF 		bl	Servos_Start
  63              	.LVL0:
  31:servocommands.c ****     
  32:servocommands.c ****     BottomServo.minComp = 1600;
  64              		.loc 1 32 0
  65 0006 0D4B     		ldr	r3, .L6
  66 0008 4FF4C862 		mov	r2, #1600
  67 000c 5A60     		str	r2, [r3, #4]
  33:servocommands.c ****     BottomServo.maxComp = 6450;
  68              		.loc 1 33 0
  69 000e 41F63212 		movw	r2, #6450
  70 0012 1A60     		str	r2, [r3]
  34:servocommands.c ****     BottomServo.minAngle = 0.0;
  71              		.loc 1 34 0
  72 0014 0022     		movs	r2, #0
  73 0016 DA60     		str	r2, [r3, #12]	@ float
  35:servocommands.c ****     BottomServo.maxAngle = 180.0;
  74              		.loc 1 35 0
  75 0018 094A     		ldr	r2, .L6+4
  76 001a 9A60     		str	r2, [r3, #8]	@ float
  36:servocommands.c ****     BottomServo.write = Servos_WriteCompare1;
  77              		.loc 1 36 0
  78 001c 094A     		ldr	r2, .L6+8
ARM GAS  C:\Users\Jacob\AppData\Local\Temp\ccIFqiNg.s 			page 3


  79 001e 5A61     		str	r2, [r3, #20]
  37:servocommands.c ****     
  38:servocommands.c ****     TopServo.minComp = 2050;
  80              		.loc 1 38 0
  81 0020 094B     		ldr	r3, .L6+12
  82 0022 40F60202 		movw	r2, #2050
  83 0026 5A60     		str	r2, [r3, #4]
  39:servocommands.c ****     TopServo.maxComp = 6750;
  84              		.loc 1 39 0
  85 0028 41F65E22 		movw	r2, #6750
  86 002c 1A60     		str	r2, [r3]
  40:servocommands.c ****     TopServo.minAngle = -90.0;
  87              		.loc 1 40 0
  88 002e 074A     		ldr	r2, .L6+16
  89 0030 DA60     		str	r2, [r3, #12]	@ float
  41:servocommands.c ****     TopServo.maxAngle = 90.0;
  90              		.loc 1 41 0
  91 0032 074A     		ldr	r2, .L6+20
  92 0034 9A60     		str	r2, [r3, #8]	@ float
  42:servocommands.c ****     TopServo.write = Servos_WriteCompare2;
  93              		.loc 1 42 0
  94 0036 074A     		ldr	r2, .L6+24
  95 0038 5A61     		str	r2, [r3, #20]
  96 003a 08BD     		pop	{r3, pc}
  97              	.L7:
  98              		.align	2
  99              	.L6:
 100 003c 00000000 		.word	BottomServo
 101 0040 00003443 		.word	1127481344
 102 0044 00000000 		.word	Servos_WriteCompare1
 103 0048 00000000 		.word	TopServo
 104 004c 0000B4C2 		.word	-1028390912
 105 0050 0000B442 		.word	1119092736
 106 0054 00000000 		.word	Servos_WriteCompare2
 107              		.cfi_endproc
 108              	.LFE64:
 109              		.size	initializeServos, .-initializeServos
 110              		.global	__aeabi_fsub
 111              		.global	__aeabi_i2f
 112              		.global	__aeabi_fdiv
 113              		.global	__aeabi_fmul
 114              		.global	__aeabi_fadd
 115              		.global	__aeabi_f2iz
 116              		.section	.text.getCompare,"ax",%progbits
 117              		.align	2
 118              		.global	getCompare
 119              		.thumb
 120              		.thumb_func
 121              		.type	getCompare, %function
 122              	getCompare:
 123              	.LFB65:
  43:servocommands.c **** }
  44:servocommands.c **** 
  45:servocommands.c **** int getCompare(struct Servo s, float angle){
 124              		.loc 1 45 0
 125              		.cfi_startproc
 126              		@ args = 40, pretend = 16, frame = 0
ARM GAS  C:\Users\Jacob\AppData\Local\Temp\ccIFqiNg.s 			page 4


 127              		@ frame_needed = 0, uses_anonymous_args = 0
 128              	.LVL1:
 129 0000 84B0     		sub	sp, sp, #16
 130              		.cfi_def_cfa_offset 16
 131 0002 F8B5     		push	{r3, r4, r5, r6, r7, lr}
 132              		.cfi_def_cfa_offset 40
 133              		.cfi_offset 3, -40
 134              		.cfi_offset 4, -36
 135              		.cfi_offset 5, -32
 136              		.cfi_offset 6, -28
 137              		.cfi_offset 7, -24
 138              		.cfi_offset 14, -20
 139 0004 06AC     		add	r4, sp, #24
 140 0006 84E80F00 		stmia	r4, {r0, r1, r2, r3}
  46:servocommands.c ****     s.compare = (s.maxComp-s.minComp)/(s.maxAngle-s.minAngle)*(angle-s.minAngle) + s.minComp;
 141              		.loc 1 46 0
 142 000a 079C     		ldr	r4, [sp, #28]
 143 000c 071B     		subs	r7, r0, r4
 144 000e 099D     		ldr	r5, [sp, #36]	@ float
 145 0010 2946     		mov	r1, r5
 146 0012 0898     		ldr	r0, [sp, #32]	@ float
 147 0014 FFF7FEFF 		bl	__aeabi_fsub
 148              	.LVL2:
 149 0018 0646     		mov	r6, r0
 150 001a 3846     		mov	r0, r7
 151 001c FFF7FEFF 		bl	__aeabi_i2f
 152              	.LVL3:
 153 0020 3146     		mov	r1, r6
 154 0022 FFF7FEFF 		bl	__aeabi_fdiv
 155              	.LVL4:
 156 0026 0646     		mov	r6, r0
 157 0028 2946     		mov	r1, r5
 158 002a 0F98     		ldr	r0, [sp, #60]	@ float
 159 002c FFF7FEFF 		bl	__aeabi_fsub
 160              	.LVL5:
 161 0030 0146     		mov	r1, r0
 162 0032 3046     		mov	r0, r6
 163 0034 FFF7FEFF 		bl	__aeabi_fmul
 164              	.LVL6:
 165 0038 0546     		mov	r5, r0
 166 003a 2046     		mov	r0, r4
 167 003c FFF7FEFF 		bl	__aeabi_i2f
 168              	.LVL7:
 169 0040 2946     		mov	r1, r5
 170 0042 FFF7FEFF 		bl	__aeabi_fadd
 171              	.LVL8:
 172 0046 FFF7FEFF 		bl	__aeabi_f2iz
 173              	.LVL9:
  47:servocommands.c ****     return s.compare;
  48:servocommands.c **** }
 174              		.loc 1 48 0
 175 004a BDE8F840 		pop	{r3, r4, r5, r6, r7, lr}
 176              		.cfi_restore 14
 177              		.cfi_restore 7
 178              		.cfi_restore 6
 179              		.cfi_restore 5
 180              		.cfi_restore 4
ARM GAS  C:\Users\Jacob\AppData\Local\Temp\ccIFqiNg.s 			page 5


 181              		.cfi_restore 3
 182              		.cfi_def_cfa_offset 16
 183 004e 04B0     		add	sp, sp, #16
 184              		.cfi_def_cfa_offset 0
 185 0050 7047     		bx	lr
 186              		.cfi_endproc
 187              	.LFE65:
 188              		.size	getCompare, .-getCompare
 189 0052 00BF     		.section	.text.moveServo,"ax",%progbits
 190              		.align	2
 191              		.global	moveServo
 192              		.thumb
 193              		.thumb_func
 194              		.type	moveServo, %function
 195              	moveServo:
 196              	.LFB66:
  49:servocommands.c **** 
  50:servocommands.c **** void moveServo(struct Servo s, float angle){
 197              		.loc 1 50 0
 198              		.cfi_startproc
 199              		@ args = 40, pretend = 16, frame = 0
 200              		@ frame_needed = 0, uses_anonymous_args = 0
 201              	.LVL10:
 202 0000 84B0     		sub	sp, sp, #16
 203              		.cfi_def_cfa_offset 16
 204 0002 30B5     		push	{r4, r5, lr}
 205              		.cfi_def_cfa_offset 28
 206              		.cfi_offset 4, -28
 207              		.cfi_offset 5, -24
 208              		.cfi_offset 14, -20
 209 0004 87B0     		sub	sp, sp, #28
 210              		.cfi_def_cfa_offset 56
 211 0006 0AAC     		add	r4, sp, #40
 212 0008 84E80F00 		stmia	r4, {r0, r1, r2, r3}
  51:servocommands.c ****     s.compare = getCompare(s,angle);
 213              		.loc 1 51 0
 214 000c 139B     		ldr	r3, [sp, #76]	@ float
 215 000e 0593     		str	r3, [sp, #20]	@ float
 216 0010 6C46     		mov	r4, sp
 217 0012 0EAD     		add	r5, sp, #56
 218 0014 0FCD     		ldmia	r5!, {r0, r1, r2, r3}
 219 0016 0FC4     		stmia	r4!, {r0, r1, r2, r3}
 220 0018 2B68     		ldr	r3, [r5]
 221 001a 2360     		str	r3, [r4]
 222 001c 0AAB     		add	r3, sp, #40
 223 001e 0FCB     		ldmia	r3, {r0, r1, r2, r3}
 224 0020 FFF7FEFF 		bl	getCompare
 225              	.LVL11:
  52:servocommands.c ****     s.write(s.compare);
 226              		.loc 1 52 0
 227 0024 80B2     		uxth	r0, r0
 228 0026 0F9B     		ldr	r3, [sp, #60]
 229 0028 9847     		blx	r3
 230              	.LVL12:
  53:servocommands.c **** }
 231              		.loc 1 53 0
 232 002a 07B0     		add	sp, sp, #28
ARM GAS  C:\Users\Jacob\AppData\Local\Temp\ccIFqiNg.s 			page 6


 233              		.cfi_def_cfa_offset 28
 234              		@ sp needed
 235 002c BDE83040 		pop	{r4, r5, lr}
 236              		.cfi_restore 14
 237              		.cfi_restore 5
 238              		.cfi_restore 4
 239              		.cfi_def_cfa_offset 16
 240 0030 04B0     		add	sp, sp, #16
 241              		.cfi_def_cfa_offset 0
 242 0032 7047     		bx	lr
 243              		.cfi_endproc
 244              	.LFE66:
 245              		.size	moveServo, .-moveServo
 246              		.comm	TopServo,36,4
 247              		.comm	BottomServo,36,4
 248              		.comm	a,4,4
 249              		.text
 250              	.Letext0:
 251              		.file 2 "c:\\program files (x86)\\cypress\\psoc creator\\4.1\\psoc creator\\import\\gnu\\arm\\5.4.
 252              		.file 3 "c:\\program files (x86)\\cypress\\psoc creator\\4.1\\psoc creator\\import\\gnu\\arm\\5.4.
 253              		.file 4 "./main.h"
 254              		.file 5 "Generated_Source\\PSoC5/core_cm3.h"
 255              		.file 6 "Generated_Source\\PSoC5/Servos.h"