ARM GAS  C:\Users\Jacob\AppData\Local\Temp\ccDFxZHh.s 			page 1


   1              		.syntax unified
   2              		.cpu cortex-m3
   3              		.fpu softvfp
   4              		.eabi_attribute 20, 1
   5              		.eabi_attribute 21, 1
   6              		.eabi_attribute 23, 3
   7              		.eabi_attribute 24, 1
   8              		.eabi_attribute 25, 1
   9              		.eabi_attribute 26, 1
  10              		.eabi_attribute 30, 1
  11              		.eabi_attribute 34, 1
  12              		.eabi_attribute 18, 4
  13              		.thumb
  14              		.syntax unified
  15              		.file	"untitled01.c"
  16              		.text
  17              	.Ltext0:
  18              		.cfi_sections	.debug_frame
  19              		.section	.text.hi,"ax",%progbits
  20              		.align	2
  21              		.global	hi
  22              		.thumb
  23              		.thumb_func
  24              		.type	hi, %function
  25              	hi:
  26              	.LFB63:
  27              		.file 1 "untitled01.c"
   1:untitled01.c  **** /* ========================================
   2:untitled01.c  ****  *
   3:untitled01.c  ****  * Copyright YOUR COMPANY, THE YEAR
   4:untitled01.c  ****  * All Rights Reserved
   5:untitled01.c  ****  * UNPUBLISHED, LICENSED SOFTWARE.
   6:untitled01.c  ****  *
   7:untitled01.c  ****  * CONFIDENTIAL AND PROPRIETARY INFORMATION
   8:untitled01.c  ****  * WHICH IS THE PROPERTY OF your company.
   9:untitled01.c  ****  *
  10:untitled01.c  ****  * ========================================
  11:untitled01.c  **** */
  12:untitled01.c  **** #include <main.h>
  13:untitled01.c  **** 
  14:untitled01.c  **** void hi(){
  28              		.loc 1 14 0
  29              		.cfi_startproc
  30              		@ args = 0, pretend = 0, frame = 0
  31              		@ frame_needed = 0, uses_anonymous_args = 0
  32              		@ link register save eliminated.
  15:untitled01.c  ****     a=2;
  33              		.loc 1 15 0
  34 0000 0222     		movs	r2, #2
  35 0002 014B     		ldr	r3, .L2
  36 0004 1A60     		str	r2, [r3]
  37 0006 7047     		bx	lr
  38              	.L3:
  39              		.align	2
  40              	.L2:
  41 0008 00000000 		.word	a
  42              		.cfi_endproc
ARM GAS  C:\Users\Jacob\AppData\Local\Temp\ccDFxZHh.s 			page 2


  43              	.LFE63:
  44              		.size	hi, .-hi
  45              		.section	.text.initializeServos,"ax",%progbits
  46              		.align	2
  47              		.global	initializeServos
  48              		.thumb
  49              		.thumb_func
  50              		.type	initializeServos, %function
  51              	initializeServos:
  52              	.LFB64:
  16:untitled01.c  **** }
  17:untitled01.c  **** void initializeServos(){
  53              		.loc 1 17 0
  54              		.cfi_startproc
  55              		@ args = 0, pretend = 0, frame = 0
  56              		@ frame_needed = 0, uses_anonymous_args = 0
  57 0000 08B5     		push	{r3, lr}
  58              		.cfi_def_cfa_offset 8
  59              		.cfi_offset 3, -8
  60              		.cfi_offset 14, -4
  18:untitled01.c  ****     
  19:untitled01.c  ****     Servos_Start();
  61              		.loc 1 19 0
  62 0002 FFF7FEFF 		bl	Servos_Start
  63              	.LVL0:
  20:untitled01.c  ****     
  21:untitled01.c  ****     BottomServo.minComp = 1600;
  64              		.loc 1 21 0
  65 0006 0C4B     		ldr	r3, .L6
  66 0008 4FF4C862 		mov	r2, #1600
  67 000c 5A60     		str	r2, [r3, #4]
  22:untitled01.c  ****     BottomServo.maxComp = 6450;
  68              		.loc 1 22 0
  69 000e 41F63212 		movw	r2, #6450
  70 0012 1A60     		str	r2, [r3]
  23:untitled01.c  ****     BottomServo.minAngle = 0.0;
  71              		.loc 1 23 0
  72 0014 0021     		movs	r1, #0
  73 0016 D960     		str	r1, [r3, #12]	@ float
  24:untitled01.c  ****     BottomServo.maxAngle = 180.0;
  74              		.loc 1 24 0
  75 0018 084A     		ldr	r2, .L6+4
  76 001a 9A60     		str	r2, [r3, #8]	@ float
  25:untitled01.c  ****     BottomServo.write = Servos_WriteCompare1;
  77              		.loc 1 25 0
  78 001c 0848     		ldr	r0, .L6+8
  79 001e 5861     		str	r0, [r3, #20]
  26:untitled01.c  ****     
  27:untitled01.c  ****     TopServo.minComp = 2050;
  80              		.loc 1 27 0
  81 0020 084B     		ldr	r3, .L6+12
  82 0022 40F60200 		movw	r0, #2050
  83 0026 5860     		str	r0, [r3, #4]
  28:untitled01.c  ****     TopServo.maxComp = 6750;
  84              		.loc 1 28 0
  85 0028 41F65E20 		movw	r0, #6750
  86 002c 1860     		str	r0, [r3]
ARM GAS  C:\Users\Jacob\AppData\Local\Temp\ccDFxZHh.s 			page 3


  29:untitled01.c  ****     TopServo.minAngle = 0.0;
  87              		.loc 1 29 0
  88 002e D960     		str	r1, [r3, #12]	@ float
  30:untitled01.c  ****     TopServo.maxAngle = 180.0;
  89              		.loc 1 30 0
  90 0030 9A60     		str	r2, [r3, #8]	@ float
  31:untitled01.c  ****     TopServo.write = Servos_WriteCompare2;
  91              		.loc 1 31 0
  92 0032 054A     		ldr	r2, .L6+16
  93 0034 5A61     		str	r2, [r3, #20]
  94 0036 08BD     		pop	{r3, pc}
  95              	.L7:
  96              		.align	2
  97              	.L6:
  98 0038 00000000 		.word	BottomServo
  99 003c 00003443 		.word	1127481344
 100 0040 00000000 		.word	Servos_WriteCompare1
 101 0044 00000000 		.word	TopServo
 102 0048 00000000 		.word	Servos_WriteCompare2
 103              		.cfi_endproc
 104              	.LFE64:
 105              		.size	initializeServos, .-initializeServos
 106              		.global	__aeabi_fsub
 107              		.global	__aeabi_i2f
 108              		.global	__aeabi_fdiv
 109              		.global	__aeabi_fmul
 110              		.global	__aeabi_fadd
 111              		.global	__aeabi_f2iz
 112              		.section	.text.getCompare,"ax",%progbits
 113              		.align	2
 114              		.global	getCompare
 115              		.thumb
 116              		.thumb_func
 117              		.type	getCompare, %function
 118              	getCompare:
 119              	.LFB65:
  32:untitled01.c  **** }
  33:untitled01.c  **** 
  34:untitled01.c  **** int getCompare(struct Servo s, float angle){
 120              		.loc 1 34 0
 121              		.cfi_startproc
 122              		@ args = 28, pretend = 16, frame = 0
 123              		@ frame_needed = 0, uses_anonymous_args = 0
 124              	.LVL1:
 125 0000 84B0     		sub	sp, sp, #16
 126              		.cfi_def_cfa_offset 16
 127 0002 F8B5     		push	{r3, r4, r5, r6, r7, lr}
 128              		.cfi_def_cfa_offset 40
 129              		.cfi_offset 3, -40
 130              		.cfi_offset 4, -36
 131              		.cfi_offset 5, -32
 132              		.cfi_offset 6, -28
 133              		.cfi_offset 7, -24
 134              		.cfi_offset 14, -20
 135 0004 06AC     		add	r4, sp, #24
 136 0006 84E80F00 		stmia	r4, {r0, r1, r2, r3}
  35:untitled01.c  ****     s.compare = (s.maxComp-s.minComp)/(s.maxAngle-s.minAngle)*(angle-s.minAngle) + s.minComp;
ARM GAS  C:\Users\Jacob\AppData\Local\Temp\ccDFxZHh.s 			page 4


 137              		.loc 1 35 0
 138 000a 079C     		ldr	r4, [sp, #28]
 139 000c 071B     		subs	r7, r0, r4
 140 000e 099D     		ldr	r5, [sp, #36]	@ float
 141 0010 2946     		mov	r1, r5
 142 0012 0898     		ldr	r0, [sp, #32]	@ float
 143 0014 FFF7FEFF 		bl	__aeabi_fsub
 144              	.LVL2:
 145 0018 0646     		mov	r6, r0
 146 001a 3846     		mov	r0, r7
 147 001c FFF7FEFF 		bl	__aeabi_i2f
 148              	.LVL3:
 149 0020 3146     		mov	r1, r6
 150 0022 FFF7FEFF 		bl	__aeabi_fdiv
 151              	.LVL4:
 152 0026 0646     		mov	r6, r0
 153 0028 2946     		mov	r1, r5
 154 002a 0C98     		ldr	r0, [sp, #48]	@ float
 155 002c FFF7FEFF 		bl	__aeabi_fsub
 156              	.LVL5:
 157 0030 0146     		mov	r1, r0
 158 0032 3046     		mov	r0, r6
 159 0034 FFF7FEFF 		bl	__aeabi_fmul
 160              	.LVL6:
 161 0038 0546     		mov	r5, r0
 162 003a 2046     		mov	r0, r4
 163 003c FFF7FEFF 		bl	__aeabi_i2f
 164              	.LVL7:
 165 0040 2946     		mov	r1, r5
 166 0042 FFF7FEFF 		bl	__aeabi_fadd
 167              	.LVL8:
 168 0046 FFF7FEFF 		bl	__aeabi_f2iz
 169              	.LVL9:
  36:untitled01.c  ****     return s.compare;
  37:untitled01.c  **** }
 170              		.loc 1 37 0
 171 004a BDE8F840 		pop	{r3, r4, r5, r6, r7, lr}
 172              		.cfi_restore 14
 173              		.cfi_restore 7
 174              		.cfi_restore 6
 175              		.cfi_restore 5
 176              		.cfi_restore 4
 177              		.cfi_restore 3
 178              		.cfi_def_cfa_offset 16
 179 004e 04B0     		add	sp, sp, #16
 180              		.cfi_def_cfa_offset 0
 181 0050 7047     		bx	lr
 182              		.cfi_endproc
 183              	.LFE65:
 184              		.size	getCompare, .-getCompare
 185 0052 00BF     		.section	.text.moveServo,"ax",%progbits
 186              		.align	2
 187              		.global	moveServo
 188              		.thumb
 189              		.thumb_func
 190              		.type	moveServo, %function
 191              	moveServo:
ARM GAS  C:\Users\Jacob\AppData\Local\Temp\ccDFxZHh.s 			page 5


 192              	.LFB66:
  38:untitled01.c  **** 
  39:untitled01.c  **** void moveServo(struct Servo s, float angle){
 193              		.loc 1 39 0
 194              		.cfi_startproc
 195              		@ args = 28, pretend = 16, frame = 0
 196              		@ frame_needed = 0, uses_anonymous_args = 0
 197              	.LVL10:
 198 0000 84B0     		sub	sp, sp, #16
 199              		.cfi_def_cfa_offset 16
 200 0002 00B5     		push	{lr}
 201              		.cfi_def_cfa_offset 20
 202              		.cfi_offset 14, -20
 203 0004 85B0     		sub	sp, sp, #20
 204              		.cfi_def_cfa_offset 40
 205 0006 0DF1180E 		add	lr, sp, #24
 206 000a 8EE80F00 		stmia	lr, {r0, r1, r2, r3}
  40:untitled01.c  ****     s.compare = getCompare(s,angle);
 207              		.loc 1 40 0
 208 000e 0C9B     		ldr	r3, [sp, #48]	@ float
 209 0010 0293     		str	r3, [sp, #8]	@ float
 210 0012 0AAB     		add	r3, sp, #40
 211 0014 93E80300 		ldmia	r3, {r0, r1}
 212 0018 8DE80300 		stmia	sp, {r0, r1}
 213 001c 9EE80F00 		ldmia	lr, {r0, r1, r2, r3}
 214 0020 FFF7FEFF 		bl	getCompare
 215              	.LVL11:
  41:untitled01.c  ****     s.write(s.compare);
 216              		.loc 1 41 0
 217 0024 80B2     		uxth	r0, r0
 218 0026 0B9B     		ldr	r3, [sp, #44]
 219 0028 9847     		blx	r3
 220              	.LVL12:
  42:untitled01.c  **** }
 221              		.loc 1 42 0
 222 002a 05B0     		add	sp, sp, #20
 223              		.cfi_def_cfa_offset 20
 224              		@ sp needed
 225 002c 5DF804EB 		ldr	lr, [sp], #4
 226              		.cfi_restore 14
 227              		.cfi_def_cfa_offset 16
 228 0030 04B0     		add	sp, sp, #16
 229              		.cfi_def_cfa_offset 0
 230 0032 7047     		bx	lr
 231              		.cfi_endproc
 232              	.LFE66:
 233              		.size	moveServo, .-moveServo
 234              		.comm	TopServo,24,4
 235              		.comm	BottomServo,24,4
 236              		.comm	a,4,4
 237              		.text
 238              	.Letext0:
 239              		.file 2 "c:\\program files (x86)\\cypress\\psoc creator\\4.1\\psoc creator\\import\\gnu\\arm\\5.4.
 240              		.file 3 "c:\\program files (x86)\\cypress\\psoc creator\\4.1\\psoc creator\\import\\gnu\\arm\\5.4.
 241              		.file 4 "./main.h"
 242              		.file 5 "Generated_Source\\PSoC5/core_cm3.h"
 243              		.file 6 "Generated_Source\\PSoC5/Servos.h"
ARM GAS  C:\Users\Jacob\AppData\Local\Temp\ccDFxZHh.s 			page 6

