ARM GAS  C:\Users\Jacob\AppData\Local\Temp\ccaC8eHj.s 			page 1


   1              		.syntax unified
   2              		.cpu cortex-m0
   3              		.fpu softvfp
   4              		.eabi_attribute 20, 1
   5              		.eabi_attribute 21, 1
   6              		.eabi_attribute 23, 3
   7              		.eabi_attribute 24, 1
   8              		.eabi_attribute 25, 1
   9              		.eabi_attribute 26, 1
  10              		.eabi_attribute 30, 1
  11              		.eabi_attribute 34, 0
  12              		.eabi_attribute 18, 4
  13              		.thumb
  14              		.syntax unified
  15              		.file	"cyfitter_cfg.c"
  16              		.text
  17              	.Ltext0:
  18              		.cfi_sections	.debug_frame
  19              		.section	.text.cfg_write_bytes32,"ax",%progbits
  20              		.align	2
  21              		.code	16
  22              		.thumb_func
  23              		.type	cfg_write_bytes32, %function
  24              	cfg_write_bytes32:
  25              	.LFB5:
  26              		.file 1 "Generated_Source\\PSoC4\\cyfitter_cfg.c"
   1:Generated_Source\PSoC4/cyfitter_cfg.c **** 
   2:Generated_Source\PSoC4/cyfitter_cfg.c **** /*******************************************************************************
   3:Generated_Source\PSoC4/cyfitter_cfg.c **** * File Name: cyfitter_cfg.c
   4:Generated_Source\PSoC4/cyfitter_cfg.c **** * 
   5:Generated_Source\PSoC4/cyfitter_cfg.c **** * PSoC Creator  4.1 Update 1
   6:Generated_Source\PSoC4/cyfitter_cfg.c **** *
   7:Generated_Source\PSoC4/cyfitter_cfg.c **** * Description:
   8:Generated_Source\PSoC4/cyfitter_cfg.c **** * This file contains device initialization code.
   9:Generated_Source\PSoC4/cyfitter_cfg.c **** * Except for the user defined sections in CyClockStartupError(), this file should not be modified.
  10:Generated_Source\PSoC4/cyfitter_cfg.c **** * This file is automatically generated by PSoC Creator.
  11:Generated_Source\PSoC4/cyfitter_cfg.c **** *
  12:Generated_Source\PSoC4/cyfitter_cfg.c **** ********************************************************************************
  13:Generated_Source\PSoC4/cyfitter_cfg.c **** * Copyright (c) 2007-2017 Cypress Semiconductor.  All rights reserved.
  14:Generated_Source\PSoC4/cyfitter_cfg.c **** * You may use this file only in accordance with the license, terms, conditions, 
  15:Generated_Source\PSoC4/cyfitter_cfg.c **** * disclaimers, and limitations in the end user license agreement accompanying 
  16:Generated_Source\PSoC4/cyfitter_cfg.c **** * the software package with which this file was provided.
  17:Generated_Source\PSoC4/cyfitter_cfg.c **** ********************************************************************************/
  18:Generated_Source\PSoC4/cyfitter_cfg.c **** 
  19:Generated_Source\PSoC4/cyfitter_cfg.c **** #include <string.h>
  20:Generated_Source\PSoC4/cyfitter_cfg.c **** #include "cytypes.h"
  21:Generated_Source\PSoC4/cyfitter_cfg.c **** #include "cydevice_trm.h"
  22:Generated_Source\PSoC4/cyfitter_cfg.c **** #include "cyfitter.h"
  23:Generated_Source\PSoC4/cyfitter_cfg.c **** #include "CyLib.h"
  24:Generated_Source\PSoC4/cyfitter_cfg.c **** #include "CyLFClk.h"
  25:Generated_Source\PSoC4/cyfitter_cfg.c **** #include "cyfitter_cfg.h"
  26:Generated_Source\PSoC4/cyfitter_cfg.c **** #include "cyapicallbacks.h"
  27:Generated_Source\PSoC4/cyfitter_cfg.c **** 
  28:Generated_Source\PSoC4/cyfitter_cfg.c **** 
  29:Generated_Source\PSoC4/cyfitter_cfg.c **** #if defined(__GNUC__) || defined(__ARMCC_VERSION)
  30:Generated_Source\PSoC4/cyfitter_cfg.c ****     #define CYPACKED 
  31:Generated_Source\PSoC4/cyfitter_cfg.c ****     #define CYPACKED_ATTR __attribute__ ((packed))
ARM GAS  C:\Users\Jacob\AppData\Local\Temp\ccaC8eHj.s 			page 2


  32:Generated_Source\PSoC4/cyfitter_cfg.c ****     #define CYALIGNED __attribute__ ((aligned))
  33:Generated_Source\PSoC4/cyfitter_cfg.c ****     #define CY_CFG_UNUSED __attribute__ ((unused))
  34:Generated_Source\PSoC4/cyfitter_cfg.c ****     #ifndef CY_CFG_SECTION
  35:Generated_Source\PSoC4/cyfitter_cfg.c ****         #define CY_CFG_SECTION __attribute__ ((section(".psocinit")))
  36:Generated_Source\PSoC4/cyfitter_cfg.c ****     #endif
  37:Generated_Source\PSoC4/cyfitter_cfg.c ****     
  38:Generated_Source\PSoC4/cyfitter_cfg.c ****     #if defined(__ARMCC_VERSION)
  39:Generated_Source\PSoC4/cyfitter_cfg.c ****         #define CY_CFG_MEMORY_BARRIER() __memory_changed()
  40:Generated_Source\PSoC4/cyfitter_cfg.c ****     #else
  41:Generated_Source\PSoC4/cyfitter_cfg.c ****         #define CY_CFG_MEMORY_BARRIER() __sync_synchronize()
  42:Generated_Source\PSoC4/cyfitter_cfg.c ****     #endif
  43:Generated_Source\PSoC4/cyfitter_cfg.c ****     
  44:Generated_Source\PSoC4/cyfitter_cfg.c **** #elif defined(__ICCARM__)
  45:Generated_Source\PSoC4/cyfitter_cfg.c ****     #include <intrinsics.h>
  46:Generated_Source\PSoC4/cyfitter_cfg.c **** 
  47:Generated_Source\PSoC4/cyfitter_cfg.c ****     #define CYPACKED __packed
  48:Generated_Source\PSoC4/cyfitter_cfg.c ****     #define CYPACKED_ATTR 
  49:Generated_Source\PSoC4/cyfitter_cfg.c ****     #define CYALIGNED _Pragma("data_alignment=4")
  50:Generated_Source\PSoC4/cyfitter_cfg.c ****     #define CY_CFG_UNUSED _Pragma("diag_suppress=Pe177")
  51:Generated_Source\PSoC4/cyfitter_cfg.c ****     #define CY_CFG_SECTION _Pragma("location=\".psocinit\"")
  52:Generated_Source\PSoC4/cyfitter_cfg.c ****     
  53:Generated_Source\PSoC4/cyfitter_cfg.c ****     #define CY_CFG_MEMORY_BARRIER() __DMB()
  54:Generated_Source\PSoC4/cyfitter_cfg.c ****     
  55:Generated_Source\PSoC4/cyfitter_cfg.c **** #else
  56:Generated_Source\PSoC4/cyfitter_cfg.c ****     #error Unsupported toolchain
  57:Generated_Source\PSoC4/cyfitter_cfg.c **** #endif
  58:Generated_Source\PSoC4/cyfitter_cfg.c **** 
  59:Generated_Source\PSoC4/cyfitter_cfg.c **** #ifndef CYCODE
  60:Generated_Source\PSoC4/cyfitter_cfg.c ****     #define CYCODE
  61:Generated_Source\PSoC4/cyfitter_cfg.c **** #endif
  62:Generated_Source\PSoC4/cyfitter_cfg.c **** #ifndef CYDATA
  63:Generated_Source\PSoC4/cyfitter_cfg.c ****     #define CYDATA
  64:Generated_Source\PSoC4/cyfitter_cfg.c **** #endif
  65:Generated_Source\PSoC4/cyfitter_cfg.c **** #ifndef CYFAR
  66:Generated_Source\PSoC4/cyfitter_cfg.c ****     #define CYFAR
  67:Generated_Source\PSoC4/cyfitter_cfg.c **** #endif
  68:Generated_Source\PSoC4/cyfitter_cfg.c **** #ifndef CYXDATA
  69:Generated_Source\PSoC4/cyfitter_cfg.c ****     #define CYXDATA
  70:Generated_Source\PSoC4/cyfitter_cfg.c **** #endif
  71:Generated_Source\PSoC4/cyfitter_cfg.c **** 
  72:Generated_Source\PSoC4/cyfitter_cfg.c **** 
  73:Generated_Source\PSoC4/cyfitter_cfg.c **** CY_CFG_UNUSED
  74:Generated_Source\PSoC4/cyfitter_cfg.c **** static void CYMEMZERO(void *s, size_t n);
  75:Generated_Source\PSoC4/cyfitter_cfg.c **** CY_CFG_UNUSED
  76:Generated_Source\PSoC4/cyfitter_cfg.c **** static void CYMEMZERO(void *s, size_t n)
  77:Generated_Source\PSoC4/cyfitter_cfg.c **** {
  78:Generated_Source\PSoC4/cyfitter_cfg.c **** 	(void)memset(s, 0, n);
  79:Generated_Source\PSoC4/cyfitter_cfg.c **** }
  80:Generated_Source\PSoC4/cyfitter_cfg.c **** CY_CFG_UNUSED
  81:Generated_Source\PSoC4/cyfitter_cfg.c **** static void CYCONFIGCPY(void *dest, const void *src, size_t n);
  82:Generated_Source\PSoC4/cyfitter_cfg.c **** CY_CFG_UNUSED
  83:Generated_Source\PSoC4/cyfitter_cfg.c **** static void CYCONFIGCPY(void *dest, const void *src, size_t n)
  84:Generated_Source\PSoC4/cyfitter_cfg.c **** {
  85:Generated_Source\PSoC4/cyfitter_cfg.c **** 	(void)memcpy(dest, src, n);
  86:Generated_Source\PSoC4/cyfitter_cfg.c **** }
  87:Generated_Source\PSoC4/cyfitter_cfg.c **** CY_CFG_UNUSED
  88:Generated_Source\PSoC4/cyfitter_cfg.c **** static void CYCONFIGCPYCODE(void *dest, const void *src, size_t n);
ARM GAS  C:\Users\Jacob\AppData\Local\Temp\ccaC8eHj.s 			page 3


  89:Generated_Source\PSoC4/cyfitter_cfg.c **** CY_CFG_UNUSED
  90:Generated_Source\PSoC4/cyfitter_cfg.c **** static void CYCONFIGCPYCODE(void *dest, const void *src, size_t n)
  91:Generated_Source\PSoC4/cyfitter_cfg.c **** {
  92:Generated_Source\PSoC4/cyfitter_cfg.c **** 	(void)memcpy(dest, src, n);
  93:Generated_Source\PSoC4/cyfitter_cfg.c **** }
  94:Generated_Source\PSoC4/cyfitter_cfg.c **** 
  95:Generated_Source\PSoC4/cyfitter_cfg.c **** 
  96:Generated_Source\PSoC4/cyfitter_cfg.c **** 
  97:Generated_Source\PSoC4/cyfitter_cfg.c **** 
  98:Generated_Source\PSoC4/cyfitter_cfg.c **** /* Clock startup error codes                                                   */
  99:Generated_Source\PSoC4/cyfitter_cfg.c **** #define CYCLOCKSTART_NO_ERROR    0u
 100:Generated_Source\PSoC4/cyfitter_cfg.c **** #define CYCLOCKSTART_XTAL_ERROR  1u
 101:Generated_Source\PSoC4/cyfitter_cfg.c **** #define CYCLOCKSTART_32KHZ_ERROR 2u
 102:Generated_Source\PSoC4/cyfitter_cfg.c **** #define CYCLOCKSTART_PLL_ERROR   3u
 103:Generated_Source\PSoC4/cyfitter_cfg.c **** #define CYCLOCKSTART_FLL_ERROR   4u
 104:Generated_Source\PSoC4/cyfitter_cfg.c **** 
 105:Generated_Source\PSoC4/cyfitter_cfg.c **** 
 106:Generated_Source\PSoC4/cyfitter_cfg.c **** #ifdef CY_NEED_CYCLOCKSTARTUPERROR
 107:Generated_Source\PSoC4/cyfitter_cfg.c **** /*******************************************************************************
 108:Generated_Source\PSoC4/cyfitter_cfg.c **** * Function Name: CyClockStartupError
 109:Generated_Source\PSoC4/cyfitter_cfg.c **** ********************************************************************************
 110:Generated_Source\PSoC4/cyfitter_cfg.c **** * Summary:
 111:Generated_Source\PSoC4/cyfitter_cfg.c **** *  If an error is encountered during clock configuration (crystal startup error,
 112:Generated_Source\PSoC4/cyfitter_cfg.c **** *  PLL lock error, etc.), the system will end up here.  Unless reimplemented by
 113:Generated_Source\PSoC4/cyfitter_cfg.c **** *  the customer, this function will stop in an infinite loop.
 114:Generated_Source\PSoC4/cyfitter_cfg.c **** *
 115:Generated_Source\PSoC4/cyfitter_cfg.c **** * Parameters:
 116:Generated_Source\PSoC4/cyfitter_cfg.c **** *   void
 117:Generated_Source\PSoC4/cyfitter_cfg.c **** *
 118:Generated_Source\PSoC4/cyfitter_cfg.c **** * Return:
 119:Generated_Source\PSoC4/cyfitter_cfg.c **** *   void
 120:Generated_Source\PSoC4/cyfitter_cfg.c **** *
 121:Generated_Source\PSoC4/cyfitter_cfg.c **** *******************************************************************************/
 122:Generated_Source\PSoC4/cyfitter_cfg.c **** CY_CFG_UNUSED
 123:Generated_Source\PSoC4/cyfitter_cfg.c **** static void CyClockStartupError(uint8 errorCode);
 124:Generated_Source\PSoC4/cyfitter_cfg.c **** CY_CFG_UNUSED
 125:Generated_Source\PSoC4/cyfitter_cfg.c **** static void CyClockStartupError(uint8 errorCode)
 126:Generated_Source\PSoC4/cyfitter_cfg.c **** {
 127:Generated_Source\PSoC4/cyfitter_cfg.c ****     /* To remove the compiler warning if errorCode not used. */
 128:Generated_Source\PSoC4/cyfitter_cfg.c **** #if defined(CY_PSOC3) && (CY_PSOC3)
 129:Generated_Source\PSoC4/cyfitter_cfg.c ****     errorCode = errorCode;
 130:Generated_Source\PSoC4/cyfitter_cfg.c **** #else
 131:Generated_Source\PSoC4/cyfitter_cfg.c ****     (void)errorCode;
 132:Generated_Source\PSoC4/cyfitter_cfg.c **** #endif /* CY_PSOC3 */
 133:Generated_Source\PSoC4/cyfitter_cfg.c **** 
 134:Generated_Source\PSoC4/cyfitter_cfg.c ****     /* If we have a clock startup error (bad MHz crystal, PLL lock, etc.),  */
 135:Generated_Source\PSoC4/cyfitter_cfg.c ****     /* we will end up here to allow the customer to implement something to  */
 136:Generated_Source\PSoC4/cyfitter_cfg.c ****     /* deal with the clock condition.                                       */
 137:Generated_Source\PSoC4/cyfitter_cfg.c **** 
 138:Generated_Source\PSoC4/cyfitter_cfg.c **** #ifdef CY_CFG_CLOCK_STARTUP_ERROR_CALLBACK
 139:Generated_Source\PSoC4/cyfitter_cfg.c ****     CY_CFG_Clock_Startup_ErrorCallback();
 140:Generated_Source\PSoC4/cyfitter_cfg.c **** #else
 141:Generated_Source\PSoC4/cyfitter_cfg.c ****     /*  If not using CY_CFG_CLOCK_STARTUP_ERROR_CALLBACK, place your clock startup code here. */
 142:Generated_Source\PSoC4/cyfitter_cfg.c ****     /* `#START CyClockStartupError` */
 143:Generated_Source\PSoC4/cyfitter_cfg.c **** 
 144:Generated_Source\PSoC4/cyfitter_cfg.c **** 
 145:Generated_Source\PSoC4/cyfitter_cfg.c **** 
ARM GAS  C:\Users\Jacob\AppData\Local\Temp\ccaC8eHj.s 			page 4


 146:Generated_Source\PSoC4/cyfitter_cfg.c ****     /* `#END` */
 147:Generated_Source\PSoC4/cyfitter_cfg.c **** 
 148:Generated_Source\PSoC4/cyfitter_cfg.c ****     while(1) {}
 149:Generated_Source\PSoC4/cyfitter_cfg.c **** #endif /* CY_CFG_CLOCK_STARTUP_ERROR_CALLBACK */
 150:Generated_Source\PSoC4/cyfitter_cfg.c **** }
 151:Generated_Source\PSoC4/cyfitter_cfg.c **** #endif
 152:Generated_Source\PSoC4/cyfitter_cfg.c **** 
 153:Generated_Source\PSoC4/cyfitter_cfg.c **** #define CY_CFG_BASE_ADDR_COUNT 8u
 154:Generated_Source\PSoC4/cyfitter_cfg.c **** CYPACKED typedef struct
 155:Generated_Source\PSoC4/cyfitter_cfg.c **** {
 156:Generated_Source\PSoC4/cyfitter_cfg.c **** 	uint8 offset;
 157:Generated_Source\PSoC4/cyfitter_cfg.c **** 	uint8 value;
 158:Generated_Source\PSoC4/cyfitter_cfg.c **** } CYPACKED_ATTR cy_cfg_addrvalue_t;
 159:Generated_Source\PSoC4/cyfitter_cfg.c **** 
 160:Generated_Source\PSoC4/cyfitter_cfg.c **** 
 161:Generated_Source\PSoC4/cyfitter_cfg.c **** 
 162:Generated_Source\PSoC4/cyfitter_cfg.c **** /*******************************************************************************
 163:Generated_Source\PSoC4/cyfitter_cfg.c **** * Function Name: cfg_write_bytes32
 164:Generated_Source\PSoC4/cyfitter_cfg.c **** ********************************************************************************
 165:Generated_Source\PSoC4/cyfitter_cfg.c **** * Summary:
 166:Generated_Source\PSoC4/cyfitter_cfg.c **** *  This function is used for setting up the chip configuration areas that
 167:Generated_Source\PSoC4/cyfitter_cfg.c **** *  contain relatively sparse data.
 168:Generated_Source\PSoC4/cyfitter_cfg.c **** *
 169:Generated_Source\PSoC4/cyfitter_cfg.c **** * Parameters:
 170:Generated_Source\PSoC4/cyfitter_cfg.c **** *   void
 171:Generated_Source\PSoC4/cyfitter_cfg.c **** *
 172:Generated_Source\PSoC4/cyfitter_cfg.c **** * Return:
 173:Generated_Source\PSoC4/cyfitter_cfg.c **** *   void
 174:Generated_Source\PSoC4/cyfitter_cfg.c **** *
 175:Generated_Source\PSoC4/cyfitter_cfg.c **** *******************************************************************************/
 176:Generated_Source\PSoC4/cyfitter_cfg.c **** static void cfg_write_bytes32(const uint32 addr_table[], const cy_cfg_addrvalue_t data_table[]);
 177:Generated_Source\PSoC4/cyfitter_cfg.c **** static void cfg_write_bytes32(const uint32 addr_table[], const cy_cfg_addrvalue_t data_table[])
 178:Generated_Source\PSoC4/cyfitter_cfg.c **** {
  27              		.loc 1 178 0
  28              		.cfi_startproc
  29              		@ args = 0, pretend = 0, frame = 0
  30              		@ frame_needed = 0, uses_anonymous_args = 0
  31              	.LVL0:
  32 0000 F0B5     		push	{r4, r5, r6, r7, lr}
  33              		.cfi_def_cfa_offset 20
  34              		.cfi_offset 4, -20
  35              		.cfi_offset 5, -16
  36              		.cfi_offset 6, -12
  37              		.cfi_offset 7, -8
  38              		.cfi_offset 14, -4
  39              	.LVL1:
 179:Generated_Source\PSoC4/cyfitter_cfg.c **** 	/* For 32-bit little-endian architectures */
 180:Generated_Source\PSoC4/cyfitter_cfg.c **** 	uint32 i, j = 0u;
  40              		.loc 1 180 0
  41 0002 0025     		movs	r5, #0
 181:Generated_Source\PSoC4/cyfitter_cfg.c **** 	for (i = 0u; i < CY_CFG_BASE_ADDR_COUNT; i++)
  42              		.loc 1 181 0
  43 0004 0027     		movs	r7, #0
  44 0006 11E0     		b	.L2
  45              	.LVL2:
  46              	.L5:
  47              	.LBB2:
ARM GAS  C:\Users\Jacob\AppData\Local\Temp\ccaC8eHj.s 			page 5


 182:Generated_Source\PSoC4/cyfitter_cfg.c **** 	{
 183:Generated_Source\PSoC4/cyfitter_cfg.c **** 		uint32 baseAddr = addr_table[i];
  48              		.loc 1 183 0
  49 0008 BB00     		lsls	r3, r7, #2
  50 000a C658     		ldr	r6, [r0, r3]
  51              	.LVL3:
 184:Generated_Source\PSoC4/cyfitter_cfg.c **** 		uint8 count = (uint8)baseAddr;
  52              		.loc 1 184 0
  53 000c F3B2     		uxtb	r3, r6
  54              	.LVL4:
 185:Generated_Source\PSoC4/cyfitter_cfg.c **** 		baseAddr &= 0xFFFFFF00u;
  55              		.loc 1 185 0
  56 000e FF22     		movs	r2, #255
  57 0010 9643     		bics	r6, r2
  58              	.LVL5:
 186:Generated_Source\PSoC4/cyfitter_cfg.c **** 		while (count != 0u)
  59              		.loc 1 186 0
  60 0012 08E0     		b	.L3
  61              	.L4:
 187:Generated_Source\PSoC4/cyfitter_cfg.c **** 		{
 188:Generated_Source\PSoC4/cyfitter_cfg.c **** 			CY_SET_REG8((void *)(baseAddr + data_table[j].offset), data_table[j].value);
  62              		.loc 1 188 0
  63 0014 6A00     		lsls	r2, r5, #1
  64 0016 8A18     		adds	r2, r1, r2
  65 0018 1478     		ldrb	r4, [r2]
  66 001a A419     		adds	r4, r4, r6
  67 001c 5278     		ldrb	r2, [r2, #1]
  68 001e 2270     		strb	r2, [r4]
 189:Generated_Source\PSoC4/cyfitter_cfg.c **** 			j++;
  69              		.loc 1 189 0
  70 0020 0135     		adds	r5, r5, #1
  71              	.LVL6:
 190:Generated_Source\PSoC4/cyfitter_cfg.c **** 			count--;
  72              		.loc 1 190 0
  73 0022 013B     		subs	r3, r3, #1
  74              	.LVL7:
  75 0024 DBB2     		uxtb	r3, r3
  76              	.LVL8:
  77              	.L3:
 186:Generated_Source\PSoC4/cyfitter_cfg.c **** 		{
  78              		.loc 1 186 0
  79 0026 002B     		cmp	r3, #0
  80 0028 F4D1     		bne	.L4
  81              	.LBE2:
 181:Generated_Source\PSoC4/cyfitter_cfg.c **** 	{
  82              		.loc 1 181 0 discriminator 2
  83 002a 0137     		adds	r7, r7, #1
  84              	.LVL9:
  85              	.L2:
 181:Generated_Source\PSoC4/cyfitter_cfg.c **** 	{
  86              		.loc 1 181 0 is_stmt 0 discriminator 1
  87 002c 072F     		cmp	r7, #7
  88 002e EBD9     		bls	.L5
 191:Generated_Source\PSoC4/cyfitter_cfg.c **** 		}
 192:Generated_Source\PSoC4/cyfitter_cfg.c **** 	}
 193:Generated_Source\PSoC4/cyfitter_cfg.c **** }
  89              		.loc 1 193 0 is_stmt 1
ARM GAS  C:\Users\Jacob\AppData\Local\Temp\ccaC8eHj.s 			page 6


  90              		@ sp needed
  91              	.LVL10:
  92              	.LVL11:
  93 0030 F0BD     		pop	{r4, r5, r6, r7, pc}
  94              		.cfi_endproc
  95              	.LFE5:
  96              		.size	cfg_write_bytes32, .-cfg_write_bytes32
  97 0032 C046     		.section	.text.AnalogSetDefault,"ax",%progbits
  98              		.align	2
  99              		.code	16
 100              		.thumb_func
 101              		.type	AnalogSetDefault, %function
 102              	AnalogSetDefault:
 103              	.LFB7:
 194:Generated_Source\PSoC4/cyfitter_cfg.c **** 
 195:Generated_Source\PSoC4/cyfitter_cfg.c **** 
 196:Generated_Source\PSoC4/cyfitter_cfg.c **** /*******************************************************************************
 197:Generated_Source\PSoC4/cyfitter_cfg.c **** * Function Name: ClockSetup
 198:Generated_Source\PSoC4/cyfitter_cfg.c **** ********************************************************************************
 199:Generated_Source\PSoC4/cyfitter_cfg.c **** *
 200:Generated_Source\PSoC4/cyfitter_cfg.c **** * Summary:
 201:Generated_Source\PSoC4/cyfitter_cfg.c **** *   Performs the initialization of all of the clocks in the device based on the
 202:Generated_Source\PSoC4/cyfitter_cfg.c **** *   settings in the Clock tab of the DWR.  This includes enabling the requested
 203:Generated_Source\PSoC4/cyfitter_cfg.c **** *   clocks and setting the necessary dividers to produce the desired frequency. 
 204:Generated_Source\PSoC4/cyfitter_cfg.c **** *
 205:Generated_Source\PSoC4/cyfitter_cfg.c **** * Parameters:
 206:Generated_Source\PSoC4/cyfitter_cfg.c **** *   void
 207:Generated_Source\PSoC4/cyfitter_cfg.c **** *
 208:Generated_Source\PSoC4/cyfitter_cfg.c **** * Return:
 209:Generated_Source\PSoC4/cyfitter_cfg.c **** *   void
 210:Generated_Source\PSoC4/cyfitter_cfg.c **** *
 211:Generated_Source\PSoC4/cyfitter_cfg.c **** *******************************************************************************/
 212:Generated_Source\PSoC4/cyfitter_cfg.c **** static void ClockSetup(void);
 213:Generated_Source\PSoC4/cyfitter_cfg.c **** CY_CFG_SECTION
 214:Generated_Source\PSoC4/cyfitter_cfg.c **** static void ClockSetup(void)
 215:Generated_Source\PSoC4/cyfitter_cfg.c **** {
 216:Generated_Source\PSoC4/cyfitter_cfg.c **** 
 217:Generated_Source\PSoC4/cyfitter_cfg.c **** 	/* Set Flash Cycles based on max possible frequency in case a glitch occurs during ClockSetup(). *
 218:Generated_Source\PSoC4/cyfitter_cfg.c **** 	CY_SET_REG32((void CYXDATA *)(CYREG_CPUSS_FLASH_CTL), (0x0012u));
 219:Generated_Source\PSoC4/cyfitter_cfg.c **** 
 220:Generated_Source\PSoC4/cyfitter_cfg.c **** 	/* Start the WCO */
 221:Generated_Source\PSoC4/cyfitter_cfg.c **** 	CySysClkWcoStart();
 222:Generated_Source\PSoC4/cyfitter_cfg.c **** 	CyDelayCycles(12000000u); /* WCO may take up to 500ms to start */
 223:Generated_Source\PSoC4/cyfitter_cfg.c **** 	(void)CySysClkWcoSetPowerMode(CY_SYS_CLK_WCO_LPM);    /* Switch to the low power mode */
 224:Generated_Source\PSoC4/cyfitter_cfg.c **** 
 225:Generated_Source\PSoC4/cyfitter_cfg.c **** 	/* Setup and trim IMO based on desired frequency. */
 226:Generated_Source\PSoC4/cyfitter_cfg.c **** 	CySysClkWriteImoFreq(48u);
 227:Generated_Source\PSoC4/cyfitter_cfg.c **** 	/* CYDEV_CLK_ILO_CONFIG Starting address: CYDEV_CLK_ILO_CONFIG */
 228:Generated_Source\PSoC4/cyfitter_cfg.c **** 	CY_SET_REG32((void *)(CYREG_CLK_ILO_CONFIG), 0x80000006u);
 229:Generated_Source\PSoC4/cyfitter_cfg.c **** 
 230:Generated_Source\PSoC4/cyfitter_cfg.c **** 	/* CYDEV_WDT_CONFIG Starting address: CYDEV_WDT_CONFIG */
 231:Generated_Source\PSoC4/cyfitter_cfg.c **** 	CY_SET_REG32((void *)(CYREG_WDT_CONFIG), 0x40000000u);
 232:Generated_Source\PSoC4/cyfitter_cfg.c **** 
 233:Generated_Source\PSoC4/cyfitter_cfg.c **** 
 234:Generated_Source\PSoC4/cyfitter_cfg.c **** 	/* Enable fast start mode for XO */
 235:Generated_Source\PSoC4/cyfitter_cfg.c **** 	CY_SET_REG32((void*)CYREG_BLE_BLERD_BB_XO, CY_GET_REG32((void*)CYREG_BLE_BLERD_BB_XO) | (uint32)0x
 236:Generated_Source\PSoC4/cyfitter_cfg.c **** 	CY_SET_REG32((void *)(CYREG_BLE_BLERD_BB_XO_CAPTRIM), 0x00003E2Du);
ARM GAS  C:\Users\Jacob\AppData\Local\Temp\ccaC8eHj.s 			page 7


 237:Generated_Source\PSoC4/cyfitter_cfg.c **** 	/*Set XTAL(ECO) divider*/
 238:Generated_Source\PSoC4/cyfitter_cfg.c **** 	CY_SET_REG32((void *)(CYREG_BLE_BLESS_XTAL_CLK_DIV_CONFIG), 0x00000000u);
 239:Generated_Source\PSoC4/cyfitter_cfg.c **** 	/* Disable Crystal Stable Interrupt before enabling ECO */
 240:Generated_Source\PSoC4/cyfitter_cfg.c **** 	CY_SET_REG32((void*)CYREG_BLE_BLESS_LL_DSM_CTRL, CY_GET_REG32((void*)CYREG_BLE_BLESS_LL_DSM_CTRL) 
 241:Generated_Source\PSoC4/cyfitter_cfg.c **** 	/* Start the ECO and do not check status since it is not needed for HFCLK */
 242:Generated_Source\PSoC4/cyfitter_cfg.c **** 	(void)CySysClkEcoStart(2000u);
 243:Generated_Source\PSoC4/cyfitter_cfg.c **** 	CyDelayUs(1500u); /* Wait to stabilize */
 244:Generated_Source\PSoC4/cyfitter_cfg.c **** 
 245:Generated_Source\PSoC4/cyfitter_cfg.c **** 	/* Setup phase aligned clocks */
 246:Generated_Source\PSoC4/cyfitter_cfg.c **** 	CY_SET_REG32((void *)CYREG_PERI_DIV_16_CTL0, 0x00027000u);
 247:Generated_Source\PSoC4/cyfitter_cfg.c **** 	CY_SET_REG32((void *)CYREG_PERI_DIV_CMD, 0x8000FF40u);
 248:Generated_Source\PSoC4/cyfitter_cfg.c **** 
 249:Generated_Source\PSoC4/cyfitter_cfg.c **** 	/* CYDEV_CLK_IMO_CONFIG Starting address: CYDEV_CLK_IMO_CONFIG */
 250:Generated_Source\PSoC4/cyfitter_cfg.c **** 	CY_SET_REG32((void *)(CYREG_CLK_IMO_CONFIG), 0x80000000u);
 251:Generated_Source\PSoC4/cyfitter_cfg.c **** 
 252:Generated_Source\PSoC4/cyfitter_cfg.c **** 	/* CYDEV_CLK_SELECT Starting address: CYDEV_CLK_SELECT */
 253:Generated_Source\PSoC4/cyfitter_cfg.c **** 	CY_SET_REG32((void *)(CYREG_CLK_SELECT), 0x00040000u);
 254:Generated_Source\PSoC4/cyfitter_cfg.c **** 
 255:Generated_Source\PSoC4/cyfitter_cfg.c **** 	/* CYDEV_PERI_PCLK_CTL11 Starting address: CYDEV_PERI_PCLK_CTL11 */
 256:Generated_Source\PSoC4/cyfitter_cfg.c **** 	CY_SET_REG32((void *)(CYREG_PERI_PCLK_CTL11), 0x00000040u);
 257:Generated_Source\PSoC4/cyfitter_cfg.c **** 
 258:Generated_Source\PSoC4/cyfitter_cfg.c **** 	(void)CyIntSetVector(8u, &CySysWdtIsr);
 259:Generated_Source\PSoC4/cyfitter_cfg.c **** 	CyIntEnable(8u);
 260:Generated_Source\PSoC4/cyfitter_cfg.c **** 	CY_SET_REG32((void *)(CYREG_WDT_CONFIG), 0x40000000u);
 261:Generated_Source\PSoC4/cyfitter_cfg.c **** }
 262:Generated_Source\PSoC4/cyfitter_cfg.c **** 
 263:Generated_Source\PSoC4/cyfitter_cfg.c **** 
 264:Generated_Source\PSoC4/cyfitter_cfg.c **** /* Analog API Functions */
 265:Generated_Source\PSoC4/cyfitter_cfg.c **** 
 266:Generated_Source\PSoC4/cyfitter_cfg.c **** 
 267:Generated_Source\PSoC4/cyfitter_cfg.c **** /*******************************************************************************
 268:Generated_Source\PSoC4/cyfitter_cfg.c **** * Function Name: AnalogSetDefault
 269:Generated_Source\PSoC4/cyfitter_cfg.c **** ********************************************************************************
 270:Generated_Source\PSoC4/cyfitter_cfg.c **** *
 271:Generated_Source\PSoC4/cyfitter_cfg.c **** * Summary:
 272:Generated_Source\PSoC4/cyfitter_cfg.c **** *  Sets up the analog portions of the chip to default values based on chip
 273:Generated_Source\PSoC4/cyfitter_cfg.c **** *  configuration options from the project.
 274:Generated_Source\PSoC4/cyfitter_cfg.c **** *
 275:Generated_Source\PSoC4/cyfitter_cfg.c **** * Parameters:
 276:Generated_Source\PSoC4/cyfitter_cfg.c **** *  void
 277:Generated_Source\PSoC4/cyfitter_cfg.c **** *
 278:Generated_Source\PSoC4/cyfitter_cfg.c **** * Return:
 279:Generated_Source\PSoC4/cyfitter_cfg.c **** *  void
 280:Generated_Source\PSoC4/cyfitter_cfg.c **** *
 281:Generated_Source\PSoC4/cyfitter_cfg.c **** *******************************************************************************/
 282:Generated_Source\PSoC4/cyfitter_cfg.c **** static void AnalogSetDefault(void);
 283:Generated_Source\PSoC4/cyfitter_cfg.c **** static void AnalogSetDefault(void)
 284:Generated_Source\PSoC4/cyfitter_cfg.c **** {
 104              		.loc 1 284 0
 105              		.cfi_startproc
 106              		@ args = 0, pretend = 0, frame = 0
 107              		@ frame_needed = 0, uses_anonymous_args = 0
 108              		@ link register save eliminated.
 285:Generated_Source\PSoC4/cyfitter_cfg.c **** 	CY_SET_XTND_REG32((void CYFAR *)CYREG_CTBM0_DFT_CTRL, 0x00000003u);
 109              		.loc 1 285 0
 110 0000 0323     		movs	r3, #3
 111 0002 044A     		ldr	r2, .L7
ARM GAS  C:\Users\Jacob\AppData\Local\Temp\ccaC8eHj.s 			page 8


 112 0004 1360     		str	r3, [r2]
 286:Generated_Source\PSoC4/cyfitter_cfg.c **** 	CY_SET_XTND_REG32((void CYFAR *)CYREG_CTBM1_DFT_CTRL, 0x00000003u);
 113              		.loc 1 286 0
 114 0006 044A     		ldr	r2, .L7+4
 115 0008 1360     		str	r3, [r2]
 287:Generated_Source\PSoC4/cyfitter_cfg.c **** 	CY_SET_XTND_REG32((void CYFAR *)CYREG_PASS_DSAB_DSAB_CTRL, 0x00000000u);
 116              		.loc 1 287 0
 117 000a 0022     		movs	r2, #0
 118 000c 034B     		ldr	r3, .L7+8
 119 000e 1A60     		str	r2, [r3]
 288:Generated_Source\PSoC4/cyfitter_cfg.c **** }
 120              		.loc 1 288 0
 121              		@ sp needed
 122 0010 7047     		bx	lr
 123              	.L8:
 124 0012 C046     		.align	2
 125              	.L7:
 126 0014 30003040 		.word	1076887600
 127 0018 30003140 		.word	1076953136
 128 001c 000E3F40 		.word	1077874176
 129              		.cfi_endproc
 130              	.LFE7:
 131              		.size	AnalogSetDefault, .-AnalogSetDefault
 132              		.section	.text.CYMEMZERO,"ax",%progbits
 133              		.align	2
 134              		.code	16
 135              		.thumb_func
 136              		.type	CYMEMZERO, %function
 137              	CYMEMZERO:
 138              	.LFB2:
  77:Generated_Source\PSoC4/cyfitter_cfg.c **** 	(void)memset(s, 0, n);
 139              		.loc 1 77 0
 140              		.cfi_startproc
 141              		@ args = 0, pretend = 0, frame = 0
 142              		@ frame_needed = 0, uses_anonymous_args = 0
 143              	.LVL12:
 144 0000 10B5     		push	{r4, lr}
 145              		.cfi_def_cfa_offset 8
 146              		.cfi_offset 4, -8
 147              		.cfi_offset 14, -4
 148 0002 0A00     		movs	r2, r1
  78:Generated_Source\PSoC4/cyfitter_cfg.c **** }
 149              		.loc 1 78 0
 150 0004 0021     		movs	r1, #0
 151              	.LVL13:
 152 0006 FFF7FEFF 		bl	memset
 153              	.LVL14:
  79:Generated_Source\PSoC4/cyfitter_cfg.c **** CY_CFG_UNUSED
 154              		.loc 1 79 0
 155              		@ sp needed
 156 000a 10BD     		pop	{r4, pc}
 157              		.cfi_endproc
 158              	.LFE2:
 159              		.size	CYMEMZERO, .-CYMEMZERO
 160              		.section	.text.CYCONFIGCPYCODE,"ax",%progbits
 161              		.align	2
 162              		.code	16
ARM GAS  C:\Users\Jacob\AppData\Local\Temp\ccaC8eHj.s 			page 9


 163              		.thumb_func
 164              		.type	CYCONFIGCPYCODE, %function
 165              	CYCONFIGCPYCODE:
 166              	.LFB4:
  91:Generated_Source\PSoC4/cyfitter_cfg.c **** 	(void)memcpy(dest, src, n);
 167              		.loc 1 91 0
 168              		.cfi_startproc
 169              		@ args = 0, pretend = 0, frame = 0
 170              		@ frame_needed = 0, uses_anonymous_args = 0
 171              	.LVL15:
 172 0000 10B5     		push	{r4, lr}
 173              		.cfi_def_cfa_offset 8
 174              		.cfi_offset 4, -8
 175              		.cfi_offset 14, -4
  92:Generated_Source\PSoC4/cyfitter_cfg.c **** }
 176              		.loc 1 92 0
 177 0002 FFF7FEFF 		bl	memcpy
 178              	.LVL16:
  93:Generated_Source\PSoC4/cyfitter_cfg.c **** 
 179              		.loc 1 93 0
 180              		@ sp needed
 181 0006 10BD     		pop	{r4, pc}
 182              		.cfi_endproc
 183              	.LFE4:
 184              		.size	CYCONFIGCPYCODE, .-CYCONFIGCPYCODE
 185              		.section	.psocinit,"ax",%progbits
 186              		.align	2
 187              		.code	16
 188              		.thumb_func
 189              		.type	ClockSetup, %function
 190              	ClockSetup:
 191              	.LFB6:
 215:Generated_Source\PSoC4/cyfitter_cfg.c **** 
 192              		.loc 1 215 0
 193              		.cfi_startproc
 194              		@ args = 0, pretend = 0, frame = 0
 195              		@ frame_needed = 0, uses_anonymous_args = 0
 196 0000 70B5     		push	{r4, r5, r6, lr}
 197              		.cfi_def_cfa_offset 16
 198              		.cfi_offset 4, -16
 199              		.cfi_offset 5, -12
 200              		.cfi_offset 6, -8
 201              		.cfi_offset 14, -4
 218:Generated_Source\PSoC4/cyfitter_cfg.c **** 
 202              		.loc 1 218 0
 203 0002 1222     		movs	r2, #18
 204 0004 224B     		ldr	r3, .L12
 205 0006 1A60     		str	r2, [r3]
 221:Generated_Source\PSoC4/cyfitter_cfg.c **** 	CyDelayCycles(12000000u); /* WCO may take up to 500ms to start */
 206              		.loc 1 221 0
 207 0008 FFF7FEFF 		bl	CySysClkWcoStart
 208              	.LVL17:
 222:Generated_Source\PSoC4/cyfitter_cfg.c **** 	(void)CySysClkWcoSetPowerMode(CY_SYS_CLK_WCO_LPM);    /* Switch to the low power mode */
 209              		.loc 1 222 0
 210 000c 2148     		ldr	r0, .L12+4
 211 000e FFF7FEFF 		bl	CyDelayCycles
 212              	.LVL18:
ARM GAS  C:\Users\Jacob\AppData\Local\Temp\ccaC8eHj.s 			page 10


 223:Generated_Source\PSoC4/cyfitter_cfg.c **** 
 213              		.loc 1 223 0
 214 0012 0120     		movs	r0, #1
 215 0014 FFF7FEFF 		bl	CySysClkWcoSetPowerMode
 216              	.LVL19:
 226:Generated_Source\PSoC4/cyfitter_cfg.c **** 	/* CYDEV_CLK_ILO_CONFIG Starting address: CYDEV_CLK_ILO_CONFIG */
 217              		.loc 1 226 0
 218 0018 3020     		movs	r0, #48
 219 001a FFF7FEFF 		bl	CySysClkWriteImoFreq
 220              	.LVL20:
 228:Generated_Source\PSoC4/cyfitter_cfg.c **** 
 221              		.loc 1 228 0
 222 001e 1E4A     		ldr	r2, .L12+8
 223 0020 1E4B     		ldr	r3, .L12+12
 224 0022 1A60     		str	r2, [r3]
 231:Generated_Source\PSoC4/cyfitter_cfg.c **** 
 225              		.loc 1 231 0
 226 0024 1E4C     		ldr	r4, .L12+16
 227 0026 8025     		movs	r5, #128
 228 0028 ED05     		lsls	r5, r5, #23
 229 002a 2560     		str	r5, [r4]
 235:Generated_Source\PSoC4/cyfitter_cfg.c **** 	CY_SET_REG32((void *)(CYREG_BLE_BLERD_BB_XO_CAPTRIM), 0x00003E2Du);
 230              		.loc 1 235 0
 231 002c 1D4A     		ldr	r2, .L12+20
 232 002e 1168     		ldr	r1, [r2]
 233 0030 0223     		movs	r3, #2
 234 0032 0B43     		orrs	r3, r1
 235 0034 1360     		str	r3, [r2]
 236:Generated_Source\PSoC4/cyfitter_cfg.c **** 	/*Set XTAL(ECO) divider*/
 236              		.loc 1 236 0
 237 0036 1C4A     		ldr	r2, .L12+24
 238 0038 1C4B     		ldr	r3, .L12+28
 239 003a 1A60     		str	r2, [r3]
 238:Generated_Source\PSoC4/cyfitter_cfg.c **** 	/* Disable Crystal Stable Interrupt before enabling ECO */
 240              		.loc 1 238 0
 241 003c 0022     		movs	r2, #0
 242 003e 1C4B     		ldr	r3, .L12+32
 243 0040 1A60     		str	r2, [r3]
 240:Generated_Source\PSoC4/cyfitter_cfg.c **** 	/* Start the ECO and do not check status since it is not needed for HFCLK */
 244              		.loc 1 240 0
 245 0042 1C4A     		ldr	r2, .L12+36
 246 0044 1368     		ldr	r3, [r2]
 247 0046 0821     		movs	r1, #8
 248 0048 8B43     		bics	r3, r1
 249 004a 1360     		str	r3, [r2]
 242:Generated_Source\PSoC4/cyfitter_cfg.c **** 	CyDelayUs(1500u); /* Wait to stabilize */
 250              		.loc 1 242 0
 251 004c FA20     		movs	r0, #250
 252 004e C000     		lsls	r0, r0, #3
 253 0050 FFF7FEFF 		bl	CySysClkEcoStart
 254              	.LVL21:
 243:Generated_Source\PSoC4/cyfitter_cfg.c **** 
 255              		.loc 1 243 0
 256 0054 1848     		ldr	r0, .L12+40
 257 0056 FFF7FEFF 		bl	CyDelayUs
 258              	.LVL22:
 246:Generated_Source\PSoC4/cyfitter_cfg.c **** 	CY_SET_REG32((void *)CYREG_PERI_DIV_CMD, 0x8000FF40u);
ARM GAS  C:\Users\Jacob\AppData\Local\Temp\ccaC8eHj.s 			page 11


 259              		.loc 1 246 0
 260 005a 9C22     		movs	r2, #156
 261 005c 9202     		lsls	r2, r2, #10
 262 005e 174B     		ldr	r3, .L12+44
 263 0060 1A60     		str	r2, [r3]
 247:Generated_Source\PSoC4/cyfitter_cfg.c **** 
 264              		.loc 1 247 0
 265 0062 174A     		ldr	r2, .L12+48
 266 0064 174B     		ldr	r3, .L12+52
 267 0066 1A60     		str	r2, [r3]
 250:Generated_Source\PSoC4/cyfitter_cfg.c **** 
 268              		.loc 1 250 0
 269 0068 8022     		movs	r2, #128
 270 006a 1206     		lsls	r2, r2, #24
 271 006c 164B     		ldr	r3, .L12+56
 272 006e 1A60     		str	r2, [r3]
 253:Generated_Source\PSoC4/cyfitter_cfg.c **** 
 273              		.loc 1 253 0
 274 0070 8022     		movs	r2, #128
 275 0072 D202     		lsls	r2, r2, #11
 276 0074 154B     		ldr	r3, .L12+60
 277 0076 1A60     		str	r2, [r3]
 256:Generated_Source\PSoC4/cyfitter_cfg.c **** 
 278              		.loc 1 256 0
 279 0078 4022     		movs	r2, #64
 280 007a 154B     		ldr	r3, .L12+64
 281 007c 1A60     		str	r2, [r3]
 258:Generated_Source\PSoC4/cyfitter_cfg.c **** 	CyIntEnable(8u);
 282              		.loc 1 258 0
 283 007e 1549     		ldr	r1, .L12+68
 284 0080 0820     		movs	r0, #8
 285 0082 FFF7FEFF 		bl	CyIntSetVector
 286              	.LVL23:
 259:Generated_Source\PSoC4/cyfitter_cfg.c **** 	CY_SET_REG32((void *)(CYREG_WDT_CONFIG), 0x40000000u);
 287              		.loc 1 259 0
 288 0086 0820     		movs	r0, #8
 289 0088 FFF7FEFF 		bl	CyIntEnable
 290              	.LVL24:
 260:Generated_Source\PSoC4/cyfitter_cfg.c **** }
 291              		.loc 1 260 0
 292 008c 2560     		str	r5, [r4]
 261:Generated_Source\PSoC4/cyfitter_cfg.c **** 
 293              		.loc 1 261 0
 294              		@ sp needed
 295 008e 70BD     		pop	{r4, r5, r6, pc}
 296              	.L13:
 297              		.align	2
 298              	.L12:
 299 0090 30001040 		.word	1074790448
 300 0094 001BB700 		.word	12000000
 301 0098 06000080 		.word	-2147483642
 302 009c 04010B40 		.word	1074462980
 303 00a0 0C020B40 		.word	1074463244
 304 00a4 78002E40 		.word	1076756600
 305 00a8 2D3E0000 		.word	15917
 306 00ac 7C002E40 		.word	1076756604
 307 00b0 64F02E40 		.word	1076818020
ARM GAS  C:\Users\Jacob\AppData\Local\Temp\ccaC8eHj.s 			page 12


 308 00b4 6CF02E40 		.word	1076818028
 309 00b8 DC050000 		.word	1500
 310 00bc 00030140 		.word	1073808128
 311 00c0 40FF0080 		.word	-2147418304
 312 00c4 00000140 		.word	1073807360
 313 00c8 08010B40 		.word	1074462984
 314 00cc 00010B40 		.word	1074462976
 315 00d0 2C010140 		.word	1073807660
 316 00d4 00000000 		.word	CySysWdtIsr
 317              		.cfi_endproc
 318              	.LFE6:
 319              		.size	ClockSetup, .-ClockSetup
 320              		.align	2
 321              		.global	cyfitter_cfg
 322              		.code	16
 323              		.thumb_func
 324              		.type	cyfitter_cfg, %function
 325              	cyfitter_cfg:
 326              	.LFB8:
 289:Generated_Source\PSoC4/cyfitter_cfg.c **** 
 290:Generated_Source\PSoC4/cyfitter_cfg.c **** 
 291:Generated_Source\PSoC4/cyfitter_cfg.c **** 
 292:Generated_Source\PSoC4/cyfitter_cfg.c **** 
 293:Generated_Source\PSoC4/cyfitter_cfg.c **** /*******************************************************************************
 294:Generated_Source\PSoC4/cyfitter_cfg.c **** * Function Name: cyfitter_cfg
 295:Generated_Source\PSoC4/cyfitter_cfg.c **** ********************************************************************************
 296:Generated_Source\PSoC4/cyfitter_cfg.c **** * Summary:
 297:Generated_Source\PSoC4/cyfitter_cfg.c **** *  This function is called by the start-up code for the selected device. It
 298:Generated_Source\PSoC4/cyfitter_cfg.c **** *  performs all of the necessary device configuration based on the design
 299:Generated_Source\PSoC4/cyfitter_cfg.c **** *  settings.  This includes settings from the Design Wide Resources (DWR) such
 300:Generated_Source\PSoC4/cyfitter_cfg.c **** *  as Clocks and Pins as well as any component configuration that is necessary.
 301:Generated_Source\PSoC4/cyfitter_cfg.c **** *
 302:Generated_Source\PSoC4/cyfitter_cfg.c **** * Parameters:
 303:Generated_Source\PSoC4/cyfitter_cfg.c **** *   void
 304:Generated_Source\PSoC4/cyfitter_cfg.c **** *
 305:Generated_Source\PSoC4/cyfitter_cfg.c **** * Return:
 306:Generated_Source\PSoC4/cyfitter_cfg.c **** *   void
 307:Generated_Source\PSoC4/cyfitter_cfg.c **** *
 308:Generated_Source\PSoC4/cyfitter_cfg.c **** *******************************************************************************/
 309:Generated_Source\PSoC4/cyfitter_cfg.c **** CY_CFG_SECTION
 310:Generated_Source\PSoC4/cyfitter_cfg.c **** void cyfitter_cfg(void)
 311:Generated_Source\PSoC4/cyfitter_cfg.c **** {
 327              		.loc 1 311 0
 328              		.cfi_startproc
 329              		@ args = 0, pretend = 0, frame = 0
 330              		@ frame_needed = 0, uses_anonymous_args = 0
 331 00d8 70B5     		push	{r4, r5, r6, lr}
 332              		.cfi_def_cfa_offset 16
 333              		.cfi_offset 4, -16
 334              		.cfi_offset 5, -12
 335              		.cfi_offset 6, -8
 336              		.cfi_offset 14, -4
 312:Generated_Source\PSoC4/cyfitter_cfg.c **** 	/* Disable interrupts by default. Let user enable if/when they want. */
 313:Generated_Source\PSoC4/cyfitter_cfg.c **** 	CyGlobalIntDisable;
 337              		.loc 1 313 0
 338              		.syntax divided
 339              	@ 313 "Generated_Source\PSoC4\cyfitter_cfg.c" 1
ARM GAS  C:\Users\Jacob\AppData\Local\Temp\ccaC8eHj.s 			page 13


 340 00da 72B6     		CPSID   i
 341              	@ 0 "" 2
 314:Generated_Source\PSoC4/cyfitter_cfg.c **** 
 315:Generated_Source\PSoC4/cyfitter_cfg.c **** 	CY_SET_REG32((void *)(CYREG_BLE_BLESS_LL_DSM_CTRL), 0x00000000u);
 342              		.loc 1 315 0
 343              		.thumb
 344              		.syntax unified
 345 00dc 0022     		movs	r2, #0
 346 00de 304B     		ldr	r3, .L19
 347 00e0 1A60     		str	r2, [r3]
 348              	.LVL25:
 349              	.LBB3:
 316:Generated_Source\PSoC4/cyfitter_cfg.c **** 
 317:Generated_Source\PSoC4/cyfitter_cfg.c **** 	{
 318:Generated_Source\PSoC4/cyfitter_cfg.c **** 		static const uint32 CYCODE cy_cfg_addr_table[] = {
 319:Generated_Source\PSoC4/cyfitter_cfg.c **** 			0x400F0003u, /* Base address: 0x400F0000 Count: 3 */
 320:Generated_Source\PSoC4/cyfitter_cfg.c **** 			0x400F3012u, /* Base address: 0x400F3000 Count: 18 */
 321:Generated_Source\PSoC4/cyfitter_cfg.c **** 			0x400F3135u, /* Base address: 0x400F3100 Count: 53 */
 322:Generated_Source\PSoC4/cyfitter_cfg.c **** 			0x400F3269u, /* Base address: 0x400F3200 Count: 105 */
 323:Generated_Source\PSoC4/cyfitter_cfg.c **** 			0x400F3356u, /* Base address: 0x400F3300 Count: 86 */
 324:Generated_Source\PSoC4/cyfitter_cfg.c **** 			0x400F4006u, /* Base address: 0x400F4000 Count: 6 */
 325:Generated_Source\PSoC4/cyfitter_cfg.c **** 			0x400F4102u, /* Base address: 0x400F4100 Count: 2 */
 326:Generated_Source\PSoC4/cyfitter_cfg.c **** 			0x400F6002u, /* Base address: 0x400F6000 Count: 2 */
 327:Generated_Source\PSoC4/cyfitter_cfg.c **** 		};
 328:Generated_Source\PSoC4/cyfitter_cfg.c **** 
 329:Generated_Source\PSoC4/cyfitter_cfg.c **** 		static const cy_cfg_addrvalue_t CYCODE cy_cfg_data_table[] = {
 330:Generated_Source\PSoC4/cyfitter_cfg.c **** 			{0x80u, 0x38u},
 331:Generated_Source\PSoC4/cyfitter_cfg.c **** 			{0x81u, 0x72u},
 332:Generated_Source\PSoC4/cyfitter_cfg.c **** 			{0x82u, 0x0Fu},
 333:Generated_Source\PSoC4/cyfitter_cfg.c **** 			{0x01u, 0x01u},
 334:Generated_Source\PSoC4/cyfitter_cfg.c **** 			{0x02u, 0x01u},
 335:Generated_Source\PSoC4/cyfitter_cfg.c **** 			{0x04u, 0x04u},
 336:Generated_Source\PSoC4/cyfitter_cfg.c **** 			{0x0Eu, 0x02u},
 337:Generated_Source\PSoC4/cyfitter_cfg.c **** 			{0x12u, 0x02u},
 338:Generated_Source\PSoC4/cyfitter_cfg.c **** 			{0x2Eu, 0x01u},
 339:Generated_Source\PSoC4/cyfitter_cfg.c **** 			{0x30u, 0x02u},
 340:Generated_Source\PSoC4/cyfitter_cfg.c **** 			{0x32u, 0x04u},
 341:Generated_Source\PSoC4/cyfitter_cfg.c **** 			{0x33u, 0x01u},
 342:Generated_Source\PSoC4/cyfitter_cfg.c **** 			{0x34u, 0x01u},
 343:Generated_Source\PSoC4/cyfitter_cfg.c **** 			{0x3Au, 0x80u},
 344:Generated_Source\PSoC4/cyfitter_cfg.c **** 			{0x3Eu, 0x15u},
 345:Generated_Source\PSoC4/cyfitter_cfg.c **** 			{0x3Fu, 0x04u},
 346:Generated_Source\PSoC4/cyfitter_cfg.c **** 			{0x54u, 0x18u},
 347:Generated_Source\PSoC4/cyfitter_cfg.c **** 			{0x58u, 0x04u},
 348:Generated_Source\PSoC4/cyfitter_cfg.c **** 			{0x59u, 0x04u},
 349:Generated_Source\PSoC4/cyfitter_cfg.c **** 			{0x5Bu, 0x04u},
 350:Generated_Source\PSoC4/cyfitter_cfg.c **** 			{0x5Fu, 0x01u},
 351:Generated_Source\PSoC4/cyfitter_cfg.c **** 			{0x00u, 0x80u},
 352:Generated_Source\PSoC4/cyfitter_cfg.c **** 			{0x02u, 0x90u},
 353:Generated_Source\PSoC4/cyfitter_cfg.c **** 			{0x05u, 0xA1u},
 354:Generated_Source\PSoC4/cyfitter_cfg.c **** 			{0x06u, 0x20u},
 355:Generated_Source\PSoC4/cyfitter_cfg.c **** 			{0x09u, 0x02u},
 356:Generated_Source\PSoC4/cyfitter_cfg.c **** 			{0x0Cu, 0x10u},
 357:Generated_Source\PSoC4/cyfitter_cfg.c **** 			{0x0Eu, 0x22u},
 358:Generated_Source\PSoC4/cyfitter_cfg.c **** 			{0x10u, 0x02u},
 359:Generated_Source\PSoC4/cyfitter_cfg.c **** 			{0x16u, 0x82u},
 360:Generated_Source\PSoC4/cyfitter_cfg.c **** 			{0x17u, 0x28u},
ARM GAS  C:\Users\Jacob\AppData\Local\Temp\ccaC8eHj.s 			page 14


 361:Generated_Source\PSoC4/cyfitter_cfg.c **** 			{0x18u, 0x04u},
 362:Generated_Source\PSoC4/cyfitter_cfg.c **** 			{0x19u, 0x88u},
 363:Generated_Source\PSoC4/cyfitter_cfg.c **** 			{0x1Bu, 0x01u},
 364:Generated_Source\PSoC4/cyfitter_cfg.c **** 			{0x1Du, 0x22u},
 365:Generated_Source\PSoC4/cyfitter_cfg.c **** 			{0x1Eu, 0x01u},
 366:Generated_Source\PSoC4/cyfitter_cfg.c **** 			{0x1Fu, 0x28u},
 367:Generated_Source\PSoC4/cyfitter_cfg.c **** 			{0x23u, 0x10u},
 368:Generated_Source\PSoC4/cyfitter_cfg.c **** 			{0x24u, 0x10u},
 369:Generated_Source\PSoC4/cyfitter_cfg.c **** 			{0x25u, 0x10u},
 370:Generated_Source\PSoC4/cyfitter_cfg.c **** 			{0x26u, 0x82u},
 371:Generated_Source\PSoC4/cyfitter_cfg.c **** 			{0x2Du, 0x80u},
 372:Generated_Source\PSoC4/cyfitter_cfg.c **** 			{0x2Fu, 0x28u},
 373:Generated_Source\PSoC4/cyfitter_cfg.c **** 			{0x36u, 0x02u},
 374:Generated_Source\PSoC4/cyfitter_cfg.c **** 			{0x37u, 0x28u},
 375:Generated_Source\PSoC4/cyfitter_cfg.c **** 			{0x38u, 0x01u},
 376:Generated_Source\PSoC4/cyfitter_cfg.c **** 			{0x3Du, 0x28u},
 377:Generated_Source\PSoC4/cyfitter_cfg.c **** 			{0x3Eu, 0x02u},
 378:Generated_Source\PSoC4/cyfitter_cfg.c **** 			{0x3Fu, 0x80u},
 379:Generated_Source\PSoC4/cyfitter_cfg.c **** 			{0x44u, 0x10u},
 380:Generated_Source\PSoC4/cyfitter_cfg.c **** 			{0x45u, 0x26u},
 381:Generated_Source\PSoC4/cyfitter_cfg.c **** 			{0x47u, 0x40u},
 382:Generated_Source\PSoC4/cyfitter_cfg.c **** 			{0x4Du, 0x80u},
 383:Generated_Source\PSoC4/cyfitter_cfg.c **** 			{0x54u, 0x42u},
 384:Generated_Source\PSoC4/cyfitter_cfg.c **** 			{0x5Au, 0x01u},
 385:Generated_Source\PSoC4/cyfitter_cfg.c **** 			{0x5Cu, 0x10u},
 386:Generated_Source\PSoC4/cyfitter_cfg.c **** 			{0x60u, 0x04u},
 387:Generated_Source\PSoC4/cyfitter_cfg.c **** 			{0x63u, 0x02u},
 388:Generated_Source\PSoC4/cyfitter_cfg.c **** 			{0x6Cu, 0x20u},
 389:Generated_Source\PSoC4/cyfitter_cfg.c **** 			{0x6Du, 0x10u},
 390:Generated_Source\PSoC4/cyfitter_cfg.c **** 			{0x6Fu, 0x01u},
 391:Generated_Source\PSoC4/cyfitter_cfg.c **** 			{0x76u, 0x02u},
 392:Generated_Source\PSoC4/cyfitter_cfg.c **** 			{0x77u, 0x28u},
 393:Generated_Source\PSoC4/cyfitter_cfg.c **** 			{0x87u, 0x10u},
 394:Generated_Source\PSoC4/cyfitter_cfg.c **** 			{0xC0u, 0xFDu},
 395:Generated_Source\PSoC4/cyfitter_cfg.c **** 			{0xC2u, 0xE8u},
 396:Generated_Source\PSoC4/cyfitter_cfg.c **** 			{0xC4u, 0xF1u},
 397:Generated_Source\PSoC4/cyfitter_cfg.c **** 			{0xCAu, 0x70u},
 398:Generated_Source\PSoC4/cyfitter_cfg.c **** 			{0xCCu, 0xE0u},
 399:Generated_Source\PSoC4/cyfitter_cfg.c **** 			{0xCEu, 0xF1u},
 400:Generated_Source\PSoC4/cyfitter_cfg.c **** 			{0xD0u, 0xF0u},
 401:Generated_Source\PSoC4/cyfitter_cfg.c **** 			{0xD2u, 0x10u},
 402:Generated_Source\PSoC4/cyfitter_cfg.c **** 			{0xD6u, 0x21u},
 403:Generated_Source\PSoC4/cyfitter_cfg.c **** 			{0xD8u, 0x0Cu},
 404:Generated_Source\PSoC4/cyfitter_cfg.c **** 			{0x02u, 0x08u},
 405:Generated_Source\PSoC4/cyfitter_cfg.c **** 			{0x06u, 0x15u},
 406:Generated_Source\PSoC4/cyfitter_cfg.c **** 			{0x08u, 0x13u},
 407:Generated_Source\PSoC4/cyfitter_cfg.c **** 			{0x09u, 0x13u},
 408:Generated_Source\PSoC4/cyfitter_cfg.c **** 			{0x0Au, 0x04u},
 409:Generated_Source\PSoC4/cyfitter_cfg.c **** 			{0x0Cu, 0x40u},
 410:Generated_Source\PSoC4/cyfitter_cfg.c **** 			{0x0Du, 0x01u},
 411:Generated_Source\PSoC4/cyfitter_cfg.c **** 			{0x0Eu, 0x20u},
 412:Generated_Source\PSoC4/cyfitter_cfg.c **** 			{0x0Fu, 0x0Au},
 413:Generated_Source\PSoC4/cyfitter_cfg.c **** 			{0x10u, 0x0Au},
 414:Generated_Source\PSoC4/cyfitter_cfg.c **** 			{0x11u, 0x10u},
 415:Generated_Source\PSoC4/cyfitter_cfg.c **** 			{0x12u, 0x14u},
 416:Generated_Source\PSoC4/cyfitter_cfg.c **** 			{0x14u, 0x80u},
 417:Generated_Source\PSoC4/cyfitter_cfg.c **** 			{0x16u, 0x20u},
ARM GAS  C:\Users\Jacob\AppData\Local\Temp\ccaC8eHj.s 			page 15


 418:Generated_Source\PSoC4/cyfitter_cfg.c **** 			{0x18u, 0xE0u},
 419:Generated_Source\PSoC4/cyfitter_cfg.c **** 			{0x19u, 0x02u},
 420:Generated_Source\PSoC4/cyfitter_cfg.c **** 			{0x1Bu, 0x09u},
 421:Generated_Source\PSoC4/cyfitter_cfg.c **** 			{0x1Cu, 0x03u},
 422:Generated_Source\PSoC4/cyfitter_cfg.c **** 			{0x1Eu, 0x14u},
 423:Generated_Source\PSoC4/cyfitter_cfg.c **** 			{0x24u, 0x13u},
 424:Generated_Source\PSoC4/cyfitter_cfg.c **** 			{0x25u, 0x13u},
 425:Generated_Source\PSoC4/cyfitter_cfg.c **** 			{0x26u, 0x0Cu},
 426:Generated_Source\PSoC4/cyfitter_cfg.c **** 			{0x28u, 0xE0u},
 427:Generated_Source\PSoC4/cyfitter_cfg.c **** 			{0x2Bu, 0x04u},
 428:Generated_Source\PSoC4/cyfitter_cfg.c **** 			{0x2Cu, 0x20u},
 429:Generated_Source\PSoC4/cyfitter_cfg.c **** 			{0x2Eu, 0xC0u},
 430:Generated_Source\PSoC4/cyfitter_cfg.c **** 			{0x30u, 0x10u},
 431:Generated_Source\PSoC4/cyfitter_cfg.c **** 			{0x31u, 0x0Cu},
 432:Generated_Source\PSoC4/cyfitter_cfg.c **** 			{0x32u, 0xE0u},
 433:Generated_Source\PSoC4/cyfitter_cfg.c **** 			{0x33u, 0x10u},
 434:Generated_Source\PSoC4/cyfitter_cfg.c **** 			{0x34u, 0x0Fu},
 435:Generated_Source\PSoC4/cyfitter_cfg.c **** 			{0x35u, 0x03u},
 436:Generated_Source\PSoC4/cyfitter_cfg.c **** 			{0x3Au, 0x20u},
 437:Generated_Source\PSoC4/cyfitter_cfg.c **** 			{0x3Eu, 0x01u},
 438:Generated_Source\PSoC4/cyfitter_cfg.c **** 			{0x3Fu, 0x01u},
 439:Generated_Source\PSoC4/cyfitter_cfg.c **** 			{0x40u, 0x32u},
 440:Generated_Source\PSoC4/cyfitter_cfg.c **** 			{0x41u, 0x06u},
 441:Generated_Source\PSoC4/cyfitter_cfg.c **** 			{0x46u, 0xEBu},
 442:Generated_Source\PSoC4/cyfitter_cfg.c **** 			{0x47u, 0xC0u},
 443:Generated_Source\PSoC4/cyfitter_cfg.c **** 			{0x48u, 0x2Cu},
 444:Generated_Source\PSoC4/cyfitter_cfg.c **** 			{0x49u, 0xFFu},
 445:Generated_Source\PSoC4/cyfitter_cfg.c **** 			{0x4Au, 0xFFu},
 446:Generated_Source\PSoC4/cyfitter_cfg.c **** 			{0x4Bu, 0xFFu},
 447:Generated_Source\PSoC4/cyfitter_cfg.c **** 			{0x4Eu, 0xF0u},
 448:Generated_Source\PSoC4/cyfitter_cfg.c **** 			{0x4Fu, 0x44u},
 449:Generated_Source\PSoC4/cyfitter_cfg.c **** 			{0x50u, 0x0Cu},
 450:Generated_Source\PSoC4/cyfitter_cfg.c **** 			{0x54u, 0x01u},
 451:Generated_Source\PSoC4/cyfitter_cfg.c **** 			{0x58u, 0x04u},
 452:Generated_Source\PSoC4/cyfitter_cfg.c **** 			{0x59u, 0x04u},
 453:Generated_Source\PSoC4/cyfitter_cfg.c **** 			{0x5Au, 0x04u},
 454:Generated_Source\PSoC4/cyfitter_cfg.c **** 			{0x5Bu, 0x04u},
 455:Generated_Source\PSoC4/cyfitter_cfg.c **** 			{0x5Fu, 0x01u},
 456:Generated_Source\PSoC4/cyfitter_cfg.c **** 			{0x66u, 0xC0u},
 457:Generated_Source\PSoC4/cyfitter_cfg.c **** 			{0x6Au, 0x40u},
 458:Generated_Source\PSoC4/cyfitter_cfg.c **** 			{0x6Bu, 0x02u},
 459:Generated_Source\PSoC4/cyfitter_cfg.c **** 			{0x82u, 0x03u},
 460:Generated_Source\PSoC4/cyfitter_cfg.c **** 			{0x83u, 0x08u},
 461:Generated_Source\PSoC4/cyfitter_cfg.c **** 			{0x84u, 0x10u},
 462:Generated_Source\PSoC4/cyfitter_cfg.c **** 			{0x85u, 0x80u},
 463:Generated_Source\PSoC4/cyfitter_cfg.c **** 			{0x86u, 0xACu},
 464:Generated_Source\PSoC4/cyfitter_cfg.c **** 			{0x87u, 0x13u},
 465:Generated_Source\PSoC4/cyfitter_cfg.c **** 			{0x89u, 0x71u},
 466:Generated_Source\PSoC4/cyfitter_cfg.c **** 			{0x8Bu, 0x06u},
 467:Generated_Source\PSoC4/cyfitter_cfg.c **** 			{0x8Fu, 0x0Cu},
 468:Generated_Source\PSoC4/cyfitter_cfg.c **** 			{0x90u, 0xDCu},
 469:Generated_Source\PSoC4/cyfitter_cfg.c **** 			{0x92u, 0x22u},
 470:Generated_Source\PSoC4/cyfitter_cfg.c **** 			{0x98u, 0x0Cu},
 471:Generated_Source\PSoC4/cyfitter_cfg.c **** 			{0x99u, 0x2Cu},
 472:Generated_Source\PSoC4/cyfitter_cfg.c **** 			{0x9Au, 0x71u},
 473:Generated_Source\PSoC4/cyfitter_cfg.c **** 			{0x9Bu, 0x43u},
 474:Generated_Source\PSoC4/cyfitter_cfg.c **** 			{0x9Cu, 0x10u},
ARM GAS  C:\Users\Jacob\AppData\Local\Temp\ccaC8eHj.s 			page 16


 475:Generated_Source\PSoC4/cyfitter_cfg.c **** 			{0x9Eu, 0x40u},
 476:Generated_Source\PSoC4/cyfitter_cfg.c **** 			{0xA0u, 0x14u},
 477:Generated_Source\PSoC4/cyfitter_cfg.c **** 			{0xA9u, 0x71u},
 478:Generated_Source\PSoC4/cyfitter_cfg.c **** 			{0xAAu, 0x20u},
 479:Generated_Source\PSoC4/cyfitter_cfg.c **** 			{0xABu, 0x0Eu},
 480:Generated_Source\PSoC4/cyfitter_cfg.c **** 			{0xACu, 0x09u},
 481:Generated_Source\PSoC4/cyfitter_cfg.c **** 			{0xAEu, 0xD0u},
 482:Generated_Source\PSoC4/cyfitter_cfg.c **** 			{0xB1u, 0xC0u},
 483:Generated_Source\PSoC4/cyfitter_cfg.c **** 			{0xB3u, 0x30u},
 484:Generated_Source\PSoC4/cyfitter_cfg.c **** 			{0xB4u, 0xE0u},
 485:Generated_Source\PSoC4/cyfitter_cfg.c **** 			{0xB5u, 0x0Fu},
 486:Generated_Source\PSoC4/cyfitter_cfg.c **** 			{0xB6u, 0x1Fu},
 487:Generated_Source\PSoC4/cyfitter_cfg.c **** 			{0xB9u, 0x0Au},
 488:Generated_Source\PSoC4/cyfitter_cfg.c **** 			{0xBAu, 0x20u},
 489:Generated_Source\PSoC4/cyfitter_cfg.c **** 			{0xBBu, 0x20u},
 490:Generated_Source\PSoC4/cyfitter_cfg.c **** 			{0xBFu, 0x04u},
 491:Generated_Source\PSoC4/cyfitter_cfg.c **** 			{0xC0u, 0x03u},
 492:Generated_Source\PSoC4/cyfitter_cfg.c **** 			{0xC5u, 0x40u},
 493:Generated_Source\PSoC4/cyfitter_cfg.c **** 			{0xC9u, 0xFFu},
 494:Generated_Source\PSoC4/cyfitter_cfg.c **** 			{0xCAu, 0x07u},
 495:Generated_Source\PSoC4/cyfitter_cfg.c **** 			{0xCBu, 0xFFu},
 496:Generated_Source\PSoC4/cyfitter_cfg.c **** 			{0xCCu, 0x40u},
 497:Generated_Source\PSoC4/cyfitter_cfg.c **** 			{0xCDu, 0x20u},
 498:Generated_Source\PSoC4/cyfitter_cfg.c **** 			{0xCEu, 0xF0u},
 499:Generated_Source\PSoC4/cyfitter_cfg.c **** 			{0xCFu, 0x05u},
 500:Generated_Source\PSoC4/cyfitter_cfg.c **** 			{0xD0u, 0x08u},
 501:Generated_Source\PSoC4/cyfitter_cfg.c **** 			{0xD8u, 0x04u},
 502:Generated_Source\PSoC4/cyfitter_cfg.c **** 			{0xD9u, 0x04u},
 503:Generated_Source\PSoC4/cyfitter_cfg.c **** 			{0xDAu, 0x04u},
 504:Generated_Source\PSoC4/cyfitter_cfg.c **** 			{0xDFu, 0x01u},
 505:Generated_Source\PSoC4/cyfitter_cfg.c **** 			{0xE0u, 0x40u},
 506:Generated_Source\PSoC4/cyfitter_cfg.c **** 			{0xE1u, 0xA8u},
 507:Generated_Source\PSoC4/cyfitter_cfg.c **** 			{0xE2u, 0x40u},
 508:Generated_Source\PSoC4/cyfitter_cfg.c **** 			{0xE3u, 0x20u},
 509:Generated_Source\PSoC4/cyfitter_cfg.c **** 			{0x00u, 0x01u},
 510:Generated_Source\PSoC4/cyfitter_cfg.c **** 			{0x03u, 0x20u},
 511:Generated_Source\PSoC4/cyfitter_cfg.c **** 			{0x04u, 0x08u},
 512:Generated_Source\PSoC4/cyfitter_cfg.c **** 			{0x05u, 0x10u},
 513:Generated_Source\PSoC4/cyfitter_cfg.c **** 			{0x06u, 0x01u},
 514:Generated_Source\PSoC4/cyfitter_cfg.c **** 			{0x07u, 0x80u},
 515:Generated_Source\PSoC4/cyfitter_cfg.c **** 			{0x0Au, 0x48u},
 516:Generated_Source\PSoC4/cyfitter_cfg.c **** 			{0x0Bu, 0x02u},
 517:Generated_Source\PSoC4/cyfitter_cfg.c **** 			{0x0Cu, 0x20u},
 518:Generated_Source\PSoC4/cyfitter_cfg.c **** 			{0x0Eu, 0x60u},
 519:Generated_Source\PSoC4/cyfitter_cfg.c **** 			{0x0Fu, 0x02u},
 520:Generated_Source\PSoC4/cyfitter_cfg.c **** 			{0x10u, 0x80u},
 521:Generated_Source\PSoC4/cyfitter_cfg.c **** 			{0x12u, 0x04u},
 522:Generated_Source\PSoC4/cyfitter_cfg.c **** 			{0x13u, 0x80u},
 523:Generated_Source\PSoC4/cyfitter_cfg.c **** 			{0x14u, 0x02u},
 524:Generated_Source\PSoC4/cyfitter_cfg.c **** 			{0x15u, 0x10u},
 525:Generated_Source\PSoC4/cyfitter_cfg.c **** 			{0x16u, 0x20u},
 526:Generated_Source\PSoC4/cyfitter_cfg.c **** 			{0x18u, 0x01u},
 527:Generated_Source\PSoC4/cyfitter_cfg.c **** 			{0x19u, 0x10u},
 528:Generated_Source\PSoC4/cyfitter_cfg.c **** 			{0x1Au, 0x08u},
 529:Generated_Source\PSoC4/cyfitter_cfg.c **** 			{0x1Cu, 0x40u},
 530:Generated_Source\PSoC4/cyfitter_cfg.c **** 			{0x1Fu, 0x38u},
 531:Generated_Source\PSoC4/cyfitter_cfg.c **** 			{0x21u, 0x24u},
ARM GAS  C:\Users\Jacob\AppData\Local\Temp\ccaC8eHj.s 			page 17


 532:Generated_Source\PSoC4/cyfitter_cfg.c **** 			{0x23u, 0xC0u},
 533:Generated_Source\PSoC4/cyfitter_cfg.c **** 			{0x25u, 0x04u},
 534:Generated_Source\PSoC4/cyfitter_cfg.c **** 			{0x26u, 0x30u},
 535:Generated_Source\PSoC4/cyfitter_cfg.c **** 			{0x27u, 0x40u},
 536:Generated_Source\PSoC4/cyfitter_cfg.c **** 			{0x29u, 0x10u},
 537:Generated_Source\PSoC4/cyfitter_cfg.c **** 			{0x2Cu, 0x20u},
 538:Generated_Source\PSoC4/cyfitter_cfg.c **** 			{0x2Du, 0x20u},
 539:Generated_Source\PSoC4/cyfitter_cfg.c **** 			{0x2Fu, 0x08u},
 540:Generated_Source\PSoC4/cyfitter_cfg.c **** 			{0x31u, 0x20u},
 541:Generated_Source\PSoC4/cyfitter_cfg.c **** 			{0x36u, 0x20u},
 542:Generated_Source\PSoC4/cyfitter_cfg.c **** 			{0x37u, 0x01u},
 543:Generated_Source\PSoC4/cyfitter_cfg.c **** 			{0x38u, 0x08u},
 544:Generated_Source\PSoC4/cyfitter_cfg.c **** 			{0x3Au, 0x20u},
 545:Generated_Source\PSoC4/cyfitter_cfg.c **** 			{0x3Bu, 0x62u},
 546:Generated_Source\PSoC4/cyfitter_cfg.c **** 			{0x3Du, 0x10u},
 547:Generated_Source\PSoC4/cyfitter_cfg.c **** 			{0x3Fu, 0x80u},
 548:Generated_Source\PSoC4/cyfitter_cfg.c **** 			{0x41u, 0x04u},
 549:Generated_Source\PSoC4/cyfitter_cfg.c **** 			{0x46u, 0x24u},
 550:Generated_Source\PSoC4/cyfitter_cfg.c **** 			{0x4Bu, 0x02u},
 551:Generated_Source\PSoC4/cyfitter_cfg.c **** 			{0x4Eu, 0x04u},
 552:Generated_Source\PSoC4/cyfitter_cfg.c **** 			{0x50u, 0x04u},
 553:Generated_Source\PSoC4/cyfitter_cfg.c **** 			{0x52u, 0x04u},
 554:Generated_Source\PSoC4/cyfitter_cfg.c **** 			{0x54u, 0x90u},
 555:Generated_Source\PSoC4/cyfitter_cfg.c **** 			{0x56u, 0x10u},
 556:Generated_Source\PSoC4/cyfitter_cfg.c **** 			{0x57u, 0x03u},
 557:Generated_Source\PSoC4/cyfitter_cfg.c **** 			{0x5Cu, 0x40u},
 558:Generated_Source\PSoC4/cyfitter_cfg.c **** 			{0x5Du, 0x08u},
 559:Generated_Source\PSoC4/cyfitter_cfg.c **** 			{0x5Eu, 0x01u},
 560:Generated_Source\PSoC4/cyfitter_cfg.c **** 			{0x5Fu, 0x10u},
 561:Generated_Source\PSoC4/cyfitter_cfg.c **** 			{0x84u, 0x10u},
 562:Generated_Source\PSoC4/cyfitter_cfg.c **** 			{0x86u, 0x01u},
 563:Generated_Source\PSoC4/cyfitter_cfg.c **** 			{0x8Bu, 0x12u},
 564:Generated_Source\PSoC4/cyfitter_cfg.c **** 			{0x8Cu, 0x02u},
 565:Generated_Source\PSoC4/cyfitter_cfg.c **** 			{0x8Du, 0x20u},
 566:Generated_Source\PSoC4/cyfitter_cfg.c **** 			{0x8Eu, 0x40u},
 567:Generated_Source\PSoC4/cyfitter_cfg.c **** 			{0x8Fu, 0x08u},
 568:Generated_Source\PSoC4/cyfitter_cfg.c **** 			{0x91u, 0x10u},
 569:Generated_Source\PSoC4/cyfitter_cfg.c **** 			{0x94u, 0x01u},
 570:Generated_Source\PSoC4/cyfitter_cfg.c **** 			{0x99u, 0x08u},
 571:Generated_Source\PSoC4/cyfitter_cfg.c **** 			{0x9Au, 0x01u},
 572:Generated_Source\PSoC4/cyfitter_cfg.c **** 			{0x9Bu, 0x01u},
 573:Generated_Source\PSoC4/cyfitter_cfg.c **** 			{0x9Du, 0x20u},
 574:Generated_Source\PSoC4/cyfitter_cfg.c **** 			{0x9Eu, 0x10u},
 575:Generated_Source\PSoC4/cyfitter_cfg.c **** 			{0x9Fu, 0x40u},
 576:Generated_Source\PSoC4/cyfitter_cfg.c **** 			{0xA0u, 0x20u},
 577:Generated_Source\PSoC4/cyfitter_cfg.c **** 			{0xA3u, 0x40u},
 578:Generated_Source\PSoC4/cyfitter_cfg.c **** 			{0xA5u, 0x04u},
 579:Generated_Source\PSoC4/cyfitter_cfg.c **** 			{0xA6u, 0x10u},
 580:Generated_Source\PSoC4/cyfitter_cfg.c **** 			{0xA9u, 0x10u},
 581:Generated_Source\PSoC4/cyfitter_cfg.c **** 			{0xAAu, 0xA1u},
 582:Generated_Source\PSoC4/cyfitter_cfg.c **** 			{0xABu, 0x40u},
 583:Generated_Source\PSoC4/cyfitter_cfg.c **** 			{0xB5u, 0x21u},
 584:Generated_Source\PSoC4/cyfitter_cfg.c **** 			{0xB6u, 0x01u},
 585:Generated_Source\PSoC4/cyfitter_cfg.c **** 			{0xB7u, 0x08u},
 586:Generated_Source\PSoC4/cyfitter_cfg.c **** 			{0xC0u, 0xFCu},
 587:Generated_Source\PSoC4/cyfitter_cfg.c **** 			{0xC2u, 0xFBu},
 588:Generated_Source\PSoC4/cyfitter_cfg.c **** 			{0xC4u, 0xEBu},
ARM GAS  C:\Users\Jacob\AppData\Local\Temp\ccaC8eHj.s 			page 18


 589:Generated_Source\PSoC4/cyfitter_cfg.c **** 			{0xCAu, 0x64u},
 590:Generated_Source\PSoC4/cyfitter_cfg.c **** 			{0xCCu, 0xA4u},
 591:Generated_Source\PSoC4/cyfitter_cfg.c **** 			{0xCEu, 0x3Fu},
 592:Generated_Source\PSoC4/cyfitter_cfg.c **** 			{0xD0u, 0x62u},
 593:Generated_Source\PSoC4/cyfitter_cfg.c **** 			{0xD2u, 0x20u},
 594:Generated_Source\PSoC4/cyfitter_cfg.c **** 			{0xD6u, 0xF0u},
 595:Generated_Source\PSoC4/cyfitter_cfg.c **** 			{0x0Au, 0x40u},
 596:Generated_Source\PSoC4/cyfitter_cfg.c **** 			{0x67u, 0x80u},
 597:Generated_Source\PSoC4/cyfitter_cfg.c **** 			{0x87u, 0x40u},
 598:Generated_Source\PSoC4/cyfitter_cfg.c **** 			{0xC2u, 0x10u},
 599:Generated_Source\PSoC4/cyfitter_cfg.c **** 			{0xD8u, 0x80u},
 600:Generated_Source\PSoC4/cyfitter_cfg.c **** 			{0xE2u, 0x10u},
 601:Generated_Source\PSoC4/cyfitter_cfg.c **** 			{0xAAu, 0x40u},
 602:Generated_Source\PSoC4/cyfitter_cfg.c **** 			{0xE8u, 0x20u},
 603:Generated_Source\PSoC4/cyfitter_cfg.c **** 			{0x10u, 0x01u},
 604:Generated_Source\PSoC4/cyfitter_cfg.c **** 			{0x11u, 0x01u},
 605:Generated_Source\PSoC4/cyfitter_cfg.c **** 		};
 606:Generated_Source\PSoC4/cyfitter_cfg.c **** 
 607:Generated_Source\PSoC4/cyfitter_cfg.c **** 
 608:Generated_Source\PSoC4/cyfitter_cfg.c **** 
 609:Generated_Source\PSoC4/cyfitter_cfg.c **** 		CYPACKED typedef struct {
 610:Generated_Source\PSoC4/cyfitter_cfg.c **** 			void CYFAR *address;
 611:Generated_Source\PSoC4/cyfitter_cfg.c **** 			uint16 size;
 612:Generated_Source\PSoC4/cyfitter_cfg.c **** 		} CYPACKED_ATTR cfg_memset_t;
 613:Generated_Source\PSoC4/cyfitter_cfg.c **** 
 614:Generated_Source\PSoC4/cyfitter_cfg.c **** 
 615:Generated_Source\PSoC4/cyfitter_cfg.c **** 		CYPACKED typedef struct {
 616:Generated_Source\PSoC4/cyfitter_cfg.c **** 			void CYFAR *dest;
 617:Generated_Source\PSoC4/cyfitter_cfg.c **** 			const void CYCODE *src;
 618:Generated_Source\PSoC4/cyfitter_cfg.c **** 			uint16 size;
 619:Generated_Source\PSoC4/cyfitter_cfg.c **** 		} CYPACKED_ATTR cfg_memcpy_t;
 620:Generated_Source\PSoC4/cyfitter_cfg.c **** 
 621:Generated_Source\PSoC4/cyfitter_cfg.c **** 		static const cfg_memset_t CYCODE cfg_memset_list[] = {
 622:Generated_Source\PSoC4/cyfitter_cfg.c **** 			/* address, size */
 623:Generated_Source\PSoC4/cyfitter_cfg.c **** 			{(void CYFAR *)(CYDEV_UDB_P0_U0_BASE), 128u},
 624:Generated_Source\PSoC4/cyfitter_cfg.c **** 			{(void CYFAR *)(CYDEV_UDB_P0_ROUTE_BASE), 768u},
 625:Generated_Source\PSoC4/cyfitter_cfg.c **** 			{(void CYFAR *)(CYDEV_UDB_DSI0_BASE), 1024u},
 626:Generated_Source\PSoC4/cyfitter_cfg.c **** 		};
 627:Generated_Source\PSoC4/cyfitter_cfg.c **** 
 628:Generated_Source\PSoC4/cyfitter_cfg.c **** 		/* UDB_0_1_1_CONFIG Address: CYDEV_UDB_P0_U1_BASE Size (bytes): 128 */
 629:Generated_Source\PSoC4/cyfitter_cfg.c **** 		static const uint8 CYCODE BS_UDB_0_1_1_CONFIG_VAL[] = {
 630:Generated_Source\PSoC4/cyfitter_cfg.c **** 			0xF3u, 0x10u, 0x0Cu, 0x00u, 0x41u, 0x00u, 0x00u, 0x03u, 0xC3u, 0x3Cu, 0x00u, 0x42u, 0xFFu, 0x04u
 631:Generated_Source\PSoC4/cyfitter_cfg.c **** 			0x00u, 0x00u, 0x00u, 0x04u, 0x82u, 0x08u, 0x00u, 0x00u, 0x00u, 0x18u, 0xF3u, 0x00u, 0x0Fu, 0x00u
 632:Generated_Source\PSoC4/cyfitter_cfg.c **** 			0x1Cu, 0x00u, 0xE3u, 0x00u, 0x04u, 0x67u, 0x00u, 0x18u, 0x0Cu, 0x3Cu, 0x00u, 0x41u, 0x08u, 0x7Fu
 633:Generated_Source\PSoC4/cyfitter_cfg.c **** 			0x1Cu, 0x80u, 0x2Cu, 0x20u, 0x0Fu, 0x1Fu, 0xC0u, 0x40u, 0x00u, 0x80u, 0x28u, 0x20u, 0x00u, 0x00u
 634:Generated_Source\PSoC4/cyfitter_cfg.c **** 			0x23u, 0x05u, 0x04u, 0x00u, 0x01u, 0x00u, 0x0Cu, 0xE0u, 0x24u, 0xFFu, 0xFFu, 0xFFu, 0x62u, 0xA0u
 635:Generated_Source\PSoC4/cyfitter_cfg.c **** 			0x0Cu, 0x00u, 0x00u, 0x00u, 0x00u, 0x00u, 0x02u, 0x11u, 0x04u, 0x04u, 0x04u, 0x04u, 0x00u, 0x00u
 636:Generated_Source\PSoC4/cyfitter_cfg.c **** 			0x00u, 0x00u, 0x00u, 0x00u, 0x00u, 0x00u, 0x40u, 0x02u, 0x00u, 0x10u, 0x30u, 0x10u, 0x00u, 0x10u
 637:Generated_Source\PSoC4/cyfitter_cfg.c **** 			0x00u, 0x00u, 0x00u, 0x00u, 0x00u, 0x00u, 0x00u, 0x00u, 0x00u, 0x00u, 0x00u, 0x00u, 0x00u, 0x00u
 638:Generated_Source\PSoC4/cyfitter_cfg.c **** 
 639:Generated_Source\PSoC4/cyfitter_cfg.c **** 		static const cfg_memcpy_t CYCODE cfg_memcpy_list [] = {
 640:Generated_Source\PSoC4/cyfitter_cfg.c **** 			/* dest, src, size */
 641:Generated_Source\PSoC4/cyfitter_cfg.c **** 			{(void CYFAR *)(CYDEV_UDB_P0_U1_BASE), BS_UDB_0_1_1_CONFIG_VAL, 128u},
 642:Generated_Source\PSoC4/cyfitter_cfg.c **** 		};
 643:Generated_Source\PSoC4/cyfitter_cfg.c **** 
 644:Generated_Source\PSoC4/cyfitter_cfg.c **** 		uint8 CYDATA i;
 645:Generated_Source\PSoC4/cyfitter_cfg.c **** 
ARM GAS  C:\Users\Jacob\AppData\Local\Temp\ccaC8eHj.s 			page 19


 646:Generated_Source\PSoC4/cyfitter_cfg.c **** 		/* Zero out critical memory blocks before beginning configuration */
 647:Generated_Source\PSoC4/cyfitter_cfg.c **** 		for (i = 0u; i < (sizeof(cfg_memset_list)/sizeof(cfg_memset_list[0])); i++)
 350              		.loc 1 647 0
 351 00e2 0024     		movs	r4, #0
 352 00e4 0FE0     		b	.L15
 353              	.LVL26:
 354              	.L16:
 355              	.LBB4:
 648:Generated_Source\PSoC4/cyfitter_cfg.c **** 		{
 649:Generated_Source\PSoC4/cyfitter_cfg.c **** 			const cfg_memset_t CYCODE * CYDATA ms = &cfg_memset_list[i];
 650:Generated_Source\PSoC4/cyfitter_cfg.c **** 			CYMEMZERO(ms->address, (size_t)(uint32)(ms->size));
 356              		.loc 1 650 0 discriminator 3
 357 00e6 2F48     		ldr	r0, .L19+4
 358 00e8 6200     		lsls	r2, r4, #1
 359 00ea 1319     		adds	r3, r2, r4
 360 00ec 5900     		lsls	r1, r3, #1
 361 00ee 0B00     		movs	r3, r1
 362 00f0 4118     		adds	r1, r0, r1
 363 00f2 8988     		ldrh	r1, [r1, #4]
 364 00f4 1A5A     		ldrh	r2, [r3, r0]
 365 00f6 C318     		adds	r3, r0, r3
 366 00f8 5888     		ldrh	r0, [r3, #2]
 367 00fa 0004     		lsls	r0, r0, #16
 368 00fc 1043     		orrs	r0, r2
 369 00fe FFF7FEFF 		bl	CYMEMZERO
 370              	.LVL27:
 371              	.LBE4:
 647:Generated_Source\PSoC4/cyfitter_cfg.c **** 		{
 372              		.loc 1 647 0 discriminator 3
 373 0102 0134     		adds	r4, r4, #1
 374              	.LVL28:
 375 0104 E4B2     		uxtb	r4, r4
 376              	.LVL29:
 377              	.L15:
 647:Generated_Source\PSoC4/cyfitter_cfg.c **** 		{
 378              		.loc 1 647 0 is_stmt 0 discriminator 1
 379 0106 022C     		cmp	r4, #2
 380 0108 EDD9     		bls	.L16
 381 010a 0024     		movs	r4, #0
 382              	.LVL30:
 383 010c 11E0     		b	.L17
 384              	.LVL31:
 385              	.L18:
 386              	.LBB5:
 651:Generated_Source\PSoC4/cyfitter_cfg.c **** 		}
 652:Generated_Source\PSoC4/cyfitter_cfg.c **** 
 653:Generated_Source\PSoC4/cyfitter_cfg.c **** 		/* Copy device configuration data into registers */
 654:Generated_Source\PSoC4/cyfitter_cfg.c **** 		for (i = 0u; i < (sizeof(cfg_memcpy_list)/sizeof(cfg_memcpy_list[0])); i++)
 655:Generated_Source\PSoC4/cyfitter_cfg.c **** 		{
 656:Generated_Source\PSoC4/cyfitter_cfg.c **** 			const cfg_memcpy_t CYCODE * CYDATA mc = &cfg_memcpy_list[i];
 657:Generated_Source\PSoC4/cyfitter_cfg.c **** 			void * CYDATA destPtr = mc->dest;
 387              		.loc 1 657 0 is_stmt 1 discriminator 3
 388 010e 254E     		ldr	r6, .L19+4
 389 0110 A200     		lsls	r2, r4, #2
 390 0112 1319     		adds	r3, r2, r4
 391 0114 5900     		lsls	r1, r3, #1
 392 0116 7118     		adds	r1, r6, r1
ARM GAS  C:\Users\Jacob\AppData\Local\Temp\ccaC8eHj.s 			page 20


 393 0118 8D8A     		ldrh	r5, [r1, #20]
 394 011a C88A     		ldrh	r0, [r1, #22]
 395 011c 0004     		lsls	r0, r0, #16
 396 011e 2843     		orrs	r0, r5
 397              	.LVL32:
 658:Generated_Source\PSoC4/cyfitter_cfg.c **** 			const void CYCODE * CYDATA srcPtr = mc->src;
 398              		.loc 1 658 0 discriminator 3
 399 0120 0A8B     		ldrh	r2, [r1, #24]
 400 0122 498B     		ldrh	r1, [r1, #26]
 401 0124 0904     		lsls	r1, r1, #16
 402 0126 1143     		orrs	r1, r2
 403              	.LVL33:
 659:Generated_Source\PSoC4/cyfitter_cfg.c **** 			uint16 CYDATA numBytes = mc->size;
 660:Generated_Source\PSoC4/cyfitter_cfg.c **** 			CYCONFIGCPYCODE(destPtr, srcPtr, numBytes);
 404              		.loc 1 660 0 discriminator 3
 405 0128 8022     		movs	r2, #128
 406 012a FFF7FEFF 		bl	CYCONFIGCPYCODE
 407              	.LVL34:
 408              	.LBE5:
 654:Generated_Source\PSoC4/cyfitter_cfg.c **** 		{
 409              		.loc 1 654 0 discriminator 3
 410 012e 0134     		adds	r4, r4, #1
 411              	.LVL35:
 412 0130 E4B2     		uxtb	r4, r4
 413              	.LVL36:
 414              	.L17:
 654:Generated_Source\PSoC4/cyfitter_cfg.c **** 		{
 415              		.loc 1 654 0 is_stmt 0 discriminator 1
 416 0132 002C     		cmp	r4, #0
 417 0134 EBD0     		beq	.L18
 661:Generated_Source\PSoC4/cyfitter_cfg.c **** 		}
 662:Generated_Source\PSoC4/cyfitter_cfg.c **** 
 663:Generated_Source\PSoC4/cyfitter_cfg.c **** 		cfg_write_bytes32(cy_cfg_addr_table, cy_cfg_data_table);
 418              		.loc 1 663 0 is_stmt 1
 419 0136 1B49     		ldr	r1, .L19+4
 420 0138 2031     		adds	r1, r1, #32
 421 013a 1B48     		ldr	r0, .L19+8
 422 013c 4830     		adds	r0, r0, #72
 423 013e FFF7FEFF 		bl	cfg_write_bytes32
 424              	.LVL37:
 664:Generated_Source\PSoC4/cyfitter_cfg.c **** 
 665:Generated_Source\PSoC4/cyfitter_cfg.c **** 		/* Perform normal device configuration. Order is not critical for these items. */
 666:Generated_Source\PSoC4/cyfitter_cfg.c **** 		CY_SET_REG16((void *)(CYREG_UDB_BCTL0_DRV), 0x0100u);
 425              		.loc 1 666 0
 426 0142 8022     		movs	r2, #128
 427 0144 5200     		lsls	r2, r2, #1
 428 0146 194B     		ldr	r3, .L19+12
 429 0148 1A80     		strh	r2, [r3]
 667:Generated_Source\PSoC4/cyfitter_cfg.c **** 		CY_SET_REG8((void *)(CYREG_UDB_BCTL0_DRV + 0x2u), 0x01u);
 430              		.loc 1 667 0
 431 014a FF3A     		subs	r2, r2, #255
 432 014c 184B     		ldr	r3, .L19+16
 433 014e 1A70     		strb	r2, [r3]
 668:Generated_Source\PSoC4/cyfitter_cfg.c **** 
 669:Generated_Source\PSoC4/cyfitter_cfg.c **** 		/* HSIOM Starting address: CYDEV_HSIOM_BASE */
 670:Generated_Source\PSoC4/cyfitter_cfg.c **** 		CY_SET_REG32((void *)(CYDEV_HSIOM_BASE), 0xEE300000u);
 434              		.loc 1 670 0
ARM GAS  C:\Users\Jacob\AppData\Local\Temp\ccaC8eHj.s 			page 21


 435 0150 184A     		ldr	r2, .L19+20
 436 0152 194B     		ldr	r3, .L19+24
 437 0154 1A60     		str	r2, [r3]
 671:Generated_Source\PSoC4/cyfitter_cfg.c **** 
 672:Generated_Source\PSoC4/cyfitter_cfg.c **** 		/* UDB_PA_0 Starting address: CYDEV_UDB_PA0_BASE */
 673:Generated_Source\PSoC4/cyfitter_cfg.c **** 		CY_SET_REG32((void *)(CYDEV_UDB_PA0_BASE), 0x00990004u);
 438              		.loc 1 673 0
 439 0156 194A     		ldr	r2, .L19+28
 440 0158 194B     		ldr	r3, .L19+32
 441 015a 1A60     		str	r2, [r3]
 674:Generated_Source\PSoC4/cyfitter_cfg.c **** 		CY_SET_REG32((void *)(CYREG_UDB_PA0_CFG4), 0x02000000u);
 442              		.loc 1 674 0
 443 015c 8022     		movs	r2, #128
 444 015e 9204     		lsls	r2, r2, #18
 445 0160 184B     		ldr	r3, .L19+36
 446 0162 1A60     		str	r2, [r3]
 675:Generated_Source\PSoC4/cyfitter_cfg.c **** 		CY_SET_REG32((void *)(CYREG_UDB_PA0_CFG8), 0x0C000000u);
 447              		.loc 1 675 0
 448 0164 C022     		movs	r2, #192
 449 0166 1205     		lsls	r2, r2, #20
 450 0168 174B     		ldr	r3, .L19+40
 451 016a 1A60     		str	r2, [r3]
 676:Generated_Source\PSoC4/cyfitter_cfg.c **** 
 677:Generated_Source\PSoC4/cyfitter_cfg.c **** 		/* Enable UDB array and digital routing */
 678:Generated_Source\PSoC4/cyfitter_cfg.c **** 		CY_SET_XTND_REG8((void *)CYREG_UDB_UDBIF_WAIT_CFG, (uint8)((CY_GET_XTND_REG8((void *)CYREG_UDB_UD
 452              		.loc 1 678 0
 453 016c 1749     		ldr	r1, .L19+44
 454 016e 0B78     		ldrb	r3, [r1]
 455 0170 3C22     		movs	r2, #60
 456 0172 9343     		bics	r3, r2
 457 0174 1422     		movs	r2, #20
 458 0176 1343     		orrs	r3, r2
 459 0178 DBB2     		uxtb	r3, r3
 460 017a 0B70     		strb	r3, [r1]
 679:Generated_Source\PSoC4/cyfitter_cfg.c **** 		CY_SET_XTND_REG8((void *)CYREG_UDB_UDBIF_BANK_CTL, (uint8)(CY_GET_XTND_REG8((void *)CYREG_UDB_UDB
 461              		.loc 1 679 0
 462 017c 144A     		ldr	r2, .L19+48
 463 017e 1178     		ldrb	r1, [r2]
 464 0180 1623     		movs	r3, #22
 465 0182 0B43     		orrs	r3, r1
 466 0184 DBB2     		uxtb	r3, r3
 467 0186 1370     		strb	r3, [r2]
 468              	.LBE3:
 680:Generated_Source\PSoC4/cyfitter_cfg.c **** 	}
 681:Generated_Source\PSoC4/cyfitter_cfg.c **** 
 682:Generated_Source\PSoC4/cyfitter_cfg.c **** 	/* Perform second pass device configuration. These items must be configured in specific order afte
 683:Generated_Source\PSoC4/cyfitter_cfg.c **** 	/* IOPINS0_0 Starting address: CYDEV_GPIO_PRT0_BASE */
 684:Generated_Source\PSoC4/cyfitter_cfg.c **** 	CY_SET_REG32((void *)(CYDEV_GPIO_PRT0_BASE), 0x00000020u);
 469              		.loc 1 684 0
 470 0188 2022     		movs	r2, #32
 471 018a 124B     		ldr	r3, .L19+52
 472 018c 1A60     		str	r2, [r3]
 685:Generated_Source\PSoC4/cyfitter_cfg.c **** 	CY_SET_REG32((void *)(CYREG_GPIO_PRT0_PC), 0x00DB1000u);
 473              		.loc 1 685 0
 474 018e 124A     		ldr	r2, .L19+56
 475 0190 124B     		ldr	r3, .L19+60
 476 0192 1A60     		str	r2, [r3]
ARM GAS  C:\Users\Jacob\AppData\Local\Temp\ccaC8eHj.s 			page 22


 686:Generated_Source\PSoC4/cyfitter_cfg.c **** 
 687:Generated_Source\PSoC4/cyfitter_cfg.c **** 
 688:Generated_Source\PSoC4/cyfitter_cfg.c **** 	/* Setup clocks based on selections from Clock DWR */
 689:Generated_Source\PSoC4/cyfitter_cfg.c **** 	ClockSetup();
 477              		.loc 1 689 0
 478 0194 FFF734FF 		bl	ClockSetup
 479              	.LVL38:
 690:Generated_Source\PSoC4/cyfitter_cfg.c **** 
 691:Generated_Source\PSoC4/cyfitter_cfg.c **** 	/* Perform basic analog initialization to defaults */
 692:Generated_Source\PSoC4/cyfitter_cfg.c **** 	AnalogSetDefault();
 480              		.loc 1 692 0
 481 0198 FFF7FEFF 		bl	AnalogSetDefault
 482              	.LVL39:
 693:Generated_Source\PSoC4/cyfitter_cfg.c **** 
 694:Generated_Source\PSoC4/cyfitter_cfg.c **** }
 483              		.loc 1 694 0
 484              		@ sp needed
 485              	.LVL40:
 486 019c 70BD     		pop	{r4, r5, r6, pc}
 487              	.L20:
 488 019e C046     		.align	2
 489              	.L19:
 490 01a0 6CF02E40 		.word	1076818028
 491 01a4 00000000 		.word	.LANCHOR0
 492 01a8 00020000 		.word	.LANCHOR1
 493 01ac 00600F40 		.word	1074749440
 494 01b0 02600F40 		.word	1074749442
 495 01b4 000030EE 		.word	-298844160
 496 01b8 00000240 		.word	1073872896
 497 01bc 04009900 		.word	10027012
 498 01c0 00500F40 		.word	1074745344
 499 01c4 04500F40 		.word	1074745348
 500 01c8 08500F40 		.word	1074745352
 501 01cc 01700F40 		.word	1074753537
 502 01d0 00700F40 		.word	1074753536
 503 01d4 00000440 		.word	1074003968
 504 01d8 0010DB00 		.word	14356480
 505 01dc 08000440 		.word	1074003976
 506              		.cfi_endproc
 507              	.LFE8:
 508              		.size	cyfitter_cfg, .-cyfitter_cfg
 509              		.section	.rodata
 510              		.align	2
 511              		.set	.LANCHOR0,. + 0
 512              		.set	.LANCHOR1,. + 512
 513              		.type	cfg_memset_list.4921, %object
 514              		.size	cfg_memset_list.4921, 18
 515              	cfg_memset_list.4921:
 516 0000 00300F40 		.word	1074737152
 517 0004 8000     		.short	128
 518 0006 00310F40 		.4byte	1074737408
 519 000a 0003     		.short	768
 520 000c 00400F40 		.word	1074741248
 521 0010 0004     		.short	1024
 522 0012 0000     		.space	2
 523              		.type	cfg_memcpy_list.4923, %object
 524              		.size	cfg_memcpy_list.4923, 10
ARM GAS  C:\Users\Jacob\AppData\Local\Temp\ccaC8eHj.s 			page 23


 525              	cfg_memcpy_list.4923:
 526 0014 80300F40 		.word	1074737280
 527 0018 68020000 		.word	BS_UDB_0_1_1_CONFIG_VAL.4922
 528 001c 8000     		.short	128
 529 001e 0000     		.space	2
 530              		.type	cy_cfg_data_table.4911, %object
 531              		.size	cy_cfg_data_table.4911, 550
 532              	cy_cfg_data_table.4911:
 533 0020 80       		.byte	-128
 534 0021 38       		.byte	56
 535 0022 81       		.byte	-127
 536 0023 72       		.byte	114
 537 0024 82       		.byte	-126
 538 0025 0F       		.byte	15
 539 0026 01       		.byte	1
 540 0027 01       		.byte	1
 541 0028 02       		.byte	2
 542 0029 01       		.byte	1
 543 002a 04       		.byte	4
 544 002b 04       		.byte	4
 545 002c 0E       		.byte	14
 546 002d 02       		.byte	2
 547 002e 12       		.byte	18
 548 002f 02       		.byte	2
 549 0030 2E       		.byte	46
 550 0031 01       		.byte	1
 551 0032 30       		.byte	48
 552 0033 02       		.byte	2
 553 0034 32       		.byte	50
 554 0035 04       		.byte	4
 555 0036 33       		.byte	51
 556 0037 01       		.byte	1
 557 0038 34       		.byte	52
 558 0039 01       		.byte	1
 559 003a 3A       		.byte	58
 560 003b 80       		.byte	-128
 561 003c 3E       		.byte	62
 562 003d 15       		.byte	21
 563 003e 3F       		.byte	63
 564 003f 04       		.byte	4
 565 0040 54       		.byte	84
 566 0041 18       		.byte	24
 567 0042 58       		.byte	88
 568 0043 04       		.byte	4
 569 0044 59       		.byte	89
 570 0045 04       		.byte	4
 571 0046 5B       		.byte	91
 572 0047 04       		.byte	4
 573 0048 5F       		.byte	95
 574 0049 01       		.byte	1
 575 004a 00       		.byte	0
 576 004b 80       		.byte	-128
 577 004c 02       		.byte	2
 578 004d 90       		.byte	-112
 579 004e 05       		.byte	5
 580 004f A1       		.byte	-95
 581 0050 06       		.byte	6
ARM GAS  C:\Users\Jacob\AppData\Local\Temp\ccaC8eHj.s 			page 24


 582 0051 20       		.byte	32
 583 0052 09       		.byte	9
 584 0053 02       		.byte	2
 585 0054 0C       		.byte	12
 586 0055 10       		.byte	16
 587 0056 0E       		.byte	14
 588 0057 22       		.byte	34
 589 0058 10       		.byte	16
 590 0059 02       		.byte	2
 591 005a 16       		.byte	22
 592 005b 82       		.byte	-126
 593 005c 17       		.byte	23
 594 005d 28       		.byte	40
 595 005e 18       		.byte	24
 596 005f 04       		.byte	4
 597 0060 19       		.byte	25
 598 0061 88       		.byte	-120
 599 0062 1B       		.byte	27
 600 0063 01       		.byte	1
 601 0064 1D       		.byte	29
 602 0065 22       		.byte	34
 603 0066 1E       		.byte	30
 604 0067 01       		.byte	1
 605 0068 1F       		.byte	31
 606 0069 28       		.byte	40
 607 006a 23       		.byte	35
 608 006b 10       		.byte	16
 609 006c 24       		.byte	36
 610 006d 10       		.byte	16
 611 006e 25       		.byte	37
 612 006f 10       		.byte	16
 613 0070 26       		.byte	38
 614 0071 82       		.byte	-126
 615 0072 2D       		.byte	45
 616 0073 80       		.byte	-128
 617 0074 2F       		.byte	47
 618 0075 28       		.byte	40
 619 0076 36       		.byte	54
 620 0077 02       		.byte	2
 621 0078 37       		.byte	55
 622 0079 28       		.byte	40
 623 007a 38       		.byte	56
 624 007b 01       		.byte	1
 625 007c 3D       		.byte	61
 626 007d 28       		.byte	40
 627 007e 3E       		.byte	62
 628 007f 02       		.byte	2
 629 0080 3F       		.byte	63
 630 0081 80       		.byte	-128
 631 0082 44       		.byte	68
 632 0083 10       		.byte	16
 633 0084 45       		.byte	69
 634 0085 26       		.byte	38
 635 0086 47       		.byte	71
 636 0087 40       		.byte	64
 637 0088 4D       		.byte	77
 638 0089 80       		.byte	-128
ARM GAS  C:\Users\Jacob\AppData\Local\Temp\ccaC8eHj.s 			page 25


 639 008a 54       		.byte	84
 640 008b 42       		.byte	66
 641 008c 5A       		.byte	90
 642 008d 01       		.byte	1
 643 008e 5C       		.byte	92
 644 008f 10       		.byte	16
 645 0090 60       		.byte	96
 646 0091 04       		.byte	4
 647 0092 63       		.byte	99
 648 0093 02       		.byte	2
 649 0094 6C       		.byte	108
 650 0095 20       		.byte	32
 651 0096 6D       		.byte	109
 652 0097 10       		.byte	16
 653 0098 6F       		.byte	111
 654 0099 01       		.byte	1
 655 009a 76       		.byte	118
 656 009b 02       		.byte	2
 657 009c 77       		.byte	119
 658 009d 28       		.byte	40
 659 009e 87       		.byte	-121
 660 009f 10       		.byte	16
 661 00a0 C0       		.byte	-64
 662 00a1 FD       		.byte	-3
 663 00a2 C2       		.byte	-62
 664 00a3 E8       		.byte	-24
 665 00a4 C4       		.byte	-60
 666 00a5 F1       		.byte	-15
 667 00a6 CA       		.byte	-54
 668 00a7 70       		.byte	112
 669 00a8 CC       		.byte	-52
 670 00a9 E0       		.byte	-32
 671 00aa CE       		.byte	-50
 672 00ab F1       		.byte	-15
 673 00ac D0       		.byte	-48
 674 00ad F0       		.byte	-16
 675 00ae D2       		.byte	-46
 676 00af 10       		.byte	16
 677 00b0 D6       		.byte	-42
 678 00b1 21       		.byte	33
 679 00b2 D8       		.byte	-40
 680 00b3 0C       		.byte	12
 681 00b4 02       		.byte	2
 682 00b5 08       		.byte	8
 683 00b6 06       		.byte	6
 684 00b7 15       		.byte	21
 685 00b8 08       		.byte	8
 686 00b9 13       		.byte	19
 687 00ba 09       		.byte	9
 688 00bb 13       		.byte	19
 689 00bc 0A       		.byte	10
 690 00bd 04       		.byte	4
 691 00be 0C       		.byte	12
 692 00bf 40       		.byte	64
 693 00c0 0D       		.byte	13
 694 00c1 01       		.byte	1
 695 00c2 0E       		.byte	14
ARM GAS  C:\Users\Jacob\AppData\Local\Temp\ccaC8eHj.s 			page 26


 696 00c3 20       		.byte	32
 697 00c4 0F       		.byte	15
 698 00c5 0A       		.byte	10
 699 00c6 10       		.byte	16
 700 00c7 0A       		.byte	10
 701 00c8 11       		.byte	17
 702 00c9 10       		.byte	16
 703 00ca 12       		.byte	18
 704 00cb 14       		.byte	20
 705 00cc 14       		.byte	20
 706 00cd 80       		.byte	-128
 707 00ce 16       		.byte	22
 708 00cf 20       		.byte	32
 709 00d0 18       		.byte	24
 710 00d1 E0       		.byte	-32
 711 00d2 19       		.byte	25
 712 00d3 02       		.byte	2
 713 00d4 1B       		.byte	27
 714 00d5 09       		.byte	9
 715 00d6 1C       		.byte	28
 716 00d7 03       		.byte	3
 717 00d8 1E       		.byte	30
 718 00d9 14       		.byte	20
 719 00da 24       		.byte	36
 720 00db 13       		.byte	19
 721 00dc 25       		.byte	37
 722 00dd 13       		.byte	19
 723 00de 26       		.byte	38
 724 00df 0C       		.byte	12
 725 00e0 28       		.byte	40
 726 00e1 E0       		.byte	-32
 727 00e2 2B       		.byte	43
 728 00e3 04       		.byte	4
 729 00e4 2C       		.byte	44
 730 00e5 20       		.byte	32
 731 00e6 2E       		.byte	46
 732 00e7 C0       		.byte	-64
 733 00e8 30       		.byte	48
 734 00e9 10       		.byte	16
 735 00ea 31       		.byte	49
 736 00eb 0C       		.byte	12
 737 00ec 32       		.byte	50
 738 00ed E0       		.byte	-32
 739 00ee 33       		.byte	51
 740 00ef 10       		.byte	16
 741 00f0 34       		.byte	52
 742 00f1 0F       		.byte	15
 743 00f2 35       		.byte	53
 744 00f3 03       		.byte	3
 745 00f4 3A       		.byte	58
 746 00f5 20       		.byte	32
 747 00f6 3E       		.byte	62
 748 00f7 01       		.byte	1
 749 00f8 3F       		.byte	63
 750 00f9 01       		.byte	1
 751 00fa 40       		.byte	64
 752 00fb 32       		.byte	50
ARM GAS  C:\Users\Jacob\AppData\Local\Temp\ccaC8eHj.s 			page 27


 753 00fc 41       		.byte	65
 754 00fd 06       		.byte	6
 755 00fe 46       		.byte	70
 756 00ff EB       		.byte	-21
 757 0100 47       		.byte	71
 758 0101 C0       		.byte	-64
 759 0102 48       		.byte	72
 760 0103 2C       		.byte	44
 761 0104 49       		.byte	73
 762 0105 FF       		.byte	-1
 763 0106 4A       		.byte	74
 764 0107 FF       		.byte	-1
 765 0108 4B       		.byte	75
 766 0109 FF       		.byte	-1
 767 010a 4E       		.byte	78
 768 010b F0       		.byte	-16
 769 010c 4F       		.byte	79
 770 010d 44       		.byte	68
 771 010e 50       		.byte	80
 772 010f 0C       		.byte	12
 773 0110 54       		.byte	84
 774 0111 01       		.byte	1
 775 0112 58       		.byte	88
 776 0113 04       		.byte	4
 777 0114 59       		.byte	89
 778 0115 04       		.byte	4
 779 0116 5A       		.byte	90
 780 0117 04       		.byte	4
 781 0118 5B       		.byte	91
 782 0119 04       		.byte	4
 783 011a 5F       		.byte	95
 784 011b 01       		.byte	1
 785 011c 66       		.byte	102
 786 011d C0       		.byte	-64
 787 011e 6A       		.byte	106
 788 011f 40       		.byte	64
 789 0120 6B       		.byte	107
 790 0121 02       		.byte	2
 791 0122 82       		.byte	-126
 792 0123 03       		.byte	3
 793 0124 83       		.byte	-125
 794 0125 08       		.byte	8
 795 0126 84       		.byte	-124
 796 0127 10       		.byte	16
 797 0128 85       		.byte	-123
 798 0129 80       		.byte	-128
 799 012a 86       		.byte	-122
 800 012b AC       		.byte	-84
 801 012c 87       		.byte	-121
 802 012d 13       		.byte	19
 803 012e 89       		.byte	-119
 804 012f 71       		.byte	113
 805 0130 8B       		.byte	-117
 806 0131 06       		.byte	6
 807 0132 8F       		.byte	-113
 808 0133 0C       		.byte	12
 809 0134 90       		.byte	-112
ARM GAS  C:\Users\Jacob\AppData\Local\Temp\ccaC8eHj.s 			page 28


 810 0135 DC       		.byte	-36
 811 0136 92       		.byte	-110
 812 0137 22       		.byte	34
 813 0138 98       		.byte	-104
 814 0139 0C       		.byte	12
 815 013a 99       		.byte	-103
 816 013b 2C       		.byte	44
 817 013c 9A       		.byte	-102
 818 013d 71       		.byte	113
 819 013e 9B       		.byte	-101
 820 013f 43       		.byte	67
 821 0140 9C       		.byte	-100
 822 0141 10       		.byte	16
 823 0142 9E       		.byte	-98
 824 0143 40       		.byte	64
 825 0144 A0       		.byte	-96
 826 0145 14       		.byte	20
 827 0146 A9       		.byte	-87
 828 0147 71       		.byte	113
 829 0148 AA       		.byte	-86
 830 0149 20       		.byte	32
 831 014a AB       		.byte	-85
 832 014b 0E       		.byte	14
 833 014c AC       		.byte	-84
 834 014d 09       		.byte	9
 835 014e AE       		.byte	-82
 836 014f D0       		.byte	-48
 837 0150 B1       		.byte	-79
 838 0151 C0       		.byte	-64
 839 0152 B3       		.byte	-77
 840 0153 30       		.byte	48
 841 0154 B4       		.byte	-76
 842 0155 E0       		.byte	-32
 843 0156 B5       		.byte	-75
 844 0157 0F       		.byte	15
 845 0158 B6       		.byte	-74
 846 0159 1F       		.byte	31
 847 015a B9       		.byte	-71
 848 015b 0A       		.byte	10
 849 015c BA       		.byte	-70
 850 015d 20       		.byte	32
 851 015e BB       		.byte	-69
 852 015f 20       		.byte	32
 853 0160 BF       		.byte	-65
 854 0161 04       		.byte	4
 855 0162 C0       		.byte	-64
 856 0163 03       		.byte	3
 857 0164 C5       		.byte	-59
 858 0165 40       		.byte	64
 859 0166 C9       		.byte	-55
 860 0167 FF       		.byte	-1
 861 0168 CA       		.byte	-54
 862 0169 07       		.byte	7
 863 016a CB       		.byte	-53
 864 016b FF       		.byte	-1
 865 016c CC       		.byte	-52
 866 016d 40       		.byte	64
ARM GAS  C:\Users\Jacob\AppData\Local\Temp\ccaC8eHj.s 			page 29


 867 016e CD       		.byte	-51
 868 016f 20       		.byte	32
 869 0170 CE       		.byte	-50
 870 0171 F0       		.byte	-16
 871 0172 CF       		.byte	-49
 872 0173 05       		.byte	5
 873 0174 D0       		.byte	-48
 874 0175 08       		.byte	8
 875 0176 D8       		.byte	-40
 876 0177 04       		.byte	4
 877 0178 D9       		.byte	-39
 878 0179 04       		.byte	4
 879 017a DA       		.byte	-38
 880 017b 04       		.byte	4
 881 017c DF       		.byte	-33
 882 017d 01       		.byte	1
 883 017e E0       		.byte	-32
 884 017f 40       		.byte	64
 885 0180 E1       		.byte	-31
 886 0181 A8       		.byte	-88
 887 0182 E2       		.byte	-30
 888 0183 40       		.byte	64
 889 0184 E3       		.byte	-29
 890 0185 20       		.byte	32
 891 0186 00       		.byte	0
 892 0187 01       		.byte	1
 893 0188 03       		.byte	3
 894 0189 20       		.byte	32
 895 018a 04       		.byte	4
 896 018b 08       		.byte	8
 897 018c 05       		.byte	5
 898 018d 10       		.byte	16
 899 018e 06       		.byte	6
 900 018f 01       		.byte	1
 901 0190 07       		.byte	7
 902 0191 80       		.byte	-128
 903 0192 0A       		.byte	10
 904 0193 48       		.byte	72
 905 0194 0B       		.byte	11
 906 0195 02       		.byte	2
 907 0196 0C       		.byte	12
 908 0197 20       		.byte	32
 909 0198 0E       		.byte	14
 910 0199 60       		.byte	96
 911 019a 0F       		.byte	15
 912 019b 02       		.byte	2
 913 019c 10       		.byte	16
 914 019d 80       		.byte	-128
 915 019e 12       		.byte	18
 916 019f 04       		.byte	4
 917 01a0 13       		.byte	19
 918 01a1 80       		.byte	-128
 919 01a2 14       		.byte	20
 920 01a3 02       		.byte	2
 921 01a4 15       		.byte	21
 922 01a5 10       		.byte	16
 923 01a6 16       		.byte	22
ARM GAS  C:\Users\Jacob\AppData\Local\Temp\ccaC8eHj.s 			page 30


 924 01a7 20       		.byte	32
 925 01a8 18       		.byte	24
 926 01a9 01       		.byte	1
 927 01aa 19       		.byte	25
 928 01ab 10       		.byte	16
 929 01ac 1A       		.byte	26
 930 01ad 08       		.byte	8
 931 01ae 1C       		.byte	28
 932 01af 40       		.byte	64
 933 01b0 1F       		.byte	31
 934 01b1 38       		.byte	56
 935 01b2 21       		.byte	33
 936 01b3 24       		.byte	36
 937 01b4 23       		.byte	35
 938 01b5 C0       		.byte	-64
 939 01b6 25       		.byte	37
 940 01b7 04       		.byte	4
 941 01b8 26       		.byte	38
 942 01b9 30       		.byte	48
 943 01ba 27       		.byte	39
 944 01bb 40       		.byte	64
 945 01bc 29       		.byte	41
 946 01bd 10       		.byte	16
 947 01be 2C       		.byte	44
 948 01bf 20       		.byte	32
 949 01c0 2D       		.byte	45
 950 01c1 20       		.byte	32
 951 01c2 2F       		.byte	47
 952 01c3 08       		.byte	8
 953 01c4 31       		.byte	49
 954 01c5 20       		.byte	32
 955 01c6 36       		.byte	54
 956 01c7 20       		.byte	32
 957 01c8 37       		.byte	55
 958 01c9 01       		.byte	1
 959 01ca 38       		.byte	56
 960 01cb 08       		.byte	8
 961 01cc 3A       		.byte	58
 962 01cd 20       		.byte	32
 963 01ce 3B       		.byte	59
 964 01cf 62       		.byte	98
 965 01d0 3D       		.byte	61
 966 01d1 10       		.byte	16
 967 01d2 3F       		.byte	63
 968 01d3 80       		.byte	-128
 969 01d4 41       		.byte	65
 970 01d5 04       		.byte	4
 971 01d6 46       		.byte	70
 972 01d7 24       		.byte	36
 973 01d8 4B       		.byte	75
 974 01d9 02       		.byte	2
 975 01da 4E       		.byte	78
 976 01db 04       		.byte	4
 977 01dc 50       		.byte	80
 978 01dd 04       		.byte	4
 979 01de 52       		.byte	82
 980 01df 04       		.byte	4
ARM GAS  C:\Users\Jacob\AppData\Local\Temp\ccaC8eHj.s 			page 31


 981 01e0 54       		.byte	84
 982 01e1 90       		.byte	-112
 983 01e2 56       		.byte	86
 984 01e3 10       		.byte	16
 985 01e4 57       		.byte	87
 986 01e5 03       		.byte	3
 987 01e6 5C       		.byte	92
 988 01e7 40       		.byte	64
 989 01e8 5D       		.byte	93
 990 01e9 08       		.byte	8
 991 01ea 5E       		.byte	94
 992 01eb 01       		.byte	1
 993 01ec 5F       		.byte	95
 994 01ed 10       		.byte	16
 995 01ee 84       		.byte	-124
 996 01ef 10       		.byte	16
 997 01f0 86       		.byte	-122
 998 01f1 01       		.byte	1
 999 01f2 8B       		.byte	-117
 1000 01f3 12       		.byte	18
 1001 01f4 8C       		.byte	-116
 1002 01f5 02       		.byte	2
 1003 01f6 8D       		.byte	-115
 1004 01f7 20       		.byte	32
 1005 01f8 8E       		.byte	-114
 1006 01f9 40       		.byte	64
 1007 01fa 8F       		.byte	-113
 1008 01fb 08       		.byte	8
 1009 01fc 91       		.byte	-111
 1010 01fd 10       		.byte	16
 1011 01fe 94       		.byte	-108
 1012 01ff 01       		.byte	1
 1013 0200 99       		.byte	-103
 1014 0201 08       		.byte	8
 1015 0202 9A       		.byte	-102
 1016 0203 01       		.byte	1
 1017 0204 9B       		.byte	-101
 1018 0205 01       		.byte	1
 1019 0206 9D       		.byte	-99
 1020 0207 20       		.byte	32
 1021 0208 9E       		.byte	-98
 1022 0209 10       		.byte	16
 1023 020a 9F       		.byte	-97
 1024 020b 40       		.byte	64
 1025 020c A0       		.byte	-96
 1026 020d 20       		.byte	32
 1027 020e A3       		.byte	-93
 1028 020f 40       		.byte	64
 1029 0210 A5       		.byte	-91
 1030 0211 04       		.byte	4
 1031 0212 A6       		.byte	-90
 1032 0213 10       		.byte	16
 1033 0214 A9       		.byte	-87
 1034 0215 10       		.byte	16
 1035 0216 AA       		.byte	-86
 1036 0217 A1       		.byte	-95
 1037 0218 AB       		.byte	-85
ARM GAS  C:\Users\Jacob\AppData\Local\Temp\ccaC8eHj.s 			page 32


 1038 0219 40       		.byte	64
 1039 021a B5       		.byte	-75
 1040 021b 21       		.byte	33
 1041 021c B6       		.byte	-74
 1042 021d 01       		.byte	1
 1043 021e B7       		.byte	-73
 1044 021f 08       		.byte	8
 1045 0220 C0       		.byte	-64
 1046 0221 FC       		.byte	-4
 1047 0222 C2       		.byte	-62
 1048 0223 FB       		.byte	-5
 1049 0224 C4       		.byte	-60
 1050 0225 EB       		.byte	-21
 1051 0226 CA       		.byte	-54
 1052 0227 64       		.byte	100
 1053 0228 CC       		.byte	-52
 1054 0229 A4       		.byte	-92
 1055 022a CE       		.byte	-50
 1056 022b 3F       		.byte	63
 1057 022c D0       		.byte	-48
 1058 022d 62       		.byte	98
 1059 022e D2       		.byte	-46
 1060 022f 20       		.byte	32
 1061 0230 D6       		.byte	-42
 1062 0231 F0       		.byte	-16
 1063 0232 0A       		.byte	10
 1064 0233 40       		.byte	64
 1065 0234 67       		.byte	103
 1066 0235 80       		.byte	-128
 1067 0236 87       		.byte	-121
 1068 0237 40       		.byte	64
 1069 0238 C2       		.byte	-62
 1070 0239 10       		.byte	16
 1071 023a D8       		.byte	-40
 1072 023b 80       		.byte	-128
 1073 023c E2       		.byte	-30
 1074 023d 10       		.byte	16
 1075 023e AA       		.byte	-86
 1076 023f 40       		.byte	64
 1077 0240 E8       		.byte	-24
 1078 0241 20       		.byte	32
 1079 0242 10       		.byte	16
 1080 0243 01       		.byte	1
 1081 0244 11       		.byte	17
 1082 0245 01       		.byte	1
 1083 0246 0000     		.space	2
 1084              		.type	cy_cfg_addr_table.4910, %object
 1085              		.size	cy_cfg_addr_table.4910, 32
 1086              	cy_cfg_addr_table.4910:
 1087 0248 03000F40 		.word	1074724867
 1088 024c 12300F40 		.word	1074737170
 1089 0250 35310F40 		.word	1074737461
 1090 0254 69320F40 		.word	1074737769
 1091 0258 56330F40 		.word	1074738006
 1092 025c 06400F40 		.word	1074741254
 1093 0260 02410F40 		.word	1074741506
 1094 0264 02600F40 		.word	1074749442
ARM GAS  C:\Users\Jacob\AppData\Local\Temp\ccaC8eHj.s 			page 33


 1095              		.type	BS_UDB_0_1_1_CONFIG_VAL.4922, %object
 1096              		.size	BS_UDB_0_1_1_CONFIG_VAL.4922, 128
 1097              	BS_UDB_0_1_1_CONFIG_VAL.4922:
 1098 0268 F3       		.byte	-13
 1099 0269 10       		.byte	16
 1100 026a 0C       		.byte	12
 1101 026b 00       		.byte	0
 1102 026c 41       		.byte	65
 1103 026d 00       		.byte	0
 1104 026e 00       		.byte	0
 1105 026f 03       		.byte	3
 1106 0270 C3       		.byte	-61
 1107 0271 3C       		.byte	60
 1108 0272 00       		.byte	0
 1109 0273 42       		.byte	66
 1110 0274 FF       		.byte	-1
 1111 0275 04       		.byte	4
 1112 0276 00       		.byte	0
 1113 0277 80       		.byte	-128
 1114 0278 00       		.byte	0
 1115 0279 00       		.byte	0
 1116 027a 00       		.byte	0
 1117 027b 04       		.byte	4
 1118 027c 82       		.byte	-126
 1119 027d 08       		.byte	8
 1120 027e 00       		.byte	0
 1121 027f 00       		.byte	0
 1122 0280 00       		.byte	0
 1123 0281 18       		.byte	24
 1124 0282 F3       		.byte	-13
 1125 0283 00       		.byte	0
 1126 0284 0F       		.byte	15
 1127 0285 00       		.byte	0
 1128 0286 F0       		.byte	-16
 1129 0287 00       		.byte	0
 1130 0288 1C       		.byte	28
 1131 0289 00       		.byte	0
 1132 028a E3       		.byte	-29
 1133 028b 00       		.byte	0
 1134 028c 04       		.byte	4
 1135 028d 67       		.byte	103
 1136 028e 00       		.byte	0
 1137 028f 18       		.byte	24
 1138 0290 0C       		.byte	12
 1139 0291 3C       		.byte	60
 1140 0292 00       		.byte	0
 1141 0293 41       		.byte	65
 1142 0294 08       		.byte	8
 1143 0295 7F       		.byte	127
 1144 0296 00       		.byte	0
 1145 0297 00       		.byte	0
 1146 0298 1C       		.byte	28
 1147 0299 80       		.byte	-128
 1148 029a 2C       		.byte	44
 1149 029b 20       		.byte	32
 1150 029c 0F       		.byte	15
 1151 029d 1F       		.byte	31
ARM GAS  C:\Users\Jacob\AppData\Local\Temp\ccaC8eHj.s 			page 34


 1152 029e C0       		.byte	-64
 1153 029f 40       		.byte	64
 1154 02a0 00       		.byte	0
 1155 02a1 80       		.byte	-128
 1156 02a2 28       		.byte	40
 1157 02a3 20       		.byte	32
 1158 02a4 00       		.byte	0
 1159 02a5 00       		.byte	0
 1160 02a6 00       		.byte	0
 1161 02a7 04       		.byte	4
 1162 02a8 23       		.byte	35
 1163 02a9 05       		.byte	5
 1164 02aa 04       		.byte	4
 1165 02ab 00       		.byte	0
 1166 02ac 01       		.byte	1
 1167 02ad 00       		.byte	0
 1168 02ae 0C       		.byte	12
 1169 02af E0       		.byte	-32
 1170 02b0 24       		.byte	36
 1171 02b1 FF       		.byte	-1
 1172 02b2 FF       		.byte	-1
 1173 02b3 FF       		.byte	-1
 1174 02b4 62       		.byte	98
 1175 02b5 A0       		.byte	-96
 1176 02b6 F0       		.byte	-16
 1177 02b7 41       		.byte	65
 1178 02b8 0C       		.byte	12
 1179 02b9 00       		.byte	0
 1180 02ba 00       		.byte	0
 1181 02bb 00       		.byte	0
 1182 02bc 00       		.byte	0
 1183 02bd 00       		.byte	0
 1184 02be 02       		.byte	2
 1185 02bf 11       		.byte	17
 1186 02c0 04       		.byte	4
 1187 02c1 04       		.byte	4
 1188 02c2 04       		.byte	4
 1189 02c3 04       		.byte	4
 1190 02c4 00       		.byte	0
 1191 02c5 00       		.byte	0
 1192 02c6 00       		.byte	0
 1193 02c7 01       		.byte	1
 1194 02c8 00       		.byte	0
 1195 02c9 00       		.byte	0
 1196 02ca 00       		.byte	0
 1197 02cb 00       		.byte	0
 1198 02cc 00       		.byte	0
 1199 02cd 00       		.byte	0
 1200 02ce 40       		.byte	64
 1201 02cf 02       		.byte	2
 1202 02d0 00       		.byte	0
 1203 02d1 10       		.byte	16
 1204 02d2 30       		.byte	48
 1205 02d3 10       		.byte	16
 1206 02d4 00       		.byte	0
 1207 02d5 10       		.byte	16
 1208 02d6 10       		.byte	16
ARM GAS  C:\Users\Jacob\AppData\Local\Temp\ccaC8eHj.s 			page 35


 1209 02d7 12       		.byte	18
 1210 02d8 00       		.byte	0
 1211 02d9 00       		.byte	0
 1212 02da 00       		.byte	0
 1213 02db 00       		.byte	0
 1214 02dc 00       		.byte	0
 1215 02dd 00       		.byte	0
 1216 02de 00       		.byte	0
 1217 02df 00       		.byte	0
 1218 02e0 00       		.byte	0
 1219 02e1 00       		.byte	0
 1220 02e2 00       		.byte	0
 1221 02e3 00       		.byte	0
 1222 02e4 00       		.byte	0
 1223 02e5 00       		.byte	0
 1224 02e6 00       		.byte	0
 1225 02e7 00       		.byte	0
 1226              		.text
 1227              	.Letext0:
 1228              		.file 2 "c:\\program files (x86)\\cypress\\psoc creator\\4.1\\psoc creator\\import\\gnu\\arm\\5.4.
 1229              		.file 3 "Generated_Source\\PSoC4\\cytypes.h"
 1230              		.file 4 "Generated_Source\\PSoC4\\CyLFClk.h"
 1231              		.file 5 "Generated_Source\\PSoC4\\CyLib.h"