ARM GAS  C:\Users\Jacob\AppData\Local\Temp\ccZvmqHu.s 			page 1


   1              		.syntax unified
   2              		.cpu cortex-m0
   3              		.fpu softvfp
   4              		.eabi_attribute 20, 1
   5              		.eabi_attribute 21, 1
   6              		.eabi_attribute 23, 3
   7              		.eabi_attribute 24, 1
   8              		.eabi_attribute 25, 1
   9              		.eabi_attribute 26, 1
  10              		.eabi_attribute 30, 1
  11              		.eabi_attribute 34, 0
  12              		.eabi_attribute 18, 4
  13              		.thumb
  14              		.syntax unified
  15              		.file	"main.c"
  16              		.text
  17              	.Ltext0:
  18              		.cfi_sections	.debug_frame
  19              		.section	.text.main,"ax",%progbits
  20              		.align	2
  21              		.global	main
  22              		.code	16
  23              		.thumb_func
  24              		.type	main, %function
  25              	main:
  26              	.LFB36:
  27              		.file 1 "main.c"
   1:main.c        **** /******************************************************************************
   2:main.c        **** * Project Name		: USB-UART-EGR
   3:main.c        **** * File Name			: main.c
   4:main.c        **** * Version 			: 1.1 (Updated by Dr. Jordan)
   5:main.c        **** * Device Used		: CY8C4245AXI-483
   6:main.c        **** * Software Used		: PSoC Creator 3.0 SP1
   7:main.c        **** * Compiler    		: ARMGCC 4.4.1
   8:main.c        **** * Related Hardware	: CY8CKIT-042 PSoC 4 Pioneer Kit 
   9:main.c        **** *
  10:main.c        **** *
  11:main.c        **** ******************************************************************************
  12:main.c        **** *                           THEORY OF OPERATION
  13:main.c        **** * This project demonstrates UART communication over the kit USB-UART Bridge. 
  14:main.c        **** * The project uses the SCB based UART component which stores the users input in an
  15:main.c        **** * array. when the user press the return key the PSoC will send what has be in the 
  16:main.c        **** * array, then clears the array and sets the pointer back to o.
  17:main.c        **** * 
  18:main.c        **** * UART is configured with
  19:main.c        **** * UART Basic
  20:main.c        **** * 	Mode: Standard
  21:main.c        **** * 	Direction: TX+RX
  22:main.c        **** * 	Baud rate (kbps): 9600
  23:main.c        **** * 	Data bits: 8 bits
  24:main.c        **** * 	Parity: None
  25:main.c        **** * 	Stop bits: 1 bit
  26:main.c        **** * 	Physical connections needed:
  27:main.c        **** * 	Jumper between P0[5] and PSoC 5LP Header J8 P12[6]
  28:main.c        **** * UART Advanced
  29:main.c        **** * 	RX buffer size: 8
  30:main.c        **** * 	TX buffer size: 8
ARM GAS  C:\Users\Jacob\AppData\Local\Temp\ccZvmqHu.s 			page 2


  31:main.c        **** * 	Interrupt: None
  32:main.c        **** *
  33:main.c        **** * Physical Connetion
  34:main.c        **** * Connect jumper wire from the UART RX (P0[4]) of PSoC 4 to J8_10 (P12[7]) of PSoC 5LP
  35:main.c        **** * Connect jumper wire from the UART TX (P0[5]) of PSoC 4 to J8_9 (P12[6]) of PSoC 5LP
  36:main.c        **** * ******************************************************************************/ 
  37:main.c        **** #include <project.h>
  38:main.c        **** #include <stdio.h>
  39:main.c        **** #include <stdlib.h>     // contains strtod(), which converts an ASCII string to a double
  40:main.c        **** #include <string.h>
  41:main.c        **** #include <stdbool.h>
  42:main.c        **** #include <ctype.h>
  43:main.c        **** 
  44:main.c        **** int main()
  45:main.c        **** {
  28              		.loc 1 45 0
  29              		.cfi_startproc
  30              		@ args = 0, pretend = 0, frame = 152
  31              		@ frame_needed = 0, uses_anonymous_args = 0
  32 0000 30B5     		push	{r4, r5, lr}
  33              		.cfi_def_cfa_offset 12
  34              		.cfi_offset 4, -12
  35              		.cfi_offset 5, -8
  36              		.cfi_offset 14, -4
  37 0002 A7B0     		sub	sp, sp, #156
  38              		.cfi_def_cfa_offset 168
  39              	.LVL0:
  46:main.c        ****     char rxbuffer[100];                 // UART receive buffer
  47:main.c        ****     int rxindex;                        // UART receive buffer index
  48:main.c        ****     
  49:main.c        ****     double number;                      // floating-point number
  50:main.c        ****     
  51:main.c        ****     uint8 ch;                           // variable to hold received character
  52:main.c        ****    
  53:main.c        ****     // initialize and clear rxbuffer
  54:main.c        ****     for( rxindex = 0; rxindex < 100; rxindex++ ) {
  40              		.loc 1 54 0
  41 0004 0023     		movs	r3, #0
  42 0006 03E0     		b	.L2
  43              	.LVL1:
  44              	.L3:
  55:main.c        ****         rxbuffer[rxindex] = 0u;
  45              		.loc 1 55 0 discriminator 3
  46 0008 0021     		movs	r1, #0
  47 000a 0DAA     		add	r2, sp, #52
  48 000c D154     		strb	r1, [r2, r3]
  54:main.c        ****         rxbuffer[rxindex] = 0u;
  49              		.loc 1 54 0 discriminator 3
  50 000e 0133     		adds	r3, r3, #1
  51              	.LVL2:
  52              	.L2:
  54:main.c        ****         rxbuffer[rxindex] = 0u;
  53              		.loc 1 54 0 is_stmt 0 discriminator 1
  54 0010 632B     		cmp	r3, #99
  55 0012 F9DD     		ble	.L3
  56              	.LVL3:
  56:main.c        ****     }
ARM GAS  C:\Users\Jacob\AppData\Local\Temp\ccZvmqHu.s 			page 3


  57:main.c        ****     rxindex = 0;                        // initialize rxindex
  58:main.c        ****    
  59:main.c        ****     uart_Start();  // start UART
  57              		.loc 1 59 0 is_stmt 1
  58 0014 FFF7FEFF 		bl	uart_Start
  59              	.LVL4:
  60:main.c        ****     
  61:main.c        ****     // printf( "COM OPEN!\n" );
  62:main.c        **** 	uart_PutString( "COM OPEN!\n" );// display initialization string
  60              		.loc 1 62 0
  61 0018 2848     		ldr	r0, .L15
  62 001a FFF7FEFF 		bl	uart_PutString
  63              	.LVL5:
  63:main.c        **** 	
  64:main.c        ****     // printf( "Type a number: " );
  65:main.c        ****     uart_PutString( "Type a number: " );
  64              		.loc 1 65 0
  65 001e 2848     		ldr	r0, .L15+4
  66 0020 FFF7FEFF 		bl	uart_PutString
  67              	.LVL6:
  57:main.c        ****    
  68              		.loc 1 57 0
  69 0024 0025     		movs	r5, #0
  66:main.c        ****     
  67:main.c        ****     // read string until the user presses return
  68:main.c        ****     // scanf( "%s", rxbuffer );
  69:main.c        ****     while( ch != '\r' ) {
  70              		.loc 1 69 0
  71 0026 09E0     		b	.L4
  72              	.LVL7:
  73              	.L6:
  70:main.c        ****         ch = uart_GetChar();        // get the next character
  74              		.loc 1 70 0
  75 0028 FFF7FEFF 		bl	uart_GetChar
  76              	.LVL8:
  77 002c 0400     		movs	r4, r0
  78              	.LVL9:
  71:main.c        ****         
  72:main.c        ****         if( ch != '\r' && ch != 0u ) {  // if the character is not a return or null
  79              		.loc 1 72 0
  80 002e 0D28     		cmp	r0, #13
  81 0030 04D0     		beq	.L4
  82              		.loc 1 72 0 is_stmt 0 discriminator 1
  83 0032 0028     		cmp	r0, #0
  84 0034 02D0     		beq	.L4
  73:main.c        ****             rxbuffer[rxindex] = ch;     // store it in the rxbuffer string
  85              		.loc 1 73 0 is_stmt 1
  86 0036 0DAB     		add	r3, sp, #52
  87 0038 5855     		strb	r0, [r3, r5]
  74:main.c        ****             rxindex++;                  // increment the rxbuffer index
  88              		.loc 1 74 0
  89 003a 0135     		adds	r5, r5, #1
  90              	.LVL10:
  91              	.L4:
  69:main.c        ****         ch = uart_GetChar();        // get the next character
  92              		.loc 1 69 0
  93 003c 0D2C     		cmp	r4, #13
ARM GAS  C:\Users\Jacob\AppData\Local\Temp\ccZvmqHu.s 			page 4


  94 003e F3D1     		bne	.L6
  75:main.c        ****         }
  76:main.c        ****     }
  77:main.c        ****     
  78:main.c        ****     // output the received string to the UART
  79:main.c        ****     // printf( "\n%s\n", rxbuffer );
  80:main.c        ****     uart_PutChar('\n');
  95              		.loc 1 80 0
  96 0040 0A20     		movs	r0, #10
  97 0042 FFF7FEFF 		bl	uart_PutChar
  98              	.LVL11:
  81:main.c        ****     uart_PutString(rxbuffer);
  99              		.loc 1 81 0
 100 0046 0DA8     		add	r0, sp, #52
 101 0048 FFF7FEFF 		bl	uart_PutString
 102              	.LVL12:
  82:main.c        ****     uart_PutChar('\n');
 103              		.loc 1 82 0
 104 004c 0A20     		movs	r0, #10
 105 004e FFF7FEFF 		bl	uart_PutChar
 106              	.LVL13:
  83:main.c        **** 
  84:main.c        ****     // convert the received string to a double (floating-point number)
  85:main.c        ****     //number = strtod( rxbuffer, 0 );
  86:main.c        **** 
  87:main.c        ****    bool hasDigit = false;
  88:main.c        ****    char passCode[50] = "";
 107              		.loc 1 88 0
 108 0052 0023     		movs	r3, #0
 109 0054 0093     		str	r3, [sp]
 110 0056 2E22     		movs	r2, #46
 111 0058 0021     		movs	r1, #0
 112 005a 01A8     		add	r0, sp, #4
 113 005c FFF7FEFF 		bl	memset
 114              	.LVL14:
  89:main.c        ****    int valid = 0;
  90:main.c        **** 
  91:main.c        ****    strcpy(passCode, rxbuffer);
 115              		.loc 1 91 0
 116 0060 0DA9     		add	r1, sp, #52
 117 0062 6846     		mov	r0, sp
 118 0064 FFF7FEFF 		bl	strcpy
 119              	.LVL15:
  92:main.c        ****    uart_PutString(passCode);
 120              		.loc 1 92 0
 121 0068 6846     		mov	r0, sp
 122 006a FFF7FEFF 		bl	uart_PutString
 123              	.LVL16:
 124              	.LBB2:
  93:main.c        **** 
  94:main.c        ****    /* Your solution goes here  */
  95:main.c        ****    for(int i=0; i<3;i++){
 125              		.loc 1 95 0
 126 006e 0023     		movs	r3, #0
 127 0070 08E0     		b	.L7
 128              	.LVL17:
 129              	.L9:
ARM GAS  C:\Users\Jacob\AppData\Local\Temp\ccZvmqHu.s 			page 5


  96:main.c        ****       if(isdigit(passCode[i])){
 130              		.loc 1 96 0
 131 0072 6A46     		mov	r2, sp
 132 0074 D25C     		ldrb	r2, [r2, r3]
 133 0076 1349     		ldr	r1, .L15+8
 134 0078 0968     		ldr	r1, [r1]
 135 007a 8A18     		adds	r2, r1, r2
 136 007c 5278     		ldrb	r2, [r2, #1]
 137 007e 5207     		lsls	r2, r2, #29
 138 0080 04D4     		bmi	.L14
  95:main.c        ****       if(isdigit(passCode[i])){
 139              		.loc 1 95 0 discriminator 2
 140 0082 0133     		adds	r3, r3, #1
 141              	.LVL18:
 142              	.L7:
  95:main.c        ****       if(isdigit(passCode[i])){
 143              		.loc 1 95 0 is_stmt 0 discriminator 1
 144 0084 022B     		cmp	r3, #2
 145 0086 F4DD     		ble	.L9
 146              	.LBE2:
  87:main.c        ****    char passCode[50] = "";
 147              		.loc 1 87 0 is_stmt 1
 148 0088 0020     		movs	r0, #0
 149              	.LBB3:
 150 008a 00E0     		b	.L8
 151              	.L14:
  97:main.c        ****          hasDigit = true;
 152              		.loc 1 97 0
 153 008c 0120     		movs	r0, #1
 154              	.L8:
 155              	.LVL19:
 156              	.LBE3:
  98:main.c        ****         break;
  99:main.c        ****     }
 100:main.c        ****           
 101:main.c        ****    }
 102:main.c        **** 
 103:main.c        ****     // initialize and clear rxbuffer (good practice to avoid bugs)
 104:main.c        ****     for( rxindex = 0; rxindex < 100; rxindex++ ) {
 157              		.loc 1 104 0
 158 008e 0023     		movs	r3, #0
 159              	.LVL20:
 160 0090 03E0     		b	.L10
 161              	.LVL21:
 162              	.L11:
 105:main.c        ****         rxbuffer[rxindex] = 0u;
 163              		.loc 1 105 0 discriminator 3
 164 0092 0021     		movs	r1, #0
 165 0094 0DAA     		add	r2, sp, #52
 166 0096 D154     		strb	r1, [r2, r3]
 104:main.c        ****         rxbuffer[rxindex] = 0u;
 167              		.loc 1 104 0 discriminator 3
 168 0098 0133     		adds	r3, r3, #1
 169              	.LVL22:
 170              	.L10:
 104:main.c        ****         rxbuffer[rxindex] = 0u;
 171              		.loc 1 104 0 is_stmt 0 discriminator 1
ARM GAS  C:\Users\Jacob\AppData\Local\Temp\ccZvmqHu.s 			page 6


 172 009a 632B     		cmp	r3, #99
 173 009c F9DD     		ble	.L11
 174              	.LVL23:
 106:main.c        ****     }
 107:main.c        ****     rxindex = 0;        // initialize rxindex
 108:main.c        ****     
 109:main.c        ****     // output the float as a string and store it in rxbuffer
 110:main.c        ****     // NOTE: In order to properly output doubles, you must enable them in the compiler
 111:main.c        ****     // See http://www.cypress.com/?id=4&rID=87354 for more details
 112:main.c        ****    if (hasDigit) {
 175              		.loc 1 112 0 is_stmt 1
 176 009e 0028     		cmp	r0, #0
 177 00a0 03D0     		beq	.L12
 113:main.c        ****      uart_PutString(" has a digit.\n");
 178              		.loc 1 113 0
 179 00a2 0948     		ldr	r0, .L15+12
 180              	.LVL24:
 181 00a4 FFF7FEFF 		bl	uart_PutString
 182              	.LVL25:
 183 00a8 02E0     		b	.L13
 184              	.LVL26:
 185              	.L12:
 114:main.c        ****    }
 115:main.c        ****    else {
 116:main.c        ****       uart_PutString(" has no digit.\n");
 186              		.loc 1 116 0
 187 00aa 0848     		ldr	r0, .L15+16
 188              	.LVL27:
 189 00ac FFF7FEFF 		bl	uart_PutString
 190              	.LVL28:
 191              	.L13:
 117:main.c        ****    }
 118:main.c        ****     
 119:main.c        ****     // output the new string to the UART
 120:main.c        ****     // printf( "\n%s\n", rxbuffer );
 121:main.c        ****     uart_PutChar('\n');
 192              		.loc 1 121 0
 193 00b0 0A20     		movs	r0, #10
 194 00b2 FFF7FEFF 		bl	uart_PutChar
 195              	.LVL29:
 122:main.c        **** //    uart_PutString(rxbuffer);
 123:main.c        **** //    uart_PutChar('\n');
 124:main.c        ****     
 125:main.c        ****     return 0;
 126:main.c        **** }
 196              		.loc 1 126 0
 197 00b6 0020     		movs	r0, #0
 198 00b8 27B0     		add	sp, sp, #156
 199              		@ sp needed
 200              	.LVL30:
 201 00ba 30BD     		pop	{r4, r5, pc}
 202              	.L16:
 203              		.align	2
 204              	.L15:
 205 00bc 00000000 		.word	.LC0
 206 00c0 0C000000 		.word	.LC2
 207 00c4 00000000 		.word	__ctype_ptr__
ARM GAS  C:\Users\Jacob\AppData\Local\Temp\ccZvmqHu.s 			page 7


 208 00c8 1C000000 		.word	.LC5
 209 00cc 2C000000 		.word	.LC7
 210              		.cfi_endproc
 211              	.LFE36:
 212              		.size	main, .-main
 213              		.section	.rodata.str1.4,"aMS",%progbits,1
 214              		.align	2
 215              	.LC0:
 216 0000 434F4D20 		.ascii	"COM OPEN!\012\000"
 216      4F50454E 
 216      210A00
 217 000b 00       		.space	1
 218              	.LC2:
 219 000c 54797065 		.ascii	"Type a number: \000"
 219      2061206E 
 219      756D6265 
 219      723A2000 
 220              	.LC5:
 221 001c 20686173 		.ascii	" has a digit.\012\000"
 221      20612064 
 221      69676974 
 221      2E0A00
 222 002b 00       		.space	1
 223              	.LC7:
 224 002c 20686173 		.ascii	" has no digit.\012\000"
 224      206E6F20 
 224      64696769 
 224      742E0A00 
 225              		.text
 226              	.Letext0:
 227              		.file 2 "Generated_Source\\PSoC4/uart.h"
 228              		.file 3 "c:\\program files (x86)\\cypress\\psoc creator\\4.1\\psoc creator\\import\\gnu\\arm\\5.4.
 229              		.file 4 "Generated_Source\\PSoC4/cytypes.h"
 230              		.file 5 "c:\\program files (x86)\\cypress\\psoc creator\\4.1\\psoc creator\\import\\gnu\\arm\\5.4.