ARM GAS  C:\Users\Jacob\AppData\Local\Temp\ccs4dAct.s 			page 1


   1              		.syntax unified
   2              		.cpu cortex-m0
   3              		.fpu softvfp
   4              		.eabi_attribute 20, 1
   5              		.eabi_attribute 21, 1
   6              		.eabi_attribute 23, 3
   7              		.eabi_attribute 24, 1
   8              		.eabi_attribute 25, 1
   9              		.eabi_attribute 26, 1
  10              		.eabi_attribute 30, 1
  11              		.eabi_attribute 34, 0
  12              		.eabi_attribute 18, 4
  13              		.thumb
  14              		.syntax unified
  15              		.file	"main.c"
  16              		.text
  17              	.Ltext0:
  18              		.cfi_sections	.debug_frame
  19              		.global	__aeabi_fmul
  20              		.global	__aeabi_fadd
  21              		.global	__aeabi_f2iz
  22              		.section	.text.theta1,"ax",%progbits
  23              		.align	2
  24              		.global	theta1
  25              		.code	16
  26              		.thumb_func
  27              		.type	theta1, %function
  28              	theta1:
  29              	.LFB35:
  30              		.file 1 "main.c"
   1:main.c        **** /* ========================================
   2:main.c        ****  *
   3:main.c        ****  * Copyright YOUR COMPANY, THE YEAR
   4:main.c        ****  * All Rights Reserved
   5:main.c        ****  * UNPUBLISHED, LICENSED SOFTWARE.
   6:main.c        ****  *
   7:main.c        ****  * CONFIDENTIAL AND PROPRIETARY INFORMATION
   8:main.c        ****  * WHICH IS THE PROPERTY OF your company.
   9:main.c        ****  *
  10:main.c        ****  * ========================================
  11:main.c        **** */
  12:main.c        **** //#include "project.h"
  13:main.c        **** #include <main.h>
  14:main.c        **** 
  15:main.c        **** int theta1(float angle){
  31              		.loc 1 15 0
  32              		.cfi_startproc
  33              		@ args = 0, pretend = 0, frame = 0
  34              		@ frame_needed = 0, uses_anonymous_args = 0
  35              	.LVL0:
  36 0000 10B5     		push	{r4, lr}
  37              		.cfi_def_cfa_offset 8
  38              		.cfi_offset 4, -8
  39              		.cfi_offset 14, -4
  40              	.LVL1:
  16:main.c        ****     int max_comp = 6450, min_comp = 1600, max_angle=180, min_angle=0;
  17:main.c        ****     int compare;
ARM GAS  C:\Users\Jacob\AppData\Local\Temp\ccs4dAct.s 			page 2


  18:main.c        ****     compare = (max_comp-min_comp)/(max_angle-min_angle)*(angle-min_angle) + min_comp;
  41              		.loc 1 18 0
  42 0002 0449     		ldr	r1, .L2
  43 0004 FFF7FEFF 		bl	__aeabi_fmul
  44              	.LVL2:
  45 0008 0349     		ldr	r1, .L2+4
  46 000a FFF7FEFF 		bl	__aeabi_fadd
  47              	.LVL3:
  48 000e FFF7FEFF 		bl	__aeabi_f2iz
  49              	.LVL4:
  19:main.c        ****     return compare;
  20:main.c        **** }
  50              		.loc 1 20 0
  51              		@ sp needed
  52 0012 10BD     		pop	{r4, pc}
  53              	.L3:
  54              		.align	2
  55              	.L2:
  56 0014 0000D041 		.word	1104150528
  57 0018 0000C844 		.word	1153957888
  58              		.cfi_endproc
  59              	.LFE35:
  60              		.size	theta1, .-theta1
  61              		.section	.text.theta2,"ax",%progbits
  62              		.align	2
  63              		.global	theta2
  64              		.code	16
  65              		.thumb_func
  66              		.type	theta2, %function
  67              	theta2:
  68              	.LFB36:
  21:main.c        **** int theta2(float angle){
  69              		.loc 1 21 0
  70              		.cfi_startproc
  71              		@ args = 0, pretend = 0, frame = 0
  72              		@ frame_needed = 0, uses_anonymous_args = 0
  73              	.LVL5:
  74 0000 10B5     		push	{r4, lr}
  75              		.cfi_def_cfa_offset 8
  76              		.cfi_offset 4, -8
  77              		.cfi_offset 14, -4
  78              	.LVL6:
  22:main.c        ****     int max_comp = 6750, min_comp = 2050, max_angle=180, min_angle=0;
  23:main.c        ****     int compare;
  24:main.c        ****     compare = (max_comp-min_comp)/(max_angle-min_angle)*(angle-min_angle) + min_comp;
  79              		.loc 1 24 0
  80 0002 0449     		ldr	r1, .L5
  81 0004 FFF7FEFF 		bl	__aeabi_fmul
  82              	.LVL7:
  83 0008 0349     		ldr	r1, .L5+4
  84 000a FFF7FEFF 		bl	__aeabi_fadd
  85              	.LVL8:
  86 000e FFF7FEFF 		bl	__aeabi_f2iz
  87              	.LVL9:
  25:main.c        ****     return compare;
  26:main.c        **** }
  88              		.loc 1 26 0
ARM GAS  C:\Users\Jacob\AppData\Local\Temp\ccs4dAct.s 			page 3


  89              		@ sp needed
  90 0012 10BD     		pop	{r4, pc}
  91              	.L6:
  92              		.align	2
  93              	.L5:
  94 0014 0000D041 		.word	1104150528
  95 0018 00200045 		.word	1157636096
  96              		.cfi_endproc
  97              	.LFE36:
  98              		.size	theta2, .-theta2
  99              		.section	.text.calibrateServos,"ax",%progbits
 100              		.align	2
 101              		.global	calibrateServos
 102              		.code	16
 103              		.thumb_func
 104              		.type	calibrateServos, %function
 105              	calibrateServos:
 106              	.LFB37:
  27:main.c        **** 
  28:main.c        **** void calibrateServos(){
 107              		.loc 1 28 0
 108              		.cfi_startproc
 109              		@ Volatile: function does not return.
 110              		@ args = 0, pretend = 0, frame = 0
 111              		@ frame_needed = 0, uses_anonymous_args = 0
 112 0000 70B5     		push	{r4, r5, r6, lr}
 113              		.cfi_def_cfa_offset 16
 114              		.cfi_offset 4, -16
 115              		.cfi_offset 5, -12
 116              		.cfi_offset 6, -8
 117              		.cfi_offset 14, -4
 118              	.L8:
  29:main.c        ****     for(;;)
  30:main.c        ****     {
  31:main.c        ****         /* Place your application code here. */
  32:main.c        ****         Servos_WriteCompare1(theta1(0.0));
 119              		.loc 1 32 0 discriminator 1
 120 0002 0025     		movs	r5, #0
 121 0004 281C     		adds	r0, r5, #0
 122 0006 FFF7FEFF 		bl	theta1
 123              	.LVL10:
 124 000a 80B2     		uxth	r0, r0
 125 000c FFF7FEFF 		bl	Servos_WriteCompare1
 126              	.LVL11:
  33:main.c        ****         CyDelay(1000);
 127              		.loc 1 33 0 discriminator 1
 128 0010 FA24     		movs	r4, #250
 129 0012 A400     		lsls	r4, r4, #2
 130 0014 2000     		movs	r0, r4
 131 0016 FFF7FEFF 		bl	CyDelay
 132              	.LVL12:
  34:main.c        ****         Servos_WriteCompare2(theta2(0.0));
 133              		.loc 1 34 0 discriminator 1
 134 001a 281C     		adds	r0, r5, #0
 135 001c FFF7FEFF 		bl	theta2
 136              	.LVL13:
 137 0020 80B2     		uxth	r0, r0
ARM GAS  C:\Users\Jacob\AppData\Local\Temp\ccs4dAct.s 			page 4


 138 0022 FFF7FEFF 		bl	Servos_WriteCompare2
 139              	.LVL14:
  35:main.c        ****         CyDelay(1000);
 140              		.loc 1 35 0 discriminator 1
 141 0026 2000     		movs	r0, r4
 142 0028 FFF7FEFF 		bl	CyDelay
 143              	.LVL15:
 144 002c E9E7     		b	.L8
 145              		.cfi_endproc
 146              	.LFE37:
 147              		.size	calibrateServos, .-calibrateServos
 148 002e C046     		.section	.text.main,"ax",%progbits
 149              		.align	2
 150              		.global	main
 151              		.code	16
 152              		.thumb_func
 153              		.type	main, %function
 154              	main:
 155              	.LFB38:
  36:main.c        ****     
  37:main.c        ****     }
  38:main.c        **** }
  39:main.c        ****     
  40:main.c        **** 
  41:main.c        **** int main(void)
  42:main.c        **** {
 156              		.loc 1 42 0
 157              		.cfi_startproc
 158              		@ args = 0, pretend = 0, frame = 0
 159              		@ frame_needed = 0, uses_anonymous_args = 0
 160 0000 30B5     		push	{r4, r5, lr}
 161              		.cfi_def_cfa_offset 12
 162              		.cfi_offset 4, -12
 163              		.cfi_offset 5, -8
 164              		.cfi_offset 14, -4
 165 0002 85B0     		sub	sp, sp, #20
 166              		.cfi_def_cfa_offset 32
  43:main.c        ****     //CyGlobalIntEnable; /* Enable global interrupts. */
  44:main.c        **** 
  45:main.c        ****     /* Place your initialization/startup code here (e.g. MyInst_Start()) */
  46:main.c        ****     initializeServos();
 167              		.loc 1 46 0
 168 0004 FFF7FEFF 		bl	initializeServos
 169              	.LVL16:
  47:main.c        ****     moveServo(BottomServo,0.0);
 170              		.loc 1 47 0
 171 0008 104B     		ldr	r3, .L11
 172 000a 0024     		movs	r4, #0
 173 000c 0294     		str	r4, [sp, #8]
 174 000e 1A00     		movs	r2, r3
 175 0010 1032     		adds	r2, r2, #16
 176 0012 6946     		mov	r1, sp
 177 0014 21CA     		ldmia	r2!, {r0, r5}
 178 0016 21C1     		stmia	r1!, {r0, r5}
 179 0018 1868     		ldr	r0, [r3]
 180 001a 5968     		ldr	r1, [r3, #4]
 181 001c 9A68     		ldr	r2, [r3, #8]
ARM GAS  C:\Users\Jacob\AppData\Local\Temp\ccs4dAct.s 			page 5


 182 001e DB68     		ldr	r3, [r3, #12]
 183 0020 FFF7FEFF 		bl	moveServo
 184              	.LVL17:
  48:main.c        ****     //Servos_WriteCompare1(theta1(0.0));
  49:main.c        ****     Servos_WriteCompare2(theta2(0.0));
 185              		.loc 1 49 0
 186 0024 201C     		adds	r0, r4, #0
 187 0026 FFF7FEFF 		bl	theta2
 188              	.LVL18:
 189 002a 80B2     		uxth	r0, r0
 190 002c FFF7FEFF 		bl	Servos_WriteCompare2
 191              	.LVL19:
  50:main.c        ****     CyDelay(3000);
 192              		.loc 1 50 0
 193 0030 0748     		ldr	r0, .L11+4
 194 0032 FFF7FEFF 		bl	CyDelay
 195              	.LVL20:
 196              	.L10:
  51:main.c        ****     
  52:main.c        ****     float velocity = 0;//deg per s
  53:main.c        ****     float angle1=0.0;
  54:main.c        ****     float inc = velocity/100.0;
  55:main.c        ****     while(angle1 < 180.0){
  56:main.c        ****         Servos_WriteCompare1(theta1(0.0));
 197              		.loc 1 56 0
 198 0036 0020     		movs	r0, #0
 199 0038 FFF7FEFF 		bl	theta1
 200              	.LVL21:
 201 003c 80B2     		uxth	r0, r0
 202 003e FFF7FEFF 		bl	Servos_WriteCompare1
 203              	.LVL22:
  57:main.c        ****         angle1+=inc;
  58:main.c        ****         CyDelay(10);
 204              		.loc 1 58 0
 205 0042 0A20     		movs	r0, #10
 206 0044 FFF7FEFF 		bl	CyDelay
 207              	.LVL23:
 208 0048 F5E7     		b	.L10
 209              	.L12:
 210 004a C046     		.align	2
 211              	.L11:
 212 004c 00000000 		.word	BottomServo
 213 0050 B80B0000 		.word	3000
 214              		.cfi_endproc
 215              	.LFE38:
 216              		.size	main, .-main
 217              		.comm	TopServo,24,4
 218              		.comm	BottomServo,24,4
 219              		.comm	a,4,4
 220              		.text
 221              	.Letext0:
 222              		.file 2 "./main.h"
 223              		.file 3 "Generated_Source\\PSoC4/Servos.h"
 224              		.file 4 "Generated_Source\\PSoC4/CyLib.h"