ARM GAS  C:\Users\Jacob\AppData\Local\Temp\cc2CJX4I.s 			page 1


   1              		.syntax unified
   2              		.cpu cortex-m0
   3              		.fpu softvfp
   4              		.eabi_attribute 20, 1
   5              		.eabi_attribute 21, 1
   6              		.eabi_attribute 23, 3
   7              		.eabi_attribute 24, 1
   8              		.eabi_attribute 25, 1
   9              		.eabi_attribute 26, 1
  10              		.eabi_attribute 30, 1
  11              		.eabi_attribute 34, 0
  12              		.eabi_attribute 18, 4
  13              		.thumb
  14              		.syntax unified
  15              		.file	"untitled01.c"
  16              		.text
  17              	.Ltext0:
  18              		.cfi_sections	.debug_frame
  19              		.section	.text.hi,"ax",%progbits
  20              		.align	2
  21              		.global	hi
  22              		.code	16
  23              		.thumb_func
  24              		.type	hi, %function
  25              	hi:
  26              	.LFB35:
  27              		.file 1 "untitled01.c"
   1:untitled01.c  **** /* ========================================
   2:untitled01.c  ****  *
   3:untitled01.c  ****  * Copyright YOUR COMPANY, THE YEAR
   4:untitled01.c  ****  * All Rights Reserved
   5:untitled01.c  ****  * UNPUBLISHED, LICENSED SOFTWARE.
   6:untitled01.c  ****  *
   7:untitled01.c  ****  * CONFIDENTIAL AND PROPRIETARY INFORMATION
   8:untitled01.c  ****  * WHICH IS THE PROPERTY OF your company.
   9:untitled01.c  ****  *
  10:untitled01.c  ****  * ========================================
  11:untitled01.c  **** */
  12:untitled01.c  **** #include <main.h>
  13:untitled01.c  **** 
  14:untitled01.c  **** void hi(){
  28              		.loc 1 14 0
  29              		.cfi_startproc
  30              		@ args = 0, pretend = 0, frame = 0
  31              		@ frame_needed = 0, uses_anonymous_args = 0
  32              		@ link register save eliminated.
  15:untitled01.c  ****     a=2;
  33              		.loc 1 15 0
  34 0000 0222     		movs	r2, #2
  35 0002 014B     		ldr	r3, .L2
  36 0004 1A60     		str	r2, [r3]
  16:untitled01.c  **** }
  37              		.loc 1 16 0
  38              		@ sp needed
  39 0006 7047     		bx	lr
  40              	.L3:
  41              		.align	2
ARM GAS  C:\Users\Jacob\AppData\Local\Temp\cc2CJX4I.s 			page 2


  42              	.L2:
  43 0008 00000000 		.word	a
  44              		.cfi_endproc
  45              	.LFE35:
  46              		.size	hi, .-hi
  47              		.section	.text.initializeServos,"ax",%progbits
  48              		.align	2
  49              		.global	initializeServos
  50              		.code	16
  51              		.thumb_func
  52              		.type	initializeServos, %function
  53              	initializeServos:
  54              	.LFB36:
  17:untitled01.c  **** void initializeServos(){
  55              		.loc 1 17 0
  56              		.cfi_startproc
  57              		@ args = 0, pretend = 0, frame = 0
  58              		@ frame_needed = 0, uses_anonymous_args = 0
  59 0000 10B5     		push	{r4, lr}
  60              		.cfi_def_cfa_offset 8
  61              		.cfi_offset 4, -8
  62              		.cfi_offset 14, -4
  18:untitled01.c  ****     
  19:untitled01.c  ****     Servos_Start();
  63              		.loc 1 19 0
  64 0002 FFF7FEFF 		bl	Servos_Start
  65              	.LVL0:
  20:untitled01.c  ****     
  21:untitled01.c  ****     BottomServo.minComp = 1600;
  66              		.loc 1 21 0
  67 0006 0B4B     		ldr	r3, .L5
  68 0008 C822     		movs	r2, #200
  69 000a D200     		lsls	r2, r2, #3
  70 000c 5A60     		str	r2, [r3, #4]
  22:untitled01.c  ****     BottomServo.maxComp = 6450;
  71              		.loc 1 22 0
  72 000e 0A4A     		ldr	r2, .L5+4
  73 0010 1A60     		str	r2, [r3]
  23:untitled01.c  ****     BottomServo.minAngle = 0.0;
  74              		.loc 1 23 0
  75 0012 0021     		movs	r1, #0
  76 0014 D960     		str	r1, [r3, #12]
  24:untitled01.c  ****     BottomServo.maxAngle = 180.0;
  77              		.loc 1 24 0
  78 0016 094A     		ldr	r2, .L5+8
  79 0018 9A60     		str	r2, [r3, #8]
  25:untitled01.c  ****     BottomServo.write = Servos_WriteCompare1;
  80              		.loc 1 25 0
  81 001a 0948     		ldr	r0, .L5+12
  82 001c 5861     		str	r0, [r3, #20]
  26:untitled01.c  ****     
  27:untitled01.c  ****     TopServo.minComp = 2050;
  83              		.loc 1 27 0
  84 001e 094B     		ldr	r3, .L5+16
  85 0020 0948     		ldr	r0, .L5+20
  86 0022 5860     		str	r0, [r3, #4]
  28:untitled01.c  ****     TopServo.maxComp = 6750;
ARM GAS  C:\Users\Jacob\AppData\Local\Temp\cc2CJX4I.s 			page 3


  87              		.loc 1 28 0
  88 0024 0948     		ldr	r0, .L5+24
  89 0026 1860     		str	r0, [r3]
  29:untitled01.c  ****     TopServo.minAngle = 0.0;
  90              		.loc 1 29 0
  91 0028 D960     		str	r1, [r3, #12]
  30:untitled01.c  ****     TopServo.maxAngle = 180.0;
  92              		.loc 1 30 0
  93 002a 9A60     		str	r2, [r3, #8]
  31:untitled01.c  ****     TopServo.write = Servos_WriteCompare2;
  94              		.loc 1 31 0
  95 002c 084A     		ldr	r2, .L5+28
  96 002e 5A61     		str	r2, [r3, #20]
  32:untitled01.c  **** }
  97              		.loc 1 32 0
  98              		@ sp needed
  99 0030 10BD     		pop	{r4, pc}
 100              	.L6:
 101 0032 C046     		.align	2
 102              	.L5:
 103 0034 00000000 		.word	BottomServo
 104 0038 32190000 		.word	6450
 105 003c 00003443 		.word	1127481344
 106 0040 00000000 		.word	Servos_WriteCompare1
 107 0044 00000000 		.word	TopServo
 108 0048 02080000 		.word	2050
 109 004c 5E1A0000 		.word	6750
 110 0050 00000000 		.word	Servos_WriteCompare2
 111              		.cfi_endproc
 112              	.LFE36:
 113              		.size	initializeServos, .-initializeServos
 114              		.global	__aeabi_fsub
 115              		.global	__aeabi_i2f
 116              		.global	__aeabi_fdiv
 117              		.global	__aeabi_fmul
 118              		.global	__aeabi_fadd
 119              		.global	__aeabi_f2iz
 120              		.section	.text.getCompare,"ax",%progbits
 121              		.align	2
 122              		.global	getCompare
 123              		.code	16
 124              		.thumb_func
 125              		.type	getCompare, %function
 126              	getCompare:
 127              	.LFB37:
  33:untitled01.c  **** 
  34:untitled01.c  **** int getCompare(struct Servo s, float angle){
 128              		.loc 1 34 0
 129              		.cfi_startproc
 130              		@ args = 28, pretend = 16, frame = 0
 131              		@ frame_needed = 0, uses_anonymous_args = 0
 132              	.LVL1:
 133 0000 84B0     		sub	sp, sp, #16
 134              		.cfi_def_cfa_offset 16
 135 0002 F8B5     		push	{r3, r4, r5, r6, r7, lr}
 136              		.cfi_def_cfa_offset 40
 137              		.cfi_offset 3, -40
ARM GAS  C:\Users\Jacob\AppData\Local\Temp\cc2CJX4I.s 			page 4


 138              		.cfi_offset 4, -36
 139              		.cfi_offset 5, -32
 140              		.cfi_offset 6, -28
 141              		.cfi_offset 7, -24
 142              		.cfi_offset 14, -20
 143 0004 0690     		str	r0, [sp, #24]
 144 0006 0C00     		movs	r4, r1
 145 0008 0791     		str	r1, [sp, #28]
 146 000a 0892     		str	r2, [sp, #32]
 147 000c 0993     		str	r3, [sp, #36]
  35:untitled01.c  ****     s.compare = (s.maxComp-s.minComp)/(s.maxAngle-s.minAngle)*(angle-s.minAngle) + s.minComp;
 148              		.loc 1 35 0
 149 000e 451A     		subs	r5, r0, r1
 150 0010 099E     		ldr	r6, [sp, #36]
 151 0012 311C     		adds	r1, r6, #0
 152 0014 0898     		ldr	r0, [sp, #32]
 153 0016 FFF7FEFF 		bl	__aeabi_fsub
 154              	.LVL2:
 155 001a 071C     		adds	r7, r0, #0
 156 001c 2800     		movs	r0, r5
 157 001e FFF7FEFF 		bl	__aeabi_i2f
 158              	.LVL3:
 159 0022 391C     		adds	r1, r7, #0
 160 0024 FFF7FEFF 		bl	__aeabi_fdiv
 161              	.LVL4:
 162 0028 051C     		adds	r5, r0, #0
 163 002a 311C     		adds	r1, r6, #0
 164 002c 0C98     		ldr	r0, [sp, #48]
 165 002e FFF7FEFF 		bl	__aeabi_fsub
 166              	.LVL5:
 167 0032 011C     		adds	r1, r0, #0
 168 0034 281C     		adds	r0, r5, #0
 169 0036 FFF7FEFF 		bl	__aeabi_fmul
 170              	.LVL6:
 171 003a 051C     		adds	r5, r0, #0
 172 003c 2000     		movs	r0, r4
 173 003e FFF7FEFF 		bl	__aeabi_i2f
 174              	.LVL7:
 175 0042 291C     		adds	r1, r5, #0
 176 0044 FFF7FEFF 		bl	__aeabi_fadd
 177              	.LVL8:
 178 0048 FFF7FEFF 		bl	__aeabi_f2iz
 179              	.LVL9:
  36:untitled01.c  ****     return s.compare;
  37:untitled01.c  **** }
 180              		.loc 1 37 0
 181              		@ sp needed
 182 004c F8BC     		pop	{r3, r4, r5, r6, r7}
 183 004e 08BC     		pop	{r3}
 184 0050 04B0     		add	sp, sp, #16
 185 0052 1847     		bx	r3
 186              		.cfi_endproc
 187              	.LFE37:
 188              		.size	getCompare, .-getCompare
 189              		.section	.text.moveServo,"ax",%progbits
 190              		.align	2
 191              		.global	moveServo
ARM GAS  C:\Users\Jacob\AppData\Local\Temp\cc2CJX4I.s 			page 5


 192              		.code	16
 193              		.thumb_func
 194              		.type	moveServo, %function
 195              	moveServo:
 196              	.LFB38:
  38:untitled01.c  **** 
  39:untitled01.c  **** void moveServo(struct Servo s, float angle){
 197              		.loc 1 39 0
 198              		.cfi_startproc
 199              		@ args = 28, pretend = 16, frame = 0
 200              		@ frame_needed = 0, uses_anonymous_args = 0
 201              	.LVL10:
 202 0000 84B0     		sub	sp, sp, #16
 203              		.cfi_def_cfa_offset 16
 204 0002 10B5     		push	{r4, lr}
 205              		.cfi_def_cfa_offset 24
 206              		.cfi_offset 4, -24
 207              		.cfi_offset 14, -20
 208 0004 0290     		str	r0, [sp, #8]
 209 0006 0391     		str	r1, [sp, #12]
 210 0008 0492     		str	r2, [sp, #16]
 211 000a 0593     		str	r3, [sp, #20]
  40:untitled01.c  ****     getCompare(s,angle);
  41:untitled01.c  ****     s.write(s.compare);
 212              		.loc 1 41 0
 213 000c 069B     		ldr	r3, [sp, #24]
 214 000e 98B2     		uxth	r0, r3
 215 0010 079B     		ldr	r3, [sp, #28]
 216 0012 9847     		blx	r3
 217              	.LVL11:
  42:untitled01.c  **** }
 218              		.loc 1 42 0
 219              		@ sp needed
 220 0014 10BC     		pop	{r4}
 221 0016 08BC     		pop	{r3}
 222 0018 04B0     		add	sp, sp, #16
 223 001a 1847     		bx	r3
 224              		.cfi_endproc
 225              	.LFE38:
 226              		.size	moveServo, .-moveServo
 227              		.comm	TopServo,24,4
 228              		.comm	BottomServo,24,4
 229              		.comm	a,4,4
 230              		.text
 231              	.Letext0:
 232              		.file 2 "./main.h"
 233              		.file 3 "Generated_Source\\PSoC4/Servos.h"