ARM GAS  C:\Users\Jacob\AppData\Local\Temp\cc4caphS.s 			page 1


   1              		.syntax unified
   2              		.cpu cortex-m3
   3              		.fpu softvfp
   4              		.eabi_attribute 20, 1
   5              		.eabi_attribute 21, 1
   6              		.eabi_attribute 23, 3
   7              		.eabi_attribute 24, 1
   8              		.eabi_attribute 25, 1
   9              		.eabi_attribute 26, 1
  10              		.eabi_attribute 30, 1
  11              		.eabi_attribute 34, 1
  12              		.eabi_attribute 18, 4
  13              		.thumb
  14              		.syntax unified
  15              		.file	"main.c"
  16              		.text
  17              	.Ltext0:
  18              		.cfi_sections	.debug_frame
  19              		.global	__aeabi_i2f
  20              		.global	__aeabi_fmul
  21              		.global	__aeabi_f2iz
  22              		.section	.text.main,"ax",%progbits
  23              		.align	2
  24              		.global	main
  25              		.thumb
  26              		.thumb_func
  27              		.type	main, %function
  28              	main:
  29              	.LFB63:
  30              		.file 1 "main.c"
   1:main.c        **** /* ========================================
   2:main.c        ****  *
   3:main.c        ****  * Copyright YOUR COMPANY, THE YEAR
   4:main.c        ****  * All Rights Reserved
   5:main.c        ****  * UNPUBLISHED, LICENSED SOFTWARE.
   6:main.c        ****  *
   7:main.c        ****  * CONFIDENTIAL AND PROPRIETARY INFORMATION
   8:main.c        ****  * WHICH IS THE PROPERTY OF your company.
   9:main.c        ****  *
  10:main.c        ****  * ========================================
  11:main.c        **** */
  12:main.c        **** #include "project.h"
  13:main.c        **** #include "stdlib.h"
  14:main.c        **** #include "math.h"
  15:main.c        **** 
  16:main.c        **** int main(void)
  17:main.c        **** {
  31              		.loc 1 17 0
  32              		.cfi_startproc
  33              		@ args = 0, pretend = 0, frame = 0
  34              		@ frame_needed = 0, uses_anonymous_args = 0
  35 0000 F8B5     		push	{r3, r4, r5, r6, r7, lr}
  36              		.cfi_def_cfa_offset 24
  37              		.cfi_offset 3, -24
  38              		.cfi_offset 4, -20
  39              		.cfi_offset 5, -16
  40              		.cfi_offset 6, -12
ARM GAS  C:\Users\Jacob\AppData\Local\Temp\cc4caphS.s 			page 2


  41              		.cfi_offset 7, -8
  42              		.cfi_offset 14, -4
  43              	.LVL0:
  18:main.c        ****     int count, count2, dCount, target1=1000, target2=2000;
  19:main.c        ****     int rot, deg;
  20:main.c        ****     float cpr = 814.0, rpm;
  21:main.c        ****     int compare;
  22:main.c        ****     int time;
  23:main.c        ****     int error, P;
  24:main.c        ****     float kP=3.0;
  25:main.c        ****     enc_Start();    
  44              		.loc 1 25 0
  45 0002 FFF7FEFF 		bl	enc_Start
  46              	.LVL1:
  26:main.c        ****     lcd_Start();
  47              		.loc 1 26 0
  48 0006 FFF7FEFF 		bl	lcd_Start
  49              	.LVL2:
  27:main.c        ****     pwm_Start();
  50              		.loc 1 27 0
  51 000a FFF7FEFF 		bl	pwm_Start
  52              	.LVL3:
  28:main.c        ****     enc_SetCounter(0);
  53              		.loc 1 28 0
  54 000e 0020     		movs	r0, #0
  55 0010 FFF7FEFF 		bl	enc_SetCounter
  56              	.LVL4:
  29:main.c        ****     uart_Start();
  57              		.loc 1 29 0
  58 0014 FFF7FEFF 		bl	uart_Start
  59              	.LVL5:
  30:main.c        ****     uint8 receive, val1, val2;
  31:main.c        ****     
  32:main.c        ****     receive = uart_GetChar();
  60              		.loc 1 32 0
  61 0018 FFF7FEFF 		bl	uart_GetChar
  62              	.LVL6:
  33:main.c        ****     while(!receive)
  63              		.loc 1 33 0
  64 001c 01E0     		b	.L2
  65              	.L3:
  34:main.c        ****         receive = uart_GetChar();
  66              		.loc 1 34 0
  67 001e FFF7FEFF 		bl	uart_GetChar
  68              	.LVL7:
  69              	.L2:
  33:main.c        ****     while(!receive)
  70              		.loc 1 33 0
  71 0022 0028     		cmp	r0, #0
  72 0024 FBD0     		beq	.L3
  73              	.LVL8:
  74              	.L16:
  35:main.c        ****     
  36:main.c        **** 
  37:main.c        **** //    while(1){
  38:main.c        **** //        receive = uart_GetChar();
  39:main.c        **** //        if(receive){
ARM GAS  C:\Users\Jacob\AppData\Local\Temp\cc4caphS.s 			page 3


  40:main.c        **** //            lcd_ClearDisplay();
  41:main.c        **** //            lcd_Position(0,0);
  42:main.c        **** //            lcd_PrintNumber(receive);
  43:main.c        **** //            for(uint8 i=1;i<=10;i++){
  44:main.c        **** //                uart_PutChar(i);
  45:main.c        **** //                CyDelay(200);
  46:main.c        **** //            }
  47:main.c        **** //        }
  48:main.c        **** //    }
  49:main.c        ****     for(;;)
  50:main.c        ****     {
  51:main.c        ****         count = enc_GetCounter();
  75              		.loc 1 51 0
  76 0026 FFF7FEFF 		bl	enc_GetCounter
  77              	.LVL9:
  52:main.c        ****         time=0;
  78              		.loc 1 52 0
  79 002a 0026     		movs	r6, #0
  53:main.c        ****         while(time<2000){
  80              		.loc 1 53 0
  81 002c 3DE0     		b	.L4
  82              	.LVL10:
  83              	.L9:
  54:main.c        ****             count = enc_GetCounter();
  84              		.loc 1 54 0
  85 002e FFF7FEFF 		bl	enc_GetCounter
  86              	.LVL11:
  87 0032 0446     		mov	r4, r0
  88              	.LVL12:
  55:main.c        ****             error = target1 - count;
  89              		.loc 1 55 0
  90 0034 C0F57A77 		rsb	r7, r0, #1000
  91              	.LVL13:
  56:main.c        ****             P = kP*abs(error);
  92              		.loc 1 56 0
  93 0038 87EAE770 		eor	r0, r7, r7, asr #31
  94              	.LVL14:
  95 003c A0EBE770 		sub	r0, r0, r7, asr #31
  96 0040 FFF7FEFF 		bl	__aeabi_i2f
  97              	.LVL15:
  98 0044 3C49     		ldr	r1, .L20
  99 0046 FFF7FEFF 		bl	__aeabi_fmul
 100              	.LVL16:
 101 004a FFF7FEFF 		bl	__aeabi_f2iz
 102              	.LVL17:
 103 004e 0546     		mov	r5, r0
 104              	.LVL18:
  57:main.c        ****             if(P>100)
 105              		.loc 1 57 0
 106 0050 6428     		cmp	r0, #100
 107 0052 00DD     		ble	.L5
  58:main.c        ****                 P=100;
 108              		.loc 1 58 0
 109 0054 6425     		movs	r5, #100
 110              	.L5:
 111              	.LVL19:
  59:main.c        ****             if(error>0){                
ARM GAS  C:\Users\Jacob\AppData\Local\Temp\cc4caphS.s 			page 4


 112              		.loc 1 59 0
 113 0056 002F     		cmp	r7, #0
 114 0058 06DD     		ble	.L6
  60:main.c        ****                 pwm_WriteCompare1(P);
 115              		.loc 1 60 0
 116 005a E8B2     		uxtb	r0, r5
 117 005c FFF7FEFF 		bl	pwm_WriteCompare1
 118              	.LVL20:
  61:main.c        ****                 pwm_WriteCompare2(0);
 119              		.loc 1 61 0
 120 0060 0020     		movs	r0, #0
 121 0062 FFF7FEFF 		bl	pwm_WriteCompare2
 122              	.LVL21:
 123 0066 05E0     		b	.L7
 124              	.L6:
  62:main.c        ****             }
  63:main.c        ****             else{
  64:main.c        ****                 pwm_WriteCompare1(0);
 125              		.loc 1 64 0
 126 0068 0020     		movs	r0, #0
 127 006a FFF7FEFF 		bl	pwm_WriteCompare1
 128              	.LVL22:
  65:main.c        ****                 pwm_WriteCompare2(P);
 129              		.loc 1 65 0
 130 006e E8B2     		uxtb	r0, r5
 131 0070 FFF7FEFF 		bl	pwm_WriteCompare2
 132              	.LVL23:
 133              	.L7:
  66:main.c        ****             }
  67:main.c        ****             lcd_ClearDisplay();
 134              		.loc 1 67 0
 135 0074 0120     		movs	r0, #1
 136 0076 FFF7FEFF 		bl	lcd_WriteControl
 137              	.LVL24:
  68:main.c        ****             lcd_Position(0,0);
 138              		.loc 1 68 0
 139 007a 0021     		movs	r1, #0
 140 007c 0846     		mov	r0, r1
 141 007e FFF7FEFF 		bl	lcd_Position
 142              	.LVL25:
  69:main.c        ****             lcd_PrintNumber(count);
 143              		.loc 1 69 0
 144 0082 A0B2     		uxth	r0, r4
 145 0084 FFF7FEFF 		bl	lcd_PrintU32Number
 146              	.LVL26:
  70:main.c        ****             val1 = count/256;
 147              		.loc 1 70 0
 148 0088 2046     		mov	r0, r4
 149 008a 002C     		cmp	r4, #0
 150 008c 01DA     		bge	.L8
 151              	.LVL27:
 152 008e 04F1FF00 		add	r0, r4, #255
 153              	.LVL28:
 154              	.L8:
  71:main.c        ****             val2 = count-(val1*256);
 155              		.loc 1 71 0
 156 0092 E4B2     		uxtb	r4, r4
ARM GAS  C:\Users\Jacob\AppData\Local\Temp\cc4caphS.s 			page 5


 157              	.LVL29:
  72:main.c        ****             uart_PutChar(val1);
 158              		.loc 1 72 0
 159 0094 C0F30720 		ubfx	r0, r0, #8, #8
 160              	.LVL30:
 161 0098 FFF7FEFF 		bl	uart_PutChar
 162              	.LVL31:
  73:main.c        ****             CyDelay(10);
 163              		.loc 1 73 0
 164 009c 0A20     		movs	r0, #10
 165 009e FFF7FEFF 		bl	CyDelay
 166              	.LVL32:
  74:main.c        ****             uart_PutChar(val2);
 167              		.loc 1 74 0
 168 00a2 2046     		mov	r0, r4
 169 00a4 FFF7FEFF 		bl	uart_PutChar
 170              	.LVL33:
  75:main.c        ****             time+=10;
 171              		.loc 1 75 0
 172 00a8 0A36     		adds	r6, r6, #10
 173              	.LVL34:
 174              	.L4:
  53:main.c        ****             count = enc_GetCounter();
 175              		.loc 1 53 0
 176 00aa B6F5FA6F 		cmp	r6, #2000
 177 00ae BEDB     		blt	.L9
 178 00b0 0026     		movs	r6, #0
 179              	.LVL35:
 180 00b2 3DE0     		b	.L10
 181              	.LVL36:
 182              	.L15:
  76:main.c        ****         }
  77:main.c        ****         time=0;
  78:main.c        ****         while(time<2000){
  79:main.c        ****             count = enc_GetCounter();
 183              		.loc 1 79 0
 184 00b4 FFF7FEFF 		bl	enc_GetCounter
 185              	.LVL37:
 186 00b8 0446     		mov	r4, r0
 187              	.LVL38:
  80:main.c        ****             error = target2 - count;
 188              		.loc 1 80 0
 189 00ba C0F5FA67 		rsb	r7, r0, #2000
 190              	.LVL39:
  81:main.c        ****             P = kP*abs(error);
 191              		.loc 1 81 0
 192 00be 87EAE770 		eor	r0, r7, r7, asr #31
 193              	.LVL40:
 194 00c2 A0EBE770 		sub	r0, r0, r7, asr #31
 195 00c6 FFF7FEFF 		bl	__aeabi_i2f
 196              	.LVL41:
 197 00ca 1B49     		ldr	r1, .L20
 198 00cc FFF7FEFF 		bl	__aeabi_fmul
 199              	.LVL42:
 200 00d0 FFF7FEFF 		bl	__aeabi_f2iz
 201              	.LVL43:
 202 00d4 0546     		mov	r5, r0
ARM GAS  C:\Users\Jacob\AppData\Local\Temp\cc4caphS.s 			page 6


 203              	.LVL44:
  82:main.c        ****             if(P>100)
 204              		.loc 1 82 0
 205 00d6 6428     		cmp	r0, #100
 206 00d8 00DD     		ble	.L11
  83:main.c        ****                 P=100;
 207              		.loc 1 83 0
 208 00da 6425     		movs	r5, #100
 209              	.L11:
 210              	.LVL45:
  84:main.c        ****             if(error>0){                
 211              		.loc 1 84 0
 212 00dc 002F     		cmp	r7, #0
 213 00de 06DD     		ble	.L12
  85:main.c        ****                 pwm_WriteCompare1(P);
 214              		.loc 1 85 0
 215 00e0 E8B2     		uxtb	r0, r5
 216 00e2 FFF7FEFF 		bl	pwm_WriteCompare1
 217              	.LVL46:
  86:main.c        ****                 pwm_WriteCompare2(0);
 218              		.loc 1 86 0
 219 00e6 0020     		movs	r0, #0
 220 00e8 FFF7FEFF 		bl	pwm_WriteCompare2
 221              	.LVL47:
 222 00ec 05E0     		b	.L13
 223              	.L12:
  87:main.c        ****             }
  88:main.c        ****             else{
  89:main.c        ****                 pwm_WriteCompare1(0);
 224              		.loc 1 89 0
 225 00ee 0020     		movs	r0, #0
 226 00f0 FFF7FEFF 		bl	pwm_WriteCompare1
 227              	.LVL48:
  90:main.c        ****                 pwm_WriteCompare2(P);
 228              		.loc 1 90 0
 229 00f4 E8B2     		uxtb	r0, r5
 230 00f6 FFF7FEFF 		bl	pwm_WriteCompare2
 231              	.LVL49:
 232              	.L13:
  91:main.c        ****             }
  92:main.c        ****             lcd_ClearDisplay();
 233              		.loc 1 92 0
 234 00fa 0120     		movs	r0, #1
 235 00fc FFF7FEFF 		bl	lcd_WriteControl
 236              	.LVL50:
  93:main.c        ****             lcd_Position(0,0);
 237              		.loc 1 93 0
 238 0100 0021     		movs	r1, #0
 239 0102 0846     		mov	r0, r1
 240 0104 FFF7FEFF 		bl	lcd_Position
 241              	.LVL51:
  94:main.c        ****             lcd_PrintNumber(count);
 242              		.loc 1 94 0
 243 0108 A0B2     		uxth	r0, r4
 244 010a FFF7FEFF 		bl	lcd_PrintU32Number
 245              	.LVL52:
  95:main.c        ****             val1 = count/256;
ARM GAS  C:\Users\Jacob\AppData\Local\Temp\cc4caphS.s 			page 7


 246              		.loc 1 95 0
 247 010e 2046     		mov	r0, r4
 248 0110 002C     		cmp	r4, #0
 249 0112 01DA     		bge	.L14
 250              	.LVL53:
 251 0114 04F1FF00 		add	r0, r4, #255
 252              	.LVL54:
 253              	.L14:
  96:main.c        ****             val2 = count-(val1*256);
 254              		.loc 1 96 0
 255 0118 E4B2     		uxtb	r4, r4
 256              	.LVL55:
  97:main.c        ****             uart_PutChar(val1);
 257              		.loc 1 97 0
 258 011a C0F30720 		ubfx	r0, r0, #8, #8
 259              	.LVL56:
 260 011e FFF7FEFF 		bl	uart_PutChar
 261              	.LVL57:
  98:main.c        ****             CyDelay(10);
 262              		.loc 1 98 0
 263 0122 0A20     		movs	r0, #10
 264 0124 FFF7FEFF 		bl	CyDelay
 265              	.LVL58:
  99:main.c        ****             uart_PutChar(val2);
 266              		.loc 1 99 0
 267 0128 2046     		mov	r0, r4
 268 012a FFF7FEFF 		bl	uart_PutChar
 269              	.LVL59:
 100:main.c        ****             time+=10;
 270              		.loc 1 100 0
 271 012e 0A36     		adds	r6, r6, #10
 272              	.LVL60:
 273              	.L10:
  78:main.c        ****             count = enc_GetCounter();
 274              		.loc 1 78 0
 275 0130 B6F5FA6F 		cmp	r6, #2000
 276 0134 BEDB     		blt	.L15
 277 0136 76E7     		b	.L16
 278              	.L21:
 279              		.align	2
 280              	.L20:
 281 0138 00004040 		.word	1077936128
 282              		.cfi_endproc
 283              	.LFE63:
 284              		.size	main, .-main
 285              		.text
 286              	.Letext0:
 287              		.file 2 "c:\\program files (x86)\\cypress\\psoc creator\\4.1\\psoc creator\\import\\gnu\\arm\\5.4.
 288              		.file 3 "c:\\program files (x86)\\cypress\\psoc creator\\4.1\\psoc creator\\import\\gnu\\arm\\5.4.
 289              		.file 4 "Generated_Source\\PSoC5/cytypes.h"
 290              		.file 5 "Generated_Source\\PSoC5/enc.h"
 291              		.file 6 "Generated_Source\\PSoC5/lcd.h"
 292              		.file 7 "Generated_Source\\PSoC5/pwm.h"
 293              		.file 8 "Generated_Source\\PSoC5/uart.h"
 294              		.file 9 "Generated_Source\\PSoC5/CyLib.h"
 295              		.file 10 "Generated_Source\\PSoC5/core_cm3.h"