ARM GAS  C:\Users\Jacob\AppData\Local\Temp\cc2VFEgp.s 			page 1


   1              		.syntax unified
   2              		.cpu cortex-m0
   3              		.fpu softvfp
   4              		.eabi_attribute 20, 1
   5              		.eabi_attribute 21, 1
   6              		.eabi_attribute 23, 3
   7              		.eabi_attribute 24, 1
   8              		.eabi_attribute 25, 1
   9              		.eabi_attribute 26, 1
  10              		.eabi_attribute 30, 1
  11              		.eabi_attribute 34, 0
  12              		.eabi_attribute 18, 4
  13              		.thumb
  14              		.syntax unified
  15              		.file	"main.c"
  16              		.text
  17              	.Ltext0:
  18              		.cfi_sections	.debug_frame
  19              		.section	.text.main,"ax",%progbits
  20              		.align	2
  21              		.global	main
  22              		.code	16
  23              		.thumb_func
  24              		.type	main, %function
  25              	main:
  26              	.LFB36:
  27              		.file 1 "main.c"
   1:main.c        **** /******************************************************************************
   2:main.c        **** * Project Name		: USB-UART-EGR
   3:main.c        **** * File Name			: main.c
   4:main.c        **** * Version 			: 1.1 (Updated by Dr. Jordan)
   5:main.c        **** * Device Used		: CY8C4245AXI-483
   6:main.c        **** * Software Used		: PSoC Creator 3.0 SP1
   7:main.c        **** * Compiler    		: ARMGCC 4.4.1
   8:main.c        **** * Related Hardware	: CY8CKIT-042 PSoC 4 Pioneer Kit 
   9:main.c        **** *
  10:main.c        **** *
  11:main.c        **** ******************************************************************************
  12:main.c        **** *                           THEORY OF OPERATION
  13:main.c        **** * This project demonstrates UART communication over the kit USB-UART Bridge. 
  14:main.c        **** * The project uses the SCB based UART component which stores the users input in an
  15:main.c        **** * array. when the user press the return key the PSoC will send what has be in the 
  16:main.c        **** * array, then clears the array and sets the pointer back to o.
  17:main.c        **** * 
  18:main.c        **** * UART is configured with
  19:main.c        **** * UART Basic
  20:main.c        **** * 	Mode: Standard
  21:main.c        **** * 	Direction: TX+RX
  22:main.c        **** * 	Baud rate (kbps): 9600
  23:main.c        **** * 	Data bits: 8 bits
  24:main.c        **** * 	Parity: None
  25:main.c        **** * 	Stop bits: 1 bit
  26:main.c        **** * 	Physical connections needed:
  27:main.c        **** * 	Jumper between P0[5] and PSoC 5LP Header J8 P12[6]
  28:main.c        **** * UART Advanced
  29:main.c        **** * 	RX buffer size: 8
  30:main.c        **** * 	TX buffer size: 8
ARM GAS  C:\Users\Jacob\AppData\Local\Temp\cc2VFEgp.s 			page 2


  31:main.c        **** * 	Interrupt: None
  32:main.c        **** *
  33:main.c        **** * Physical Connetion
  34:main.c        **** * Connect jumper wire from the UART RX (P0[4]) of PSoC 4 to J8_10 (P12[7]) of PSoC 5LP
  35:main.c        **** * Connect jumper wire from the UART TX (P0[5]) of PSoC 4 to J8_9 (P12[6]) of PSoC 5LP
  36:main.c        **** * ******************************************************************************/ 
  37:main.c        **** #include <project.h>
  38:main.c        **** #include <stdio.h>
  39:main.c        **** #include <stdlib.h>     // contains strtod(), which converts an ASCII string to a double
  40:main.c        **** 
  41:main.c        **** int main()
  42:main.c        **** {
  28              		.loc 1 42 0
  29              		.cfi_startproc
  30              		@ args = 0, pretend = 0, frame = 104
  31              		@ frame_needed = 0, uses_anonymous_args = 0
  32 0000 F0B5     		push	{r4, r5, r6, r7, lr}
  33              		.cfi_def_cfa_offset 20
  34              		.cfi_offset 4, -20
  35              		.cfi_offset 5, -16
  36              		.cfi_offset 6, -12
  37              		.cfi_offset 7, -8
  38              		.cfi_offset 14, -4
  39 0002 9BB0     		sub	sp, sp, #108
  40              		.cfi_def_cfa_offset 128
  41              	.LVL0:
  43:main.c        ****     char rxbuffer[100];                 // UART receive buffer
  44:main.c        ****     int rxindex;                        // UART receive buffer index
  45:main.c        ****     
  46:main.c        ****     double number;                      // floating-point number
  47:main.c        ****     
  48:main.c        ****     uint8 ch;                           // variable to hold received character
  49:main.c        ****    
  50:main.c        ****     // initialize and clear rxbuffer
  51:main.c        ****     for( rxindex = 0; rxindex < 100; rxindex++ ) {
  42              		.loc 1 51 0
  43 0004 0023     		movs	r3, #0
  44 0006 03E0     		b	.L2
  45              	.LVL1:
  46              	.L3:
  52:main.c        ****         rxbuffer[rxindex] = 0u;
  47              		.loc 1 52 0 discriminator 3
  48 0008 0021     		movs	r1, #0
  49 000a 01AA     		add	r2, sp, #4
  50 000c D154     		strb	r1, [r2, r3]
  51:main.c        ****         rxbuffer[rxindex] = 0u;
  51              		.loc 1 51 0 discriminator 3
  52 000e 0133     		adds	r3, r3, #1
  53              	.LVL2:
  54              	.L2:
  51:main.c        ****         rxbuffer[rxindex] = 0u;
  55              		.loc 1 51 0 is_stmt 0 discriminator 1
  56 0010 632B     		cmp	r3, #99
  57 0012 F9DD     		ble	.L3
  58              	.LVL3:
  53:main.c        ****     }
  54:main.c        ****     rxindex = 0;                        // initialize rxindex
ARM GAS  C:\Users\Jacob\AppData\Local\Temp\cc2VFEgp.s 			page 3


  55:main.c        ****    
  56:main.c        ****     uart_Start();  // start UART
  59              		.loc 1 56 0 is_stmt 1
  60 0014 FFF7FEFF 		bl	uart_Start
  61              	.LVL4:
  57:main.c        ****     
  58:main.c        ****     // printf( "COM OPEN!\n" );
  59:main.c        **** 	uart_PutString( "COM OPEN!\n" );// display initialization string
  62              		.loc 1 59 0
  63 0018 1E48     		ldr	r0, .L9
  64 001a FFF7FEFF 		bl	uart_PutString
  65              	.LVL5:
  60:main.c        **** 	
  61:main.c        ****     // printf( "Type a number: " );
  62:main.c        ****     uart_PutString( "Type a number: " );
  66              		.loc 1 62 0
  67 001e 1E48     		ldr	r0, .L9+4
  68 0020 FFF7FEFF 		bl	uart_PutString
  69              	.LVL6:
  54:main.c        ****    
  70              		.loc 1 54 0
  71 0024 0025     		movs	r5, #0
  63:main.c        ****     
  64:main.c        ****     // read string until the user presses return
  65:main.c        ****     // scanf( "%s", rxbuffer );
  66:main.c        ****     while( ch != '\r' ) {
  72              		.loc 1 66 0
  73 0026 09E0     		b	.L4
  74              	.LVL7:
  75              	.L6:
  67:main.c        ****         ch = uart_GetChar();        // get the next character
  76              		.loc 1 67 0
  77 0028 FFF7FEFF 		bl	uart_GetChar
  78              	.LVL8:
  79 002c 0400     		movs	r4, r0
  80              	.LVL9:
  68:main.c        ****         
  69:main.c        ****         if( ch != '\r' && ch != 0u ) {  // if the character is not a return or null
  81              		.loc 1 69 0
  82 002e 0D28     		cmp	r0, #13
  83 0030 04D0     		beq	.L4
  84              		.loc 1 69 0 is_stmt 0 discriminator 1
  85 0032 0028     		cmp	r0, #0
  86 0034 02D0     		beq	.L4
  70:main.c        ****             rxbuffer[rxindex] = ch;     // store it in the rxbuffer string
  87              		.loc 1 70 0 is_stmt 1
  88 0036 01AB     		add	r3, sp, #4
  89 0038 5855     		strb	r0, [r3, r5]
  71:main.c        ****             rxindex++;                  // increment the rxbuffer index
  90              		.loc 1 71 0
  91 003a 0135     		adds	r5, r5, #1
  92              	.LVL10:
  93              	.L4:
  66:main.c        ****         ch = uart_GetChar();        // get the next character
  94              		.loc 1 66 0
  95 003c 0D2C     		cmp	r4, #13
  96 003e F3D1     		bne	.L6
ARM GAS  C:\Users\Jacob\AppData\Local\Temp\cc2VFEgp.s 			page 4


  72:main.c        ****         }
  73:main.c        ****     }
  74:main.c        ****     
  75:main.c        ****     // output the received string to the UART
  76:main.c        ****     // printf( "\n%s\n", rxbuffer );
  77:main.c        ****     uart_PutChar('\n');
  97              		.loc 1 77 0
  98 0040 0A20     		movs	r0, #10
  99 0042 FFF7FEFF 		bl	uart_PutChar
 100              	.LVL11:
  78:main.c        ****     uart_PutString(rxbuffer);
 101              		.loc 1 78 0
 102 0046 01A8     		add	r0, sp, #4
 103 0048 FFF7FEFF 		bl	uart_PutString
 104              	.LVL12:
  79:main.c        ****     uart_PutChar('\n');
 105              		.loc 1 79 0
 106 004c 0A20     		movs	r0, #10
 107 004e FFF7FEFF 		bl	uart_PutChar
 108              	.LVL13:
  80:main.c        **** 
  81:main.c        ****     // convert the received string to a double (floating-point number)
  82:main.c        ****     number = strtod( rxbuffer, 0 );
 109              		.loc 1 82 0
 110 0052 0021     		movs	r1, #0
 111 0054 01A8     		add	r0, sp, #4
 112 0056 FFF7FEFF 		bl	strtod
 113              	.LVL14:
 114 005a 0600     		movs	r6, r0
 115 005c 0F00     		movs	r7, r1
 116              	.LVL15:
  83:main.c        ****     
  84:main.c        ****     // initialize and clear rxbuffer (good practice to avoid bugs)
  85:main.c        ****     for( rxindex = 0; rxindex < 100; rxindex++ ) {
 117              		.loc 1 85 0
 118 005e 0023     		movs	r3, #0
 119 0060 03E0     		b	.L7
 120              	.LVL16:
 121              	.L8:
  86:main.c        ****         rxbuffer[rxindex] = 0u;
 122              		.loc 1 86 0 discriminator 3
 123 0062 0024     		movs	r4, #0
 124 0064 01A9     		add	r1, sp, #4
 125 0066 CC54     		strb	r4, [r1, r3]
  85:main.c        ****         rxbuffer[rxindex] = 0u;
 126              		.loc 1 85 0 discriminator 3
 127 0068 0133     		adds	r3, r3, #1
 128              	.LVL17:
 129              	.L7:
  85:main.c        ****         rxbuffer[rxindex] = 0u;
 130              		.loc 1 85 0 is_stmt 0 discriminator 1
 131 006a 632B     		cmp	r3, #99
 132 006c F9DD     		ble	.L8
 133              	.LVL18:
  87:main.c        ****     }
  88:main.c        ****     rxindex = 0;        // initialize rxindex
  89:main.c        ****     
ARM GAS  C:\Users\Jacob\AppData\Local\Temp\cc2VFEgp.s 			page 5


  90:main.c        ****     // output the float as a string and store it in rxbuffer
  91:main.c        ****     // NOTE: In order to properly output doubles, you must enable them in the compiler
  92:main.c        ****     // See http://www.cypress.com/?id=4&rID=87354 for more details
  93:main.c        ****     sprintf( rxbuffer, "Converted from double = %lf\n", number );
 134              		.loc 1 93 0 is_stmt 1
 135 006e 3200     		movs	r2, r6
 136 0070 3B00     		movs	r3, r7
 137 0072 0A49     		ldr	r1, .L9+8
 138 0074 01A8     		add	r0, sp, #4
 139 0076 FFF7FEFF 		bl	sprintf
 140              	.LVL19:
  94:main.c        ****     
  95:main.c        ****     // output the new string to the UART
  96:main.c        ****     // printf( "\n%s\n", rxbuffer );
  97:main.c        ****     uart_PutChar('\n');
 141              		.loc 1 97 0
 142 007a 0A20     		movs	r0, #10
 143 007c FFF7FEFF 		bl	uart_PutChar
 144              	.LVL20:
  98:main.c        ****     uart_PutString(rxbuffer);
 145              		.loc 1 98 0
 146 0080 01A8     		add	r0, sp, #4
 147 0082 FFF7FEFF 		bl	uart_PutString
 148              	.LVL21:
  99:main.c        ****     uart_PutChar('\n');
 149              		.loc 1 99 0
 150 0086 0A20     		movs	r0, #10
 151 0088 FFF7FEFF 		bl	uart_PutChar
 152              	.LVL22:
 100:main.c        ****     
 101:main.c        ****     return 0;
 102:main.c        **** }
 153              		.loc 1 102 0
 154 008c 0020     		movs	r0, #0
 155 008e 1BB0     		add	sp, sp, #108
 156              		@ sp needed
 157              	.LVL23:
 158 0090 F0BD     		pop	{r4, r5, r6, r7, pc}
 159              	.L10:
 160 0092 C046     		.align	2
 161              	.L9:
 162 0094 00000000 		.word	.LC0
 163 0098 0C000000 		.word	.LC2
 164 009c 1C000000 		.word	.LC4
 165              		.cfi_endproc
 166              	.LFE36:
 167              		.size	main, .-main
 168              		.section	.rodata.str1.4,"aMS",%progbits,1
 169              		.align	2
 170              	.LC0:
 171 0000 434F4D20 		.ascii	"COM OPEN!\012\000"
 171      4F50454E 
 171      210A00
 172 000b 00       		.space	1
 173              	.LC2:
 174 000c 54797065 		.ascii	"Type a number: \000"
 174      2061206E 
ARM GAS  C:\Users\Jacob\AppData\Local\Temp\cc2VFEgp.s 			page 6


 174      756D6265 
 174      723A2000 
 175              	.LC4:
 176 001c 436F6E76 		.ascii	"Converted from double = %lf\012\000"
 176      65727465 
 176      64206672 
 176      6F6D2064 
 176      6F75626C 
 177              		.text
 178              	.Letext0:
 179              		.file 2 "Generated_Source\\PSoC4/uart.h"
 180              		.file 3 "c:\\program files (x86)\\cypress\\psoc creator\\4.1\\psoc creator\\import\\gnu\\arm\\5.4.
 181              		.file 4 "c:\\program files (x86)\\cypress\\psoc creator\\4.1\\psoc creator\\import\\gnu\\arm\\5.4.
 182              		.file 5 "Generated_Source\\PSoC4/cytypes.h"