ARM GAS  C:\Users\Jacob\AppData\Local\Temp\ccvFF3Lm.s 			page 1


   1              		.syntax unified
   2              		.cpu cortex-m3
   3              		.fpu softvfp
   4              		.eabi_attribute 20, 1
   5              		.eabi_attribute 21, 1
   6              		.eabi_attribute 23, 3
   7              		.eabi_attribute 24, 1
   8              		.eabi_attribute 25, 1
   9              		.eabi_attribute 26, 1
  10              		.eabi_attribute 30, 1
  11              		.eabi_attribute 34, 1
  12              		.eabi_attribute 18, 4
  13              		.thumb
  14              		.syntax unified
  15              		.file	"cyfitter_cfg.c"
  16              		.text
  17              	.Ltext0:
  18              		.cfi_sections	.debug_frame
  19              		.section	.text.CyClockStartupError,"ax",%progbits
  20              		.align	2
  21              		.thumb
  22              		.thumb_func
  23              		.type	CyClockStartupError, %function
  24              	CyClockStartupError:
  25              	.LFB3:
  26              		.file 1 "Generated_Source\\PSoC5\\cyfitter_cfg.c"
   1:Generated_Source\PSoC5/cyfitter_cfg.c **** 
   2:Generated_Source\PSoC5/cyfitter_cfg.c **** /*******************************************************************************
   3:Generated_Source\PSoC5/cyfitter_cfg.c **** * File Name: cyfitter_cfg.c
   4:Generated_Source\PSoC5/cyfitter_cfg.c **** * 
   5:Generated_Source\PSoC5/cyfitter_cfg.c **** * PSoC Creator  4.1 Update 1
   6:Generated_Source\PSoC5/cyfitter_cfg.c **** *
   7:Generated_Source\PSoC5/cyfitter_cfg.c **** * Description:
   8:Generated_Source\PSoC5/cyfitter_cfg.c **** * This file contains device initialization code.
   9:Generated_Source\PSoC5/cyfitter_cfg.c **** * Except for the user defined sections in CyClockStartupError(), this file should not be modified.
  10:Generated_Source\PSoC5/cyfitter_cfg.c **** * This file is automatically generated by PSoC Creator.
  11:Generated_Source\PSoC5/cyfitter_cfg.c **** *
  12:Generated_Source\PSoC5/cyfitter_cfg.c **** ********************************************************************************
  13:Generated_Source\PSoC5/cyfitter_cfg.c **** * Copyright (c) 2007-2017 Cypress Semiconductor.  All rights reserved.
  14:Generated_Source\PSoC5/cyfitter_cfg.c **** * You may use this file only in accordance with the license, terms, conditions, 
  15:Generated_Source\PSoC5/cyfitter_cfg.c **** * disclaimers, and limitations in the end user license agreement accompanying 
  16:Generated_Source\PSoC5/cyfitter_cfg.c **** * the software package with which this file was provided.
  17:Generated_Source\PSoC5/cyfitter_cfg.c **** ********************************************************************************/
  18:Generated_Source\PSoC5/cyfitter_cfg.c **** 
  19:Generated_Source\PSoC5/cyfitter_cfg.c **** #include <string.h>
  20:Generated_Source\PSoC5/cyfitter_cfg.c **** #include "cytypes.h"
  21:Generated_Source\PSoC5/cyfitter_cfg.c **** #include "cydevice_trm.h"
  22:Generated_Source\PSoC5/cyfitter_cfg.c **** #include "cyfitter.h"
  23:Generated_Source\PSoC5/cyfitter_cfg.c **** #include "CyLib.h"
  24:Generated_Source\PSoC5/cyfitter_cfg.c **** #include "cyfitter_cfg.h"
  25:Generated_Source\PSoC5/cyfitter_cfg.c **** #include "cyapicallbacks.h"
  26:Generated_Source\PSoC5/cyfitter_cfg.c **** 
  27:Generated_Source\PSoC5/cyfitter_cfg.c **** #define CY_NEED_CYCLOCKSTARTUPERROR 1
  28:Generated_Source\PSoC5/cyfitter_cfg.c **** 
  29:Generated_Source\PSoC5/cyfitter_cfg.c **** 
  30:Generated_Source\PSoC5/cyfitter_cfg.c **** #if defined(__GNUC__) || defined(__ARMCC_VERSION)
  31:Generated_Source\PSoC5/cyfitter_cfg.c ****     #define CYPACKED 
ARM GAS  C:\Users\Jacob\AppData\Local\Temp\ccvFF3Lm.s 			page 2


  32:Generated_Source\PSoC5/cyfitter_cfg.c ****     #define CYPACKED_ATTR __attribute__ ((packed))
  33:Generated_Source\PSoC5/cyfitter_cfg.c ****     #define CYALIGNED __attribute__ ((aligned))
  34:Generated_Source\PSoC5/cyfitter_cfg.c ****     #define CY_CFG_UNUSED __attribute__ ((unused))
  35:Generated_Source\PSoC5/cyfitter_cfg.c ****     #ifndef CY_CFG_SECTION
  36:Generated_Source\PSoC5/cyfitter_cfg.c ****         #define CY_CFG_SECTION __attribute__ ((section(".psocinit")))
  37:Generated_Source\PSoC5/cyfitter_cfg.c ****     #endif
  38:Generated_Source\PSoC5/cyfitter_cfg.c ****     
  39:Generated_Source\PSoC5/cyfitter_cfg.c ****     #if defined(__ARMCC_VERSION)
  40:Generated_Source\PSoC5/cyfitter_cfg.c ****         #define CY_CFG_MEMORY_BARRIER() __memory_changed()
  41:Generated_Source\PSoC5/cyfitter_cfg.c ****     #else
  42:Generated_Source\PSoC5/cyfitter_cfg.c ****         #define CY_CFG_MEMORY_BARRIER() __sync_synchronize()
  43:Generated_Source\PSoC5/cyfitter_cfg.c ****     #endif
  44:Generated_Source\PSoC5/cyfitter_cfg.c ****     
  45:Generated_Source\PSoC5/cyfitter_cfg.c **** #elif defined(__ICCARM__)
  46:Generated_Source\PSoC5/cyfitter_cfg.c ****     #include <intrinsics.h>
  47:Generated_Source\PSoC5/cyfitter_cfg.c **** 
  48:Generated_Source\PSoC5/cyfitter_cfg.c ****     #define CYPACKED __packed
  49:Generated_Source\PSoC5/cyfitter_cfg.c ****     #define CYPACKED_ATTR 
  50:Generated_Source\PSoC5/cyfitter_cfg.c ****     #define CYALIGNED _Pragma("data_alignment=4")
  51:Generated_Source\PSoC5/cyfitter_cfg.c ****     #define CY_CFG_UNUSED _Pragma("diag_suppress=Pe177")
  52:Generated_Source\PSoC5/cyfitter_cfg.c ****     #define CY_CFG_SECTION _Pragma("location=\".psocinit\"")
  53:Generated_Source\PSoC5/cyfitter_cfg.c ****     
  54:Generated_Source\PSoC5/cyfitter_cfg.c ****     #define CY_CFG_MEMORY_BARRIER() __DMB()
  55:Generated_Source\PSoC5/cyfitter_cfg.c ****     
  56:Generated_Source\PSoC5/cyfitter_cfg.c **** #else
  57:Generated_Source\PSoC5/cyfitter_cfg.c ****     #error Unsupported toolchain
  58:Generated_Source\PSoC5/cyfitter_cfg.c **** #endif
  59:Generated_Source\PSoC5/cyfitter_cfg.c **** 
  60:Generated_Source\PSoC5/cyfitter_cfg.c **** #ifndef CYCODE
  61:Generated_Source\PSoC5/cyfitter_cfg.c ****     #define CYCODE
  62:Generated_Source\PSoC5/cyfitter_cfg.c **** #endif
  63:Generated_Source\PSoC5/cyfitter_cfg.c **** #ifndef CYDATA
  64:Generated_Source\PSoC5/cyfitter_cfg.c ****     #define CYDATA
  65:Generated_Source\PSoC5/cyfitter_cfg.c **** #endif
  66:Generated_Source\PSoC5/cyfitter_cfg.c **** #ifndef CYFAR
  67:Generated_Source\PSoC5/cyfitter_cfg.c ****     #define CYFAR
  68:Generated_Source\PSoC5/cyfitter_cfg.c **** #endif
  69:Generated_Source\PSoC5/cyfitter_cfg.c **** #ifndef CYXDATA
  70:Generated_Source\PSoC5/cyfitter_cfg.c ****     #define CYXDATA
  71:Generated_Source\PSoC5/cyfitter_cfg.c **** #endif
  72:Generated_Source\PSoC5/cyfitter_cfg.c **** 
  73:Generated_Source\PSoC5/cyfitter_cfg.c **** 
  74:Generated_Source\PSoC5/cyfitter_cfg.c **** CY_CFG_UNUSED
  75:Generated_Source\PSoC5/cyfitter_cfg.c **** static void CYMEMZERO(void *s, size_t n);
  76:Generated_Source\PSoC5/cyfitter_cfg.c **** CY_CFG_UNUSED
  77:Generated_Source\PSoC5/cyfitter_cfg.c **** static void CYMEMZERO(void *s, size_t n)
  78:Generated_Source\PSoC5/cyfitter_cfg.c **** {
  79:Generated_Source\PSoC5/cyfitter_cfg.c **** 	(void)memset(s, 0, n);
  80:Generated_Source\PSoC5/cyfitter_cfg.c **** }
  81:Generated_Source\PSoC5/cyfitter_cfg.c **** CY_CFG_UNUSED
  82:Generated_Source\PSoC5/cyfitter_cfg.c **** static void CYCONFIGCPY(void *dest, const void *src, size_t n);
  83:Generated_Source\PSoC5/cyfitter_cfg.c **** CY_CFG_UNUSED
  84:Generated_Source\PSoC5/cyfitter_cfg.c **** static void CYCONFIGCPY(void *dest, const void *src, size_t n)
  85:Generated_Source\PSoC5/cyfitter_cfg.c **** {
  86:Generated_Source\PSoC5/cyfitter_cfg.c **** 	(void)memcpy(dest, src, n);
  87:Generated_Source\PSoC5/cyfitter_cfg.c **** }
  88:Generated_Source\PSoC5/cyfitter_cfg.c **** CY_CFG_UNUSED
ARM GAS  C:\Users\Jacob\AppData\Local\Temp\ccvFF3Lm.s 			page 3


  89:Generated_Source\PSoC5/cyfitter_cfg.c **** static void CYCONFIGCPYCODE(void *dest, const void *src, size_t n);
  90:Generated_Source\PSoC5/cyfitter_cfg.c **** CY_CFG_UNUSED
  91:Generated_Source\PSoC5/cyfitter_cfg.c **** static void CYCONFIGCPYCODE(void *dest, const void *src, size_t n)
  92:Generated_Source\PSoC5/cyfitter_cfg.c **** {
  93:Generated_Source\PSoC5/cyfitter_cfg.c **** 	(void)memcpy(dest, src, n);
  94:Generated_Source\PSoC5/cyfitter_cfg.c **** }
  95:Generated_Source\PSoC5/cyfitter_cfg.c **** 
  96:Generated_Source\PSoC5/cyfitter_cfg.c **** 
  97:Generated_Source\PSoC5/cyfitter_cfg.c **** 
  98:Generated_Source\PSoC5/cyfitter_cfg.c **** 
  99:Generated_Source\PSoC5/cyfitter_cfg.c **** /* Clock startup error codes                                                   */
 100:Generated_Source\PSoC5/cyfitter_cfg.c **** #define CYCLOCKSTART_NO_ERROR    0u
 101:Generated_Source\PSoC5/cyfitter_cfg.c **** #define CYCLOCKSTART_XTAL_ERROR  1u
 102:Generated_Source\PSoC5/cyfitter_cfg.c **** #define CYCLOCKSTART_32KHZ_ERROR 2u
 103:Generated_Source\PSoC5/cyfitter_cfg.c **** #define CYCLOCKSTART_PLL_ERROR   3u
 104:Generated_Source\PSoC5/cyfitter_cfg.c **** #define CYCLOCKSTART_FLL_ERROR   4u
 105:Generated_Source\PSoC5/cyfitter_cfg.c **** 
 106:Generated_Source\PSoC5/cyfitter_cfg.c **** 
 107:Generated_Source\PSoC5/cyfitter_cfg.c **** #ifdef CY_NEED_CYCLOCKSTARTUPERROR
 108:Generated_Source\PSoC5/cyfitter_cfg.c **** /*******************************************************************************
 109:Generated_Source\PSoC5/cyfitter_cfg.c **** * Function Name: CyClockStartupError
 110:Generated_Source\PSoC5/cyfitter_cfg.c **** ********************************************************************************
 111:Generated_Source\PSoC5/cyfitter_cfg.c **** * Summary:
 112:Generated_Source\PSoC5/cyfitter_cfg.c **** *  If an error is encountered during clock configuration (crystal startup error,
 113:Generated_Source\PSoC5/cyfitter_cfg.c **** *  PLL lock error, etc.), the system will end up here.  Unless reimplemented by
 114:Generated_Source\PSoC5/cyfitter_cfg.c **** *  the customer, this function will stop in an infinite loop.
 115:Generated_Source\PSoC5/cyfitter_cfg.c **** *
 116:Generated_Source\PSoC5/cyfitter_cfg.c **** * Parameters:
 117:Generated_Source\PSoC5/cyfitter_cfg.c **** *   void
 118:Generated_Source\PSoC5/cyfitter_cfg.c **** *
 119:Generated_Source\PSoC5/cyfitter_cfg.c **** * Return:
 120:Generated_Source\PSoC5/cyfitter_cfg.c **** *   void
 121:Generated_Source\PSoC5/cyfitter_cfg.c **** *
 122:Generated_Source\PSoC5/cyfitter_cfg.c **** *******************************************************************************/
 123:Generated_Source\PSoC5/cyfitter_cfg.c **** CY_CFG_UNUSED
 124:Generated_Source\PSoC5/cyfitter_cfg.c **** static void CyClockStartupError(uint8 errorCode);
 125:Generated_Source\PSoC5/cyfitter_cfg.c **** CY_CFG_UNUSED
 126:Generated_Source\PSoC5/cyfitter_cfg.c **** static void CyClockStartupError(uint8 errorCode)
 127:Generated_Source\PSoC5/cyfitter_cfg.c **** {
  27              		.loc 1 127 0
  28              		.cfi_startproc
  29              		@ Volatile: function does not return.
  30              		@ args = 0, pretend = 0, frame = 0
  31              		@ frame_needed = 0, uses_anonymous_args = 0
  32              		@ link register save eliminated.
  33              	.LVL0:
  34              	.L2:
  35 0000 FEE7     		b	.L2
  36              		.cfi_endproc
  37              	.LFE3:
  38              		.size	CyClockStartupError, .-CyClockStartupError
  39 0002 00BF     		.section	.text.cfg_write_bytes32,"ax",%progbits
  40              		.align	2
  41              		.thumb
  42              		.thumb_func
  43              		.type	cfg_write_bytes32, %function
  44              	cfg_write_bytes32:
ARM GAS  C:\Users\Jacob\AppData\Local\Temp\ccvFF3Lm.s 			page 4


  45              	.LFB4:
 128:Generated_Source\PSoC5/cyfitter_cfg.c ****     /* To remove the compiler warning if errorCode not used. */
 129:Generated_Source\PSoC5/cyfitter_cfg.c **** #if defined(CY_PSOC3) && (CY_PSOC3)
 130:Generated_Source\PSoC5/cyfitter_cfg.c ****     errorCode = errorCode;
 131:Generated_Source\PSoC5/cyfitter_cfg.c **** #else
 132:Generated_Source\PSoC5/cyfitter_cfg.c ****     (void)errorCode;
 133:Generated_Source\PSoC5/cyfitter_cfg.c **** #endif /* CY_PSOC3 */
 134:Generated_Source\PSoC5/cyfitter_cfg.c **** 
 135:Generated_Source\PSoC5/cyfitter_cfg.c ****     /* If we have a clock startup error (bad MHz crystal, PLL lock, etc.),  */
 136:Generated_Source\PSoC5/cyfitter_cfg.c ****     /* we will end up here to allow the customer to implement something to  */
 137:Generated_Source\PSoC5/cyfitter_cfg.c ****     /* deal with the clock condition.                                       */
 138:Generated_Source\PSoC5/cyfitter_cfg.c **** 
 139:Generated_Source\PSoC5/cyfitter_cfg.c **** #ifdef CY_CFG_CLOCK_STARTUP_ERROR_CALLBACK
 140:Generated_Source\PSoC5/cyfitter_cfg.c ****     CY_CFG_Clock_Startup_ErrorCallback();
 141:Generated_Source\PSoC5/cyfitter_cfg.c **** #else
 142:Generated_Source\PSoC5/cyfitter_cfg.c ****     /*  If not using CY_CFG_CLOCK_STARTUP_ERROR_CALLBACK, place your clock startup code here. */
 143:Generated_Source\PSoC5/cyfitter_cfg.c ****     /* `#START CyClockStartupError` */
 144:Generated_Source\PSoC5/cyfitter_cfg.c **** 
 145:Generated_Source\PSoC5/cyfitter_cfg.c **** 
 146:Generated_Source\PSoC5/cyfitter_cfg.c **** 
 147:Generated_Source\PSoC5/cyfitter_cfg.c ****     /* `#END` */
 148:Generated_Source\PSoC5/cyfitter_cfg.c **** 
 149:Generated_Source\PSoC5/cyfitter_cfg.c ****     while(1) {}
 150:Generated_Source\PSoC5/cyfitter_cfg.c **** #endif /* CY_CFG_CLOCK_STARTUP_ERROR_CALLBACK */
 151:Generated_Source\PSoC5/cyfitter_cfg.c **** }
 152:Generated_Source\PSoC5/cyfitter_cfg.c **** #endif
 153:Generated_Source\PSoC5/cyfitter_cfg.c **** 
 154:Generated_Source\PSoC5/cyfitter_cfg.c **** #define CY_CFG_BASE_ADDR_COUNT 39u
 155:Generated_Source\PSoC5/cyfitter_cfg.c **** CYPACKED typedef struct
 156:Generated_Source\PSoC5/cyfitter_cfg.c **** {
 157:Generated_Source\PSoC5/cyfitter_cfg.c **** 	uint8 offset;
 158:Generated_Source\PSoC5/cyfitter_cfg.c **** 	uint8 value;
 159:Generated_Source\PSoC5/cyfitter_cfg.c **** } CYPACKED_ATTR cy_cfg_addrvalue_t;
 160:Generated_Source\PSoC5/cyfitter_cfg.c **** 
 161:Generated_Source\PSoC5/cyfitter_cfg.c **** #define cy_cfg_addr_table ((const uint32 CYFAR *)0x48000000u)
 162:Generated_Source\PSoC5/cyfitter_cfg.c **** #define cy_cfg_data_table ((const cy_cfg_addrvalue_t CYFAR *)0x4800009Cu)
 163:Generated_Source\PSoC5/cyfitter_cfg.c **** 
 164:Generated_Source\PSoC5/cyfitter_cfg.c **** /* IOPINS0_0 Address: CYREG_PRT0_DM0 Size (bytes): 8 */
 165:Generated_Source\PSoC5/cyfitter_cfg.c **** #define BS_IOPINS0_0_VAL ((const uint8 CYFAR *)0x480007E8u)
 166:Generated_Source\PSoC5/cyfitter_cfg.c **** 
 167:Generated_Source\PSoC5/cyfitter_cfg.c **** /* IOPINS0_1 Address: CYREG_PRT1_DM0 Size (bytes): 8 */
 168:Generated_Source\PSoC5/cyfitter_cfg.c **** #define BS_IOPINS0_1_VAL ((const uint8 CYFAR *)0x480007F0u)
 169:Generated_Source\PSoC5/cyfitter_cfg.c **** 
 170:Generated_Source\PSoC5/cyfitter_cfg.c **** /* IOPINS0_2 Address: CYREG_PRT2_DM0 Size (bytes): 8 */
 171:Generated_Source\PSoC5/cyfitter_cfg.c **** #define BS_IOPINS0_2_VAL ((const uint8 CYFAR *)0x480007F8u)
 172:Generated_Source\PSoC5/cyfitter_cfg.c **** 
 173:Generated_Source\PSoC5/cyfitter_cfg.c **** /* PHUB_CFGMEM1 Address: CYREG_PHUB_CFGMEM1_CFG0 Size (bytes): 4 */
 174:Generated_Source\PSoC5/cyfitter_cfg.c **** #define BS_PHUB_CFGMEM1_VAL ((const uint8 CYFAR *)0x48000800u)
 175:Generated_Source\PSoC5/cyfitter_cfg.c **** 
 176:Generated_Source\PSoC5/cyfitter_cfg.c **** 
 177:Generated_Source\PSoC5/cyfitter_cfg.c **** /*******************************************************************************
 178:Generated_Source\PSoC5/cyfitter_cfg.c **** * Function Name: cfg_write_bytes32
 179:Generated_Source\PSoC5/cyfitter_cfg.c **** ********************************************************************************
 180:Generated_Source\PSoC5/cyfitter_cfg.c **** * Summary:
 181:Generated_Source\PSoC5/cyfitter_cfg.c **** *  This function is used for setting up the chip configuration areas that
 182:Generated_Source\PSoC5/cyfitter_cfg.c **** *  contain relatively sparse data.
 183:Generated_Source\PSoC5/cyfitter_cfg.c **** *
ARM GAS  C:\Users\Jacob\AppData\Local\Temp\ccvFF3Lm.s 			page 5


 184:Generated_Source\PSoC5/cyfitter_cfg.c **** * Parameters:
 185:Generated_Source\PSoC5/cyfitter_cfg.c **** *   void
 186:Generated_Source\PSoC5/cyfitter_cfg.c **** *
 187:Generated_Source\PSoC5/cyfitter_cfg.c **** * Return:
 188:Generated_Source\PSoC5/cyfitter_cfg.c **** *   void
 189:Generated_Source\PSoC5/cyfitter_cfg.c **** *
 190:Generated_Source\PSoC5/cyfitter_cfg.c **** *******************************************************************************/
 191:Generated_Source\PSoC5/cyfitter_cfg.c **** static void cfg_write_bytes32(const uint32 addr_table[], const cy_cfg_addrvalue_t data_table[]);
 192:Generated_Source\PSoC5/cyfitter_cfg.c **** static void cfg_write_bytes32(const uint32 addr_table[], const cy_cfg_addrvalue_t data_table[])
 193:Generated_Source\PSoC5/cyfitter_cfg.c **** {
  46              		.loc 1 193 0
  47              		.cfi_startproc
  48              		@ args = 0, pretend = 0, frame = 0
  49              		@ frame_needed = 0, uses_anonymous_args = 0
  50              		@ link register save eliminated.
  51              	.LVL1:
  52              		.loc 1 193 0
  53 0000 F0B4     		push	{r4, r5, r6, r7}
  54              		.cfi_def_cfa_offset 16
  55              		.cfi_offset 4, -16
  56              		.cfi_offset 5, -12
  57              		.cfi_offset 6, -8
  58              		.cfi_offset 7, -4
  59              	.LVL2:
 194:Generated_Source\PSoC5/cyfitter_cfg.c **** 	/* For 32-bit little-endian architectures */
 195:Generated_Source\PSoC5/cyfitter_cfg.c **** 	uint32 i, j = 0u;
  60              		.loc 1 195 0
  61 0002 0022     		movs	r2, #0
 196:Generated_Source\PSoC5/cyfitter_cfg.c **** 	for (i = 0u; i < CY_CFG_BASE_ADDR_COUNT; i++)
  62              		.loc 1 196 0
  63 0004 1746     		mov	r7, r2
  64 0006 11E0     		b	.L4
  65              	.LVL3:
  66              	.L7:
  67              	.LBB2:
 197:Generated_Source\PSoC5/cyfitter_cfg.c **** 	{
 198:Generated_Source\PSoC5/cyfitter_cfg.c **** 		uint32 baseAddr = addr_table[i];
  68              		.loc 1 198 0
  69 0008 50F82760 		ldr	r6, [r0, r7, lsl #2]
  70              	.LVL4:
 199:Generated_Source\PSoC5/cyfitter_cfg.c **** 		uint8 count = (uint8)baseAddr;
  71              		.loc 1 199 0
  72 000c F3B2     		uxtb	r3, r6
  73              	.LVL5:
 200:Generated_Source\PSoC5/cyfitter_cfg.c **** 		baseAddr &= 0xFFFFFF00u;
  74              		.loc 1 200 0
  75 000e 26F0FF06 		bic	r6, r6, #255
  76              	.LVL6:
 201:Generated_Source\PSoC5/cyfitter_cfg.c **** 		while (count != 0u)
  77              		.loc 1 201 0
  78 0012 08E0     		b	.L5
  79              	.L6:
 202:Generated_Source\PSoC5/cyfitter_cfg.c **** 		{
 203:Generated_Source\PSoC5/cyfitter_cfg.c **** 			CY_SET_REG8((void *)(baseAddr + data_table[j].offset), data_table[j].value);
  80              		.loc 1 203 0
  81 0014 01EB4205 		add	r5, r1, r2, lsl #1
  82 0018 11F81240 		ldrb	r4, [r1, r2, lsl #1]	@ zero_extendqisi2
ARM GAS  C:\Users\Jacob\AppData\Local\Temp\ccvFF3Lm.s 			page 6


  83 001c 6D78     		ldrb	r5, [r5, #1]	@ zero_extendqisi2
  84 001e A555     		strb	r5, [r4, r6]
 204:Generated_Source\PSoC5/cyfitter_cfg.c **** 			j++;
  85              		.loc 1 204 0
  86 0020 0132     		adds	r2, r2, #1
  87              	.LVL7:
 205:Generated_Source\PSoC5/cyfitter_cfg.c **** 			count--;
  88              		.loc 1 205 0
  89 0022 013B     		subs	r3, r3, #1
  90              	.LVL8:
  91 0024 DBB2     		uxtb	r3, r3
  92              	.LVL9:
  93              	.L5:
 201:Generated_Source\PSoC5/cyfitter_cfg.c **** 		{
  94              		.loc 1 201 0
  95 0026 002B     		cmp	r3, #0
  96 0028 F4D1     		bne	.L6
  97              	.LBE2:
 196:Generated_Source\PSoC5/cyfitter_cfg.c **** 	{
  98              		.loc 1 196 0 discriminator 2
  99 002a 0137     		adds	r7, r7, #1
 100              	.LVL10:
 101              	.L4:
 196:Generated_Source\PSoC5/cyfitter_cfg.c **** 	{
 102              		.loc 1 196 0 is_stmt 0 discriminator 1
 103 002c 262F     		cmp	r7, #38
 104 002e EBD9     		bls	.L7
 206:Generated_Source\PSoC5/cyfitter_cfg.c **** 		}
 207:Generated_Source\PSoC5/cyfitter_cfg.c **** 	}
 208:Generated_Source\PSoC5/cyfitter_cfg.c **** }
 105              		.loc 1 208 0 is_stmt 1
 106 0030 F0BC     		pop	{r4, r5, r6, r7}
 107              		.cfi_restore 7
 108              		.cfi_restore 6
 109              		.cfi_restore 5
 110              		.cfi_restore 4
 111              		.cfi_def_cfa_offset 0
 112              	.LVL11:
 113 0032 7047     		bx	lr
 114              		.cfi_endproc
 115              	.LFE4:
 116              		.size	cfg_write_bytes32, .-cfg_write_bytes32
 117              		.section	.text.CYMEMZERO,"ax",%progbits
 118              		.align	2
 119              		.thumb
 120              		.thumb_func
 121              		.type	CYMEMZERO, %function
 122              	CYMEMZERO:
 123              	.LFB0:
  78:Generated_Source\PSoC5/cyfitter_cfg.c **** 	(void)memset(s, 0, n);
 124              		.loc 1 78 0
 125              		.cfi_startproc
 126              		@ args = 0, pretend = 0, frame = 0
 127              		@ frame_needed = 0, uses_anonymous_args = 0
 128              	.LVL12:
 129 0000 08B5     		push	{r3, lr}
 130              		.cfi_def_cfa_offset 8
ARM GAS  C:\Users\Jacob\AppData\Local\Temp\ccvFF3Lm.s 			page 7


 131              		.cfi_offset 3, -8
 132              		.cfi_offset 14, -4
  79:Generated_Source\PSoC5/cyfitter_cfg.c **** }
 133              		.loc 1 79 0
 134 0002 0A46     		mov	r2, r1
 135 0004 0021     		movs	r1, #0
 136              	.LVL13:
 137 0006 FFF7FEFF 		bl	memset
 138              	.LVL14:
 139 000a 08BD     		pop	{r3, pc}
 140              		.cfi_endproc
 141              	.LFE0:
 142              		.size	CYMEMZERO, .-CYMEMZERO
 143              		.section	.text.ClockSetup,"ax",%progbits
 144              		.align	2
 145              		.thumb
 146              		.thumb_func
 147              		.type	ClockSetup, %function
 148              	ClockSetup:
 149              	.LFB5:
 209:Generated_Source\PSoC5/cyfitter_cfg.c **** 
 210:Generated_Source\PSoC5/cyfitter_cfg.c **** /*******************************************************************************
 211:Generated_Source\PSoC5/cyfitter_cfg.c **** * Function Name: ClockSetup
 212:Generated_Source\PSoC5/cyfitter_cfg.c **** ********************************************************************************
 213:Generated_Source\PSoC5/cyfitter_cfg.c **** *
 214:Generated_Source\PSoC5/cyfitter_cfg.c **** * Summary:
 215:Generated_Source\PSoC5/cyfitter_cfg.c **** *  Performs the initialization of all of the clocks in the device based on the
 216:Generated_Source\PSoC5/cyfitter_cfg.c **** *  settings in the Clock tab of the DWR.  This includes enabling the requested
 217:Generated_Source\PSoC5/cyfitter_cfg.c **** *  clocks and setting the necessary dividers to produce the desired frequency. 
 218:Generated_Source\PSoC5/cyfitter_cfg.c **** *
 219:Generated_Source\PSoC5/cyfitter_cfg.c **** * Parameters:
 220:Generated_Source\PSoC5/cyfitter_cfg.c **** *  void
 221:Generated_Source\PSoC5/cyfitter_cfg.c **** *
 222:Generated_Source\PSoC5/cyfitter_cfg.c **** * Return:
 223:Generated_Source\PSoC5/cyfitter_cfg.c **** *  void
 224:Generated_Source\PSoC5/cyfitter_cfg.c **** *
 225:Generated_Source\PSoC5/cyfitter_cfg.c **** *******************************************************************************/
 226:Generated_Source\PSoC5/cyfitter_cfg.c **** static void ClockSetup(void);
 227:Generated_Source\PSoC5/cyfitter_cfg.c **** static void ClockSetup(void)
 228:Generated_Source\PSoC5/cyfitter_cfg.c **** {
 150              		.loc 1 228 0
 151              		.cfi_startproc
 152              		@ args = 0, pretend = 0, frame = 0
 153              		@ frame_needed = 0, uses_anonymous_args = 0
 154 0000 38B5     		push	{r3, r4, r5, lr}
 155              		.cfi_def_cfa_offset 16
 156              		.cfi_offset 3, -16
 157              		.cfi_offset 4, -12
 158              		.cfi_offset 5, -8
 159              		.cfi_offset 14, -4
 229:Generated_Source\PSoC5/cyfitter_cfg.c **** 	uint32 timeout;
 230:Generated_Source\PSoC5/cyfitter_cfg.c **** 	uint8 pllLock;
 231:Generated_Source\PSoC5/cyfitter_cfg.c **** 
 232:Generated_Source\PSoC5/cyfitter_cfg.c **** 
 233:Generated_Source\PSoC5/cyfitter_cfg.c **** 	/* Configure Digital Clocks based on settings from Clock DWR */
 234:Generated_Source\PSoC5/cyfitter_cfg.c **** 	CY_SET_XTND_REG16((void CYFAR *)(CYREG_CLKDIST_DCFG0_CFG0), 0x0001u);
 160              		.loc 1 234 0
ARM GAS  C:\Users\Jacob\AppData\Local\Temp\ccvFF3Lm.s 			page 8


 161 0002 0122     		movs	r2, #1
 162 0004 284B     		ldr	r3, .L17
 163 0006 1A80     		strh	r2, [r3]	@ movhi
 235:Generated_Source\PSoC5/cyfitter_cfg.c **** 	CY_SET_XTND_REG8((void CYFAR *)(CYREG_CLKDIST_DCFG0_CFG0 + 0x2u), 0x18u);
 164              		.loc 1 235 0
 165 0008 1823     		movs	r3, #24
 166 000a 2849     		ldr	r1, .L17+4
 167 000c 0B70     		strb	r3, [r1]
 236:Generated_Source\PSoC5/cyfitter_cfg.c **** 	CY_SET_XTND_REG16((void CYFAR *)(CYREG_CLKDIST_DCFG1_CFG0), 0x0001u);
 168              		.loc 1 236 0
 169 000e 0231     		adds	r1, r1, #2
 170 0010 0A80     		strh	r2, [r1]	@ movhi
 237:Generated_Source\PSoC5/cyfitter_cfg.c **** 	CY_SET_XTND_REG8((void CYFAR *)(CYREG_CLKDIST_DCFG1_CFG0 + 0x2u), 0x18u);
 171              		.loc 1 237 0
 172 0012 274A     		ldr	r2, .L17+8
 173 0014 1370     		strb	r3, [r2]
 238:Generated_Source\PSoC5/cyfitter_cfg.c **** 	CY_SET_XTND_REG16((void CYFAR *)(CYREG_CLKDIST_DCFG2_CFG0), 0x000Eu);
 174              		.loc 1 238 0
 175 0016 0E21     		movs	r1, #14
 176 0018 0232     		adds	r2, r2, #2
 177 001a 1180     		strh	r1, [r2]	@ movhi
 239:Generated_Source\PSoC5/cyfitter_cfg.c **** 	CY_SET_XTND_REG8((void CYFAR *)(CYREG_CLKDIST_DCFG2_CFG0 + 0x2u), 0x18u);
 178              		.loc 1 239 0
 179 001c 0232     		adds	r2, r2, #2
 180 001e 1370     		strb	r3, [r2]
 240:Generated_Source\PSoC5/cyfitter_cfg.c **** 
 241:Generated_Source\PSoC5/cyfitter_cfg.c **** 	/* Configure ILO based on settings from Clock DWR */
 242:Generated_Source\PSoC5/cyfitter_cfg.c **** 	CY_SET_XTND_REG8((void CYFAR *)(CYREG_SLOWCLK_ILO_CR0), 0x02u);
 181              		.loc 1 242 0
 182 0020 0222     		movs	r2, #2
 183 0022 244B     		ldr	r3, .L17+12
 184 0024 1A70     		strb	r2, [r3]
 243:Generated_Source\PSoC5/cyfitter_cfg.c **** 	CY_SET_XTND_REG8((void CYFAR *)(CYREG_CLKDIST_CR), 0x08u);
 185              		.loc 1 243 0
 186 0026 0822     		movs	r2, #8
 187 0028 4FF04023 		mov	r3, #1073758208
 188 002c 1A70     		strb	r2, [r3]
 244:Generated_Source\PSoC5/cyfitter_cfg.c **** 
 245:Generated_Source\PSoC5/cyfitter_cfg.c **** 	/* Configure IMO based on settings from Clock DWR */
 246:Generated_Source\PSoC5/cyfitter_cfg.c **** 	CY_SET_XTND_REG8((void CYFAR *)(CYREG_FASTCLK_IMO_CR), 0x03u);
 189              		.loc 1 246 0
 190 002e 0321     		movs	r1, #3
 191 0030 03F50073 		add	r3, r3, #512
 192 0034 1970     		strb	r1, [r3]
 247:Generated_Source\PSoC5/cyfitter_cfg.c **** 	CY_SET_XTND_REG8((void CYFAR *)(CYREG_IMO_TR1), (CY_GET_XTND_REG8((void CYFAR *)CYREG_FLSHID_CUST_
 193              		.loc 1 247 0
 194 0036 204B     		ldr	r3, .L17+16
 195 0038 1B78     		ldrb	r3, [r3]	@ zero_extendqisi2
 196 003a DBB2     		uxtb	r3, r3
 197 003c 1F49     		ldr	r1, .L17+20
 198 003e 0B70     		strb	r3, [r1]
 248:Generated_Source\PSoC5/cyfitter_cfg.c **** 
 249:Generated_Source\PSoC5/cyfitter_cfg.c **** 	/* Configure PLL based on settings from Clock DWR */
 250:Generated_Source\PSoC5/cyfitter_cfg.c **** 	CY_SET_XTND_REG16((void CYFAR *)(CYREG_FASTCLK_PLL_P), 0x0008u);
 199              		.loc 1 250 0
 200 0040 1F4B     		ldr	r3, .L17+24
 201 0042 1A80     		strh	r2, [r3]	@ movhi
ARM GAS  C:\Users\Jacob\AppData\Local\Temp\ccvFF3Lm.s 			page 9


 251:Generated_Source\PSoC5/cyfitter_cfg.c **** 	CY_SET_XTND_REG16((void CYFAR *)(CYREG_FASTCLK_PLL_CFG0), 0x1251u);
 202              		.loc 1 251 0
 203 0044 41F25122 		movw	r2, #4689
 204 0048 023B     		subs	r3, r3, #2
 205 004a 1A80     		strh	r2, [r3]	@ movhi
 206              	.LVL15:
 252:Generated_Source\PSoC5/cyfitter_cfg.c **** 	/* Wait up to 250us for the PLL to lock */
 253:Generated_Source\PSoC5/cyfitter_cfg.c **** 	pllLock = 0u;
 207              		.loc 1 253 0
 208 004c 0024     		movs	r4, #0
 254:Generated_Source\PSoC5/cyfitter_cfg.c **** 	for (timeout = 250u / 10u; (timeout > 0u) && (pllLock != 0x03u); timeout--)
 209              		.loc 1 254 0
 210 004e 1925     		movs	r5, #25
 211 0050 0CE0     		b	.L12
 212              	.LVL16:
 213              	.L14:
 255:Generated_Source\PSoC5/cyfitter_cfg.c **** 	{ 
 256:Generated_Source\PSoC5/cyfitter_cfg.c **** 		pllLock = 0x03u & ((uint8)((uint8)pllLock << 1) | ((CY_GET_XTND_REG8((void CYFAR *)CYREG_FASTCLK_
 214              		.loc 1 256 0 discriminator 4
 215 0052 1C4B     		ldr	r3, .L17+28
 216 0054 1B78     		ldrb	r3, [r3]	@ zero_extendqisi2
 217 0056 03F00103 		and	r3, r3, #1
 218 005a 43EA4404 		orr	r4, r3, r4, lsl #1
 219              	.LVL17:
 220 005e 04F00304 		and	r4, r4, #3
 221              	.LVL18:
 257:Generated_Source\PSoC5/cyfitter_cfg.c **** 		CyDelayCycles(10u * 48u); /* Delay 10us based on 48MHz clock */
 222              		.loc 1 257 0 discriminator 4
 223 0062 4FF4F070 		mov	r0, #480
 224 0066 FFF7FEFF 		bl	CyDelayCycles
 225              	.LVL19:
 254:Generated_Source\PSoC5/cyfitter_cfg.c **** 	for (timeout = 250u / 10u; (timeout > 0u) && (pllLock != 0x03u); timeout--)
 226              		.loc 1 254 0 discriminator 4
 227 006a 013D     		subs	r5, r5, #1
 228              	.LVL20:
 229              	.L12:
 254:Generated_Source\PSoC5/cyfitter_cfg.c **** 	for (timeout = 250u / 10u; (timeout > 0u) && (pllLock != 0x03u); timeout--)
 230              		.loc 1 254 0 is_stmt 0 discriminator 1
 231 006c 0DB1     		cbz	r5, .L13
 254:Generated_Source\PSoC5/cyfitter_cfg.c **** 	for (timeout = 250u / 10u; (timeout > 0u) && (pllLock != 0x03u); timeout--)
 232              		.loc 1 254 0 discriminator 3
 233 006e 032C     		cmp	r4, #3
 234 0070 EFD1     		bne	.L14
 235              	.L13:
 258:Generated_Source\PSoC5/cyfitter_cfg.c **** 	}
 259:Generated_Source\PSoC5/cyfitter_cfg.c **** 	/* If we ran out of time the PLL didn't lock so go to the error function */
 260:Generated_Source\PSoC5/cyfitter_cfg.c **** 	if (timeout == 0u)
 236              		.loc 1 260 0 is_stmt 1
 237 0072 15B9     		cbnz	r5, .L15
 261:Generated_Source\PSoC5/cyfitter_cfg.c **** 	{
 262:Generated_Source\PSoC5/cyfitter_cfg.c **** 		CyClockStartupError(CYCLOCKSTART_PLL_ERROR);
 238              		.loc 1 262 0
 239 0074 0320     		movs	r0, #3
 240 0076 FFF7FEFF 		bl	CyClockStartupError
 241              	.LVL21:
 242              	.L15:
 263:Generated_Source\PSoC5/cyfitter_cfg.c **** 	}
ARM GAS  C:\Users\Jacob\AppData\Local\Temp\ccvFF3Lm.s 			page 10


 264:Generated_Source\PSoC5/cyfitter_cfg.c **** 
 265:Generated_Source\PSoC5/cyfitter_cfg.c **** 	/* Configure Bus/Master Clock based on settings from Clock DWR */
 266:Generated_Source\PSoC5/cyfitter_cfg.c **** 	CY_SET_XTND_REG16((void CYFAR *)(CYREG_CLKDIST_MSTR0), 0x0100u);
 243              		.loc 1 266 0
 244 007a 134B     		ldr	r3, .L17+32
 245 007c 4FF48072 		mov	r2, #256
 246 0080 1A80     		strh	r2, [r3]	@ movhi
 267:Generated_Source\PSoC5/cyfitter_cfg.c **** 	CY_SET_XTND_REG8((void CYFAR *)(CYREG_CLKDIST_MSTR0), 0x07u);
 247              		.loc 1 267 0
 248 0082 0722     		movs	r2, #7
 249 0084 1A70     		strb	r2, [r3]
 268:Generated_Source\PSoC5/cyfitter_cfg.c **** 	CY_SET_XTND_REG8((void CYFAR *)(CYREG_CLKDIST_BCFG0), 0x00u);
 250              		.loc 1 268 0
 251 0086 0022     		movs	r2, #0
 252 0088 1049     		ldr	r1, .L17+36
 253 008a 0A70     		strb	r2, [r1]
 269:Generated_Source\PSoC5/cyfitter_cfg.c **** 	CY_SET_XTND_REG8((void CYFAR *)(CYREG_CLKDIST_BCFG2), 0x48u);
 254              		.loc 1 269 0
 255 008c 4820     		movs	r0, #72
 256 008e 0231     		adds	r1, r1, #2
 257 0090 0870     		strb	r0, [r1]
 270:Generated_Source\PSoC5/cyfitter_cfg.c **** 	CY_SET_XTND_REG8((void CYFAR *)(CYREG_CLKDIST_MSTR0), 0x00u);
 258              		.loc 1 270 0
 259 0092 1A70     		strb	r2, [r3]
 271:Generated_Source\PSoC5/cyfitter_cfg.c **** 	CY_SET_XTND_REG8((void CYFAR *)(CYREG_CLKDIST_LD), 0x02u);
 260              		.loc 1 271 0
 261 0094 0222     		movs	r2, #2
 262 0096 033B     		subs	r3, r3, #3
 263 0098 1A70     		strb	r2, [r3]
 272:Generated_Source\PSoC5/cyfitter_cfg.c **** 
 273:Generated_Source\PSoC5/cyfitter_cfg.c **** 	CY_SET_XTND_REG8((void CYFAR *)(CYREG_PM_ACT_CFG2), ((CY_GET_XTND_REG8((void CYFAR *)CYREG_PM_ACT_
 264              		.loc 1 273 0
 265 009a 0D4A     		ldr	r2, .L17+40
 266 009c 1378     		ldrb	r3, [r2]	@ zero_extendqisi2
 267 009e 43F00703 		orr	r3, r3, #7
 268 00a2 1370     		strb	r3, [r2]
 269 00a4 38BD     		pop	{r3, r4, r5, pc}
 270              	.LVL22:
 271              	.L18:
 272 00a6 00BF     		.align	2
 273              	.L17:
 274 00a8 80400040 		.word	1073758336
 275 00ac 82400040 		.word	1073758338
 276 00b0 86400040 		.word	1073758342
 277 00b4 00430040 		.word	1073758976
 278 00b8 08010049 		.word	1224737032
 279 00bc A1460040 		.word	1073759905
 280 00c0 22420040 		.word	1073758754
 281 00c4 25420040 		.word	1073758757
 282 00c8 04400040 		.word	1073758212
 283 00cc 06400040 		.word	1073758214
 284 00d0 A2430040 		.word	1073759138
 285              		.cfi_endproc
 286              	.LFE5:
 287              		.size	ClockSetup, .-ClockSetup
 288              		.section	.text.AnalogSetDefault,"ax",%progbits
 289              		.align	2
ARM GAS  C:\Users\Jacob\AppData\Local\Temp\ccvFF3Lm.s 			page 11


 290              		.thumb
 291              		.thumb_func
 292              		.type	AnalogSetDefault, %function
 293              	AnalogSetDefault:
 294              	.LFB6:
 274:Generated_Source\PSoC5/cyfitter_cfg.c **** }
 275:Generated_Source\PSoC5/cyfitter_cfg.c **** 
 276:Generated_Source\PSoC5/cyfitter_cfg.c **** 
 277:Generated_Source\PSoC5/cyfitter_cfg.c **** /* Analog API Functions */
 278:Generated_Source\PSoC5/cyfitter_cfg.c **** 
 279:Generated_Source\PSoC5/cyfitter_cfg.c **** 
 280:Generated_Source\PSoC5/cyfitter_cfg.c **** /*******************************************************************************
 281:Generated_Source\PSoC5/cyfitter_cfg.c **** * Function Name: AnalogSetDefault
 282:Generated_Source\PSoC5/cyfitter_cfg.c **** ********************************************************************************
 283:Generated_Source\PSoC5/cyfitter_cfg.c **** *
 284:Generated_Source\PSoC5/cyfitter_cfg.c **** * Summary:
 285:Generated_Source\PSoC5/cyfitter_cfg.c **** *  Sets up the analog portions of the chip to default values based on chip
 286:Generated_Source\PSoC5/cyfitter_cfg.c **** *  configuration options from the project.
 287:Generated_Source\PSoC5/cyfitter_cfg.c **** *
 288:Generated_Source\PSoC5/cyfitter_cfg.c **** * Parameters:
 289:Generated_Source\PSoC5/cyfitter_cfg.c **** *  void
 290:Generated_Source\PSoC5/cyfitter_cfg.c **** *
 291:Generated_Source\PSoC5/cyfitter_cfg.c **** * Return:
 292:Generated_Source\PSoC5/cyfitter_cfg.c **** *  void
 293:Generated_Source\PSoC5/cyfitter_cfg.c **** *
 294:Generated_Source\PSoC5/cyfitter_cfg.c **** *******************************************************************************/
 295:Generated_Source\PSoC5/cyfitter_cfg.c **** static void AnalogSetDefault(void);
 296:Generated_Source\PSoC5/cyfitter_cfg.c **** static void AnalogSetDefault(void)
 297:Generated_Source\PSoC5/cyfitter_cfg.c **** {
 295              		.loc 1 297 0
 296              		.cfi_startproc
 297              		@ args = 0, pretend = 0, frame = 0
 298              		@ frame_needed = 0, uses_anonymous_args = 0
 299 0000 F8B5     		push	{r3, r4, r5, r6, r7, lr}
 300              		.cfi_def_cfa_offset 24
 301              		.cfi_offset 3, -24
 302              		.cfi_offset 4, -20
 303              		.cfi_offset 5, -16
 304              		.cfi_offset 6, -12
 305              		.cfi_offset 7, -8
 306              		.cfi_offset 14, -4
 298:Generated_Source\PSoC5/cyfitter_cfg.c **** 	uint8 bg_xover_inl_trim = CY_GET_XTND_REG8((void CYFAR *)(CYREG_FLSHID_MFG_CFG_BG_XOVER_INL_TRIM +
 307              		.loc 1 298 0
 308 0002 164B     		ldr	r3, .L21
 309 0004 1B78     		ldrb	r3, [r3]	@ zero_extendqisi2
 310 0006 DBB2     		uxtb	r3, r3
 311              	.LVL23:
 299:Generated_Source\PSoC5/cyfitter_cfg.c **** 	uint8 cr4 = CY_GET_XTND_REG8((void CYFAR *)(CYREG_RESET_CR4));
 312              		.loc 1 299 0
 313 0008 154E     		ldr	r6, .L21+4
 314 000a 3478     		ldrb	r4, [r6]	@ zero_extendqisi2
 315 000c E4B2     		uxtb	r4, r4
 316              	.LVL24:
 300:Generated_Source\PSoC5/cyfitter_cfg.c **** 	uint8 cr5 = CY_GET_XTND_REG8((void CYFAR *)(CYREG_RESET_CR5));
 317              		.loc 1 300 0
 318 000e 154F     		ldr	r7, .L21+8
 319 0010 3D78     		ldrb	r5, [r7]	@ zero_extendqisi2
ARM GAS  C:\Users\Jacob\AppData\Local\Temp\ccvFF3Lm.s 			page 12


 320 0012 EDB2     		uxtb	r5, r5
 321              	.LVL25:
 301:Generated_Source\PSoC5/cyfitter_cfg.c **** 	CY_SET_XTND_REG8((void CYFAR *)(CYREG_BG_DFT0), (bg_xover_inl_trim & 0x07u));
 322              		.loc 1 301 0
 323 0014 03F00701 		and	r1, r3, #7
 324 0018 134A     		ldr	r2, .L21+12
 325 001a 1170     		strb	r1, [r2]
 302:Generated_Source\PSoC5/cyfitter_cfg.c **** 	CY_SET_XTND_REG8((void CYFAR *)(CYREG_BG_DFT1), ((bg_xover_inl_trim >> 4) & 0x0Fu));
 326              		.loc 1 302 0
 327 001c 1B09     		lsrs	r3, r3, #4
 328              	.LVL26:
 329 001e 0132     		adds	r2, r2, #1
 330 0020 1370     		strb	r3, [r2]
 303:Generated_Source\PSoC5/cyfitter_cfg.c **** 	/* Disable PRES while setting up SAR voltage reference */
 304:Generated_Source\PSoC5/cyfitter_cfg.c **** 	CY_SET_XTND_REG8((void CYFAR *)(CYREG_RESET_CR4), (cr4 | 0x03u));
 331              		.loc 1 304 0
 332 0022 44F00303 		orr	r3, r4, #3
 333 0026 3370     		strb	r3, [r6]
 305:Generated_Source\PSoC5/cyfitter_cfg.c **** 	CY_SET_XTND_REG8((void CYFAR *)(CYREG_RESET_CR5), (cr5 | 0x03u));
 334              		.loc 1 305 0
 335 0028 45F00303 		orr	r3, r5, #3
 336 002c 3B70     		strb	r3, [r7]
 306:Generated_Source\PSoC5/cyfitter_cfg.c **** 	CY_SET_XTND_REG8((void CYFAR *)CYREG_PRT1_AG, 0x10u);
 337              		.loc 1 306 0
 338 002e 1022     		movs	r2, #16
 339 0030 0E4B     		ldr	r3, .L21+16
 340 0032 1A70     		strb	r2, [r3]
 307:Generated_Source\PSoC5/cyfitter_cfg.c **** 	CY_SET_XTND_REG8((void CYFAR *)CYREG_SAR1_CSR1, 0x40u);
 341              		.loc 1 307 0
 342 0034 4023     		movs	r3, #64
 343 0036 0E4A     		ldr	r2, .L21+20
 344 0038 1370     		strb	r3, [r2]
 308:Generated_Source\PSoC5/cyfitter_cfg.c **** 	CY_SET_XTND_REG8((void CYFAR *)CYREG_SAR1_CSR3, 0x40u);
 345              		.loc 1 308 0
 346 003a 0232     		adds	r2, r2, #2
 347 003c 1370     		strb	r3, [r2]
 309:Generated_Source\PSoC5/cyfitter_cfg.c **** 	CY_SET_XTND_REG8((void CYFAR *)CYREG_SAR1_SW0, 0x01u);
 348              		.loc 1 309 0
 349 003e 0122     		movs	r2, #1
 350 0040 0C4B     		ldr	r3, .L21+24
 351 0042 1A70     		strb	r2, [r3]
 310:Generated_Source\PSoC5/cyfitter_cfg.c **** 	CY_SET_XTND_REG8((void CYFAR *)CYREG_SAR1_SW3, 0x20u);
 352              		.loc 1 310 0
 353 0044 2022     		movs	r2, #32
 354 0046 0333     		adds	r3, r3, #3
 355 0048 1A70     		strb	r2, [r3]
 311:Generated_Source\PSoC5/cyfitter_cfg.c **** 	CyDelayUs(10u); /* Allow vref to settle before re-enabling PRES */
 356              		.loc 1 311 0
 357 004a 0A20     		movs	r0, #10
 358 004c FFF7FEFF 		bl	CyDelayUs
 359              	.LVL27:
 312:Generated_Source\PSoC5/cyfitter_cfg.c **** 	CY_SET_XTND_REG8((void CYFAR *)(CYREG_RESET_CR5), (cr5));
 360              		.loc 1 312 0
 361 0050 3D70     		strb	r5, [r7]
 313:Generated_Source\PSoC5/cyfitter_cfg.c **** 	CY_SET_XTND_REG8((void CYFAR *)(CYREG_RESET_CR4), (cr4));
 362              		.loc 1 313 0
 363 0052 3470     		strb	r4, [r6]
ARM GAS  C:\Users\Jacob\AppData\Local\Temp\ccvFF3Lm.s 			page 13


 314:Generated_Source\PSoC5/cyfitter_cfg.c **** 	CY_SET_XTND_REG8((void CYFAR *)CYREG_PUMP_CR0, 0x44u);
 364              		.loc 1 314 0
 365 0054 4422     		movs	r2, #68
 366 0056 084B     		ldr	r3, .L21+28
 367 0058 1A70     		strb	r2, [r3]
 368 005a F8BD     		pop	{r3, r4, r5, r6, r7, pc}
 369              	.LVL28:
 370              	.L22:
 371              		.align	2
 372              	.L21:
 373 005c CF010049 		.word	1224737231
 374 0060 F8460040 		.word	1073759992
 375 0064 F9460040 		.word	1073759993
 376 0068 6E580040 		.word	1073764462
 377 006c 1D510040 		.word	1073762589
 378 0070 09590040 		.word	1073764617
 379 0074 285B0040 		.word	1073765160
 380 0078 76580040 		.word	1073764470
 381              		.cfi_endproc
 382              	.LFE6:
 383              		.size	AnalogSetDefault, .-AnalogSetDefault
 384              		.section	.text.CYCONFIGCPY,"ax",%progbits
 385              		.align	2
 386              		.thumb
 387              		.thumb_func
 388              		.type	CYCONFIGCPY, %function
 389              	CYCONFIGCPY:
 390              	.LFB1:
  85:Generated_Source\PSoC5/cyfitter_cfg.c **** 	(void)memcpy(dest, src, n);
 391              		.loc 1 85 0
 392              		.cfi_startproc
 393              		@ args = 0, pretend = 0, frame = 0
 394              		@ frame_needed = 0, uses_anonymous_args = 0
 395              	.LVL29:
 396 0000 08B5     		push	{r3, lr}
 397              		.cfi_def_cfa_offset 8
 398              		.cfi_offset 3, -8
 399              		.cfi_offset 14, -4
  86:Generated_Source\PSoC5/cyfitter_cfg.c **** }
 400              		.loc 1 86 0
 401 0002 FFF7FEFF 		bl	memcpy
 402              	.LVL30:
 403 0006 08BD     		pop	{r3, pc}
 404              		.cfi_endproc
 405              	.LFE1:
 406              		.size	CYCONFIGCPY, .-CYCONFIGCPY
 407              		.section	.text.SetAnalogRoutingPumps,"ax",%progbits
 408              		.align	2
 409              		.global	SetAnalogRoutingPumps
 410              		.thumb
 411              		.thumb_func
 412              		.type	SetAnalogRoutingPumps, %function
 413              	SetAnalogRoutingPumps:
 414              	.LFB7:
 315:Generated_Source\PSoC5/cyfitter_cfg.c **** }
 316:Generated_Source\PSoC5/cyfitter_cfg.c **** 
 317:Generated_Source\PSoC5/cyfitter_cfg.c **** 
ARM GAS  C:\Users\Jacob\AppData\Local\Temp\ccvFF3Lm.s 			page 14


 318:Generated_Source\PSoC5/cyfitter_cfg.c **** /*******************************************************************************
 319:Generated_Source\PSoC5/cyfitter_cfg.c **** * Function Name: SetAnalogRoutingPumps
 320:Generated_Source\PSoC5/cyfitter_cfg.c **** ********************************************************************************
 321:Generated_Source\PSoC5/cyfitter_cfg.c **** *
 322:Generated_Source\PSoC5/cyfitter_cfg.c **** * Summary:
 323:Generated_Source\PSoC5/cyfitter_cfg.c **** * Enables or disables the analog pumps feeding analog routing switches.
 324:Generated_Source\PSoC5/cyfitter_cfg.c **** * Intended to be called at startup, based on the Vdda system configuration;
 325:Generated_Source\PSoC5/cyfitter_cfg.c **** * may be called during operation when the user informs us that the Vdda voltage
 326:Generated_Source\PSoC5/cyfitter_cfg.c **** * crossed the pump threshold.
 327:Generated_Source\PSoC5/cyfitter_cfg.c **** *
 328:Generated_Source\PSoC5/cyfitter_cfg.c **** * Parameters:
 329:Generated_Source\PSoC5/cyfitter_cfg.c **** *  enabled - 1 to enable the pumps, 0 to disable the pumps
 330:Generated_Source\PSoC5/cyfitter_cfg.c **** *
 331:Generated_Source\PSoC5/cyfitter_cfg.c **** * Return:
 332:Generated_Source\PSoC5/cyfitter_cfg.c **** *  void
 333:Generated_Source\PSoC5/cyfitter_cfg.c **** *
 334:Generated_Source\PSoC5/cyfitter_cfg.c **** *******************************************************************************/
 335:Generated_Source\PSoC5/cyfitter_cfg.c **** void SetAnalogRoutingPumps(uint8 enabled)
 336:Generated_Source\PSoC5/cyfitter_cfg.c **** {
 415              		.loc 1 336 0
 416              		.cfi_startproc
 417              		@ args = 0, pretend = 0, frame = 0
 418              		@ frame_needed = 0, uses_anonymous_args = 0
 419              		@ link register save eliminated.
 420              	.LVL31:
 337:Generated_Source\PSoC5/cyfitter_cfg.c **** 	uint8 regValue = CY_GET_XTND_REG8((void CYFAR *)CYREG_PUMP_CR0);
 421              		.loc 1 337 0
 422 0000 054B     		ldr	r3, .L28
 423 0002 1B78     		ldrb	r3, [r3]	@ zero_extendqisi2
 424 0004 DBB2     		uxtb	r3, r3
 425              	.LVL32:
 338:Generated_Source\PSoC5/cyfitter_cfg.c **** 	if (enabled != 0u)
 426              		.loc 1 338 0
 427 0006 10B1     		cbz	r0, .L26
 339:Generated_Source\PSoC5/cyfitter_cfg.c **** 	{
 340:Generated_Source\PSoC5/cyfitter_cfg.c **** 		regValue |= 0x22u;
 428              		.loc 1 340 0
 429 0008 43F02203 		orr	r3, r3, #34
 430              	.LVL33:
 431 000c 01E0     		b	.L27
 432              	.L26:
 341:Generated_Source\PSoC5/cyfitter_cfg.c **** 	}
 342:Generated_Source\PSoC5/cyfitter_cfg.c **** 	else
 343:Generated_Source\PSoC5/cyfitter_cfg.c **** 	{
 344:Generated_Source\PSoC5/cyfitter_cfg.c **** 		regValue &= (uint8)~0x22u;
 433              		.loc 1 344 0
 434 000e 03F0DD03 		and	r3, r3, #221
 435              	.LVL34:
 436              	.L27:
 345:Generated_Source\PSoC5/cyfitter_cfg.c **** 	}
 346:Generated_Source\PSoC5/cyfitter_cfg.c **** 	CY_SET_XTND_REG8((void CYFAR *)CYREG_PUMP_CR0, regValue);
 437              		.loc 1 346 0
 438 0012 014A     		ldr	r2, .L28
 439 0014 1370     		strb	r3, [r2]
 440 0016 7047     		bx	lr
 441              	.L29:
 442              		.align	2
ARM GAS  C:\Users\Jacob\AppData\Local\Temp\ccvFF3Lm.s 			page 15


 443              	.L28:
 444 0018 76580040 		.word	1073764470
 445              		.cfi_endproc
 446              	.LFE7:
 447              		.size	SetAnalogRoutingPumps, .-SetAnalogRoutingPumps
 448              		.section	.text.cyfitter_cfg,"ax",%progbits
 449              		.align	2
 450              		.global	cyfitter_cfg
 451              		.thumb
 452              		.thumb_func
 453              		.type	cyfitter_cfg, %function
 454              	cyfitter_cfg:
 455              	.LFB8:
 347:Generated_Source\PSoC5/cyfitter_cfg.c **** }
 348:Generated_Source\PSoC5/cyfitter_cfg.c **** 
 349:Generated_Source\PSoC5/cyfitter_cfg.c **** 
 350:Generated_Source\PSoC5/cyfitter_cfg.c **** #define CY_AMUX_UNUSED CYREG_BOOST_SR
 351:Generated_Source\PSoC5/cyfitter_cfg.c **** 
 352:Generated_Source\PSoC5/cyfitter_cfg.c **** 
 353:Generated_Source\PSoC5/cyfitter_cfg.c **** /*******************************************************************************
 354:Generated_Source\PSoC5/cyfitter_cfg.c **** * Function Name: cyfitter_cfg
 355:Generated_Source\PSoC5/cyfitter_cfg.c **** ********************************************************************************
 356:Generated_Source\PSoC5/cyfitter_cfg.c **** * Summary:
 357:Generated_Source\PSoC5/cyfitter_cfg.c **** *  This function is called by the start-up code for the selected device. It
 358:Generated_Source\PSoC5/cyfitter_cfg.c **** *  performs all of the necessary device configuration based on the design
 359:Generated_Source\PSoC5/cyfitter_cfg.c **** *  settings.  This includes settings from the Design Wide Resources (DWR) such
 360:Generated_Source\PSoC5/cyfitter_cfg.c **** *  as Clocks and Pins as well as any component configuration that is necessary.
 361:Generated_Source\PSoC5/cyfitter_cfg.c **** *
 362:Generated_Source\PSoC5/cyfitter_cfg.c **** * Parameters:
 363:Generated_Source\PSoC5/cyfitter_cfg.c **** *   void
 364:Generated_Source\PSoC5/cyfitter_cfg.c **** *
 365:Generated_Source\PSoC5/cyfitter_cfg.c **** * Return:
 366:Generated_Source\PSoC5/cyfitter_cfg.c **** *   void
 367:Generated_Source\PSoC5/cyfitter_cfg.c **** *
 368:Generated_Source\PSoC5/cyfitter_cfg.c **** *******************************************************************************/
 369:Generated_Source\PSoC5/cyfitter_cfg.c **** 
 370:Generated_Source\PSoC5/cyfitter_cfg.c **** void cyfitter_cfg(void)
 371:Generated_Source\PSoC5/cyfitter_cfg.c **** {
 456              		.loc 1 371 0
 457              		.cfi_startproc
 458              		@ args = 0, pretend = 0, frame = 0
 459              		@ frame_needed = 0, uses_anonymous_args = 0
 460 0000 38B5     		push	{r3, r4, r5, lr}
 461              		.cfi_def_cfa_offset 16
 462              		.cfi_offset 3, -16
 463              		.cfi_offset 4, -12
 464              		.cfi_offset 5, -8
 465              		.cfi_offset 14, -4
 372:Generated_Source\PSoC5/cyfitter_cfg.c **** #ifdef CYGlobalIntDisable
 373:Generated_Source\PSoC5/cyfitter_cfg.c **** 	/* Disable interrupts by default. Let user enable if/when they want. */
 374:Generated_Source\PSoC5/cyfitter_cfg.c **** 	CYGlobalIntDisable
 466              		.loc 1 374 0
 467              		.syntax unified
 468              	@ 374 "Generated_Source\PSoC5\cyfitter_cfg.c" 1
 469 0002 72B6     		CPSID   i
 470              	@ 0 "" 2
 375:Generated_Source\PSoC5/cyfitter_cfg.c **** #endif
ARM GAS  C:\Users\Jacob\AppData\Local\Temp\ccvFF3Lm.s 			page 16


 376:Generated_Source\PSoC5/cyfitter_cfg.c **** 
 377:Generated_Source\PSoC5/cyfitter_cfg.c **** 	/* Enable/Disable Debug functionality based on settings from System DWR */
 378:Generated_Source\PSoC5/cyfitter_cfg.c **** 	CY_SET_XTND_REG8((void CYFAR *)CYREG_MLOGIC_DEBUG, (CY_GET_XTND_REG8((void CYFAR *)CYREG_MLOGIC_DE
 471              		.loc 1 378 0
 472              		.thumb
 473              		.syntax unified
 474 0004 314A     		ldr	r2, .L34
 475 0006 1378     		ldrb	r3, [r2]	@ zero_extendqisi2
 476 0008 43F00403 		orr	r3, r3, #4
 477 000c 1370     		strb	r3, [r2]
 478              	.LVL35:
 479              	.LBB3:
 379:Generated_Source\PSoC5/cyfitter_cfg.c **** 
 380:Generated_Source\PSoC5/cyfitter_cfg.c **** 	{
 381:Generated_Source\PSoC5/cyfitter_cfg.c **** 
 382:Generated_Source\PSoC5/cyfitter_cfg.c **** 		CYPACKED typedef struct {
 383:Generated_Source\PSoC5/cyfitter_cfg.c **** 			void CYFAR *address;
 384:Generated_Source\PSoC5/cyfitter_cfg.c **** 			uint16 size;
 385:Generated_Source\PSoC5/cyfitter_cfg.c **** 		} CYPACKED_ATTR cfg_memset_t;
 386:Generated_Source\PSoC5/cyfitter_cfg.c **** 
 387:Generated_Source\PSoC5/cyfitter_cfg.c **** 		static const cfg_memset_t CYCODE cfg_memset_list[] = {
 388:Generated_Source\PSoC5/cyfitter_cfg.c **** 			/* address, size */
 389:Generated_Source\PSoC5/cyfitter_cfg.c **** 			{(void CYFAR *)(CYREG_PRT3_DR), 64u},
 390:Generated_Source\PSoC5/cyfitter_cfg.c **** 			{(void CYFAR *)(CYREG_PRT12_DR), 16u},
 391:Generated_Source\PSoC5/cyfitter_cfg.c **** 			{(void CYFAR *)(CYREG_PRT15_DR), 16u},
 392:Generated_Source\PSoC5/cyfitter_cfg.c **** 			{(void CYFAR *)(CYDEV_UCFG_B0_P0_U0_BASE), 4096u},
 393:Generated_Source\PSoC5/cyfitter_cfg.c **** 			{(void CYFAR *)(CYDEV_UCFG_B1_P2_U0_BASE), 2048u},
 394:Generated_Source\PSoC5/cyfitter_cfg.c **** 			{(void CYFAR *)(CYDEV_UCFG_DSI0_BASE), 2560u},
 395:Generated_Source\PSoC5/cyfitter_cfg.c **** 			{(void CYFAR *)(CYDEV_UCFG_DSI12_BASE), 512u},
 396:Generated_Source\PSoC5/cyfitter_cfg.c **** 			{(void CYFAR *)(CYREG_BCTL0_MDCLK_EN), 32u},
 397:Generated_Source\PSoC5/cyfitter_cfg.c **** 		};
 398:Generated_Source\PSoC5/cyfitter_cfg.c **** 
 399:Generated_Source\PSoC5/cyfitter_cfg.c **** 		uint8 CYDATA i;
 400:Generated_Source\PSoC5/cyfitter_cfg.c **** 
 401:Generated_Source\PSoC5/cyfitter_cfg.c **** 		/* Zero out critical memory blocks before beginning configuration */
 402:Generated_Source\PSoC5/cyfitter_cfg.c **** 		for (i = 0u; i < (sizeof(cfg_memset_list)/sizeof(cfg_memset_list[0])); i++)
 480              		.loc 1 402 0
 481 000e 0024     		movs	r4, #0
 482 0010 0CE0     		b	.L31
 483              	.LVL36:
 484              	.L32:
 485              	.LBB4:
 403:Generated_Source\PSoC5/cyfitter_cfg.c **** 		{
 404:Generated_Source\PSoC5/cyfitter_cfg.c **** 			const cfg_memset_t CYCODE * CYDATA ms = &cfg_memset_list[i];
 405:Generated_Source\PSoC5/cyfitter_cfg.c **** 			CYMEMZERO(ms->address, (size_t)(uint32)(ms->size));
 486              		.loc 1 405 0 discriminator 3
 487 0012 2F4D     		ldr	r5, .L34+4
 488 0014 6300     		lsls	r3, r4, #1
 489 0016 1919     		adds	r1, r3, r4
 490 0018 4A00     		lsls	r2, r1, #1
 491 001a 1146     		mov	r1, r2
 492 001c 2A44     		add	r2, r2, r5
 493 001e 0846     		mov	r0, r1
 494 0020 9188     		ldrh	r1, [r2, #4]
 495 0022 2858     		ldr	r0, [r5, r0]	@ unaligned
 496 0024 FFF7FEFF 		bl	CYMEMZERO
 497              	.LVL37:
ARM GAS  C:\Users\Jacob\AppData\Local\Temp\ccvFF3Lm.s 			page 17


 498              	.LBE4:
 402:Generated_Source\PSoC5/cyfitter_cfg.c **** 		{
 499              		.loc 1 402 0 discriminator 3
 500 0028 0134     		adds	r4, r4, #1
 501              	.LVL38:
 502 002a E4B2     		uxtb	r4, r4
 503              	.LVL39:
 504              	.L31:
 402:Generated_Source\PSoC5/cyfitter_cfg.c **** 		{
 505              		.loc 1 402 0 is_stmt 0 discriminator 1
 506 002c 072C     		cmp	r4, #7
 507 002e F0D9     		bls	.L32
 406:Generated_Source\PSoC5/cyfitter_cfg.c **** 		}
 407:Generated_Source\PSoC5/cyfitter_cfg.c **** 
 408:Generated_Source\PSoC5/cyfitter_cfg.c **** 		cfg_write_bytes32(cy_cfg_addr_table, cy_cfg_data_table);
 508              		.loc 1 408 0 is_stmt 1
 509 0030 2849     		ldr	r1, .L34+8
 510 0032 4FF09040 		mov	r0, #1207959552
 511 0036 FFF7FEFF 		bl	cfg_write_bytes32
 512              	.LVL40:
 409:Generated_Source\PSoC5/cyfitter_cfg.c **** 
 410:Generated_Source\PSoC5/cyfitter_cfg.c **** 		/* Perform normal device configuration. Order is not critical for these items. */
 411:Generated_Source\PSoC5/cyfitter_cfg.c **** 		CYMEMZERO((void CYFAR *)(CYREG_PHUB_CFGMEM0_CFG0), 4u);
 513              		.loc 1 411 0
 514 003a 0421     		movs	r1, #4
 515 003c 2648     		ldr	r0, .L34+12
 516 003e FFF7FEFF 		bl	CYMEMZERO
 517              	.LVL41:
 412:Generated_Source\PSoC5/cyfitter_cfg.c **** 		CYCONFIGCPY((void CYFAR *)(CYREG_PHUB_CFGMEM1_CFG0), (const void CYFAR *)(BS_PHUB_CFGMEM1_VAL), 4
 518              		.loc 1 412 0
 519 0042 0422     		movs	r2, #4
 520 0044 2549     		ldr	r1, .L34+16
 521 0046 2648     		ldr	r0, .L34+20
 522 0048 FFF7FEFF 		bl	CYCONFIGCPY
 523              	.LVL42:
 413:Generated_Source\PSoC5/cyfitter_cfg.c **** 
 414:Generated_Source\PSoC5/cyfitter_cfg.c **** 		/* B0_P4_U1_CFG24 Starting address: CYDEV_UCFG_B0_P4_U1_CFG24 */
 415:Generated_Source\PSoC5/cyfitter_cfg.c **** 		CY_SET_XTND_REG32((void CYFAR *)(CYREG_B0_P4_U1_CFG24), 0x44040404u);
 524              		.loc 1 415 0
 525 004c 254A     		ldr	r2, .L34+24
 526 004e 264B     		ldr	r3, .L34+28
 527 0050 1A60     		str	r2, [r3]
 416:Generated_Source\PSoC5/cyfitter_cfg.c **** 
 417:Generated_Source\PSoC5/cyfitter_cfg.c **** 		/* Enable digital routing */
 418:Generated_Source\PSoC5/cyfitter_cfg.c **** 		CY_SET_XTND_REG8((void CYFAR *)CYREG_BCTL0_BANK_CTL, CY_GET_XTND_REG8((void CYFAR *)CYREG_BCTL0_B
 528              		.loc 1 418 0
 529 0052 264A     		ldr	r2, .L34+32
 530 0054 1378     		ldrb	r3, [r2]	@ zero_extendqisi2
 531 0056 43F00203 		orr	r3, r3, #2
 532 005a 1370     		strb	r3, [r2]
 419:Generated_Source\PSoC5/cyfitter_cfg.c **** 		CY_SET_XTND_REG8((void CYFAR *)CYREG_BCTL1_BANK_CTL, CY_GET_XTND_REG8((void CYFAR *)CYREG_BCTL1_B
 533              		.loc 1 419 0
 534 005c 1032     		adds	r2, r2, #16
 535 005e 1378     		ldrb	r3, [r2]	@ zero_extendqisi2
 536 0060 43F00203 		orr	r3, r3, #2
 537 0064 1370     		strb	r3, [r2]
 420:Generated_Source\PSoC5/cyfitter_cfg.c **** 
ARM GAS  C:\Users\Jacob\AppData\Local\Temp\ccvFF3Lm.s 			page 18


 421:Generated_Source\PSoC5/cyfitter_cfg.c **** 		/* Enable UDB array */
 422:Generated_Source\PSoC5/cyfitter_cfg.c **** 		CY_SET_XTND_REG8((void CYFAR *)CYREG_PM_ACT_CFG0, CY_GET_XTND_REG8((void CYFAR *)CYREG_PM_ACT_CFG
 538              		.loc 1 422 0
 539 0066 224C     		ldr	r4, .L34+36
 540              	.LVL43:
 541 0068 2378     		ldrb	r3, [r4]	@ zero_extendqisi2
 542 006a 43F04003 		orr	r3, r3, #64
 543 006e 2370     		strb	r3, [r4]
 423:Generated_Source\PSoC5/cyfitter_cfg.c **** 		CY_SET_XTND_REG8((void CYFAR *)CYREG_PM_AVAIL_CR2, CY_GET_XTND_REG8((void CYFAR *)CYREG_PM_AVAIL_
 544              		.loc 1 423 0
 545 0070 A2F58632 		sub	r2, r2, #68608
 546 0074 513A     		subs	r2, r2, #81
 547 0076 1378     		ldrb	r3, [r2]	@ zero_extendqisi2
 548 0078 43F01003 		orr	r3, r3, #16
 549 007c 1370     		strb	r3, [r2]
 550              	.LBE3:
 424:Generated_Source\PSoC5/cyfitter_cfg.c **** 	}
 425:Generated_Source\PSoC5/cyfitter_cfg.c **** 
 426:Generated_Source\PSoC5/cyfitter_cfg.c **** 
 427:Generated_Source\PSoC5/cyfitter_cfg.c **** 	/* Perform second pass device configuration. These items must be configured in specific order afte
 428:Generated_Source\PSoC5/cyfitter_cfg.c **** 	CYCONFIGCPY((void CYFAR *)(CYREG_PRT0_DM0), (const void CYFAR *)(BS_IOPINS0_0_VAL), 8u);
 551              		.loc 1 428 0
 552 007e 0822     		movs	r2, #8
 553 0080 1C49     		ldr	r1, .L34+40
 554 0082 1D48     		ldr	r0, .L34+44
 555 0084 FFF7FEFF 		bl	CYCONFIGCPY
 556              	.LVL44:
 429:Generated_Source\PSoC5/cyfitter_cfg.c **** 	CYCONFIGCPY((void CYFAR *)(CYREG_PRT1_DM0), (const void CYFAR *)(BS_IOPINS0_1_VAL), 8u);
 557              		.loc 1 429 0
 558 0088 0822     		movs	r2, #8
 559 008a 1C49     		ldr	r1, .L34+48
 560 008c 1C48     		ldr	r0, .L34+52
 561 008e FFF7FEFF 		bl	CYCONFIGCPY
 562              	.LVL45:
 430:Generated_Source\PSoC5/cyfitter_cfg.c **** 	CYCONFIGCPY((void CYFAR *)(CYREG_PRT2_DM0), (const void CYFAR *)(BS_IOPINS0_2_VAL), 8u);
 563              		.loc 1 430 0
 564 0092 0822     		movs	r2, #8
 565 0094 1B49     		ldr	r1, .L34+56
 566 0096 1C48     		ldr	r0, .L34+60
 567 0098 FFF7FEFF 		bl	CYCONFIGCPY
 568              	.LVL46:
 431:Generated_Source\PSoC5/cyfitter_cfg.c **** 	/* Switch Boost to the precision bandgap reference from its internal reference */
 432:Generated_Source\PSoC5/cyfitter_cfg.c **** 	CY_SET_REG8((void CYXDATA *)CYREG_BOOST_CR2, (CY_GET_REG8((void CYXDATA *)CYREG_BOOST_CR2) | 0x08u
 569              		.loc 1 432 0
 570 009c 1B4A     		ldr	r2, .L34+64
 571 009e 1378     		ldrb	r3, [r2]	@ zero_extendqisi2
 572 00a0 43F00803 		orr	r3, r3, #8
 573 00a4 1370     		strb	r3, [r2]
 433:Generated_Source\PSoC5/cyfitter_cfg.c **** 
 434:Generated_Source\PSoC5/cyfitter_cfg.c **** 	/* Set Flash Cycles based on max possible frequency in case a glitch occurs during ClockSetup(). *
 435:Generated_Source\PSoC5/cyfitter_cfg.c **** 	CY_SET_XTND_REG8((void CYFAR *)(CYREG_CACHE_CC_CTL), (((CYDEV_INSTRUCT_CACHE_ENABLED) != 0) ? 0x61
 574              		.loc 1 435 0
 575 00a6 1A4D     		ldr	r5, .L34+68
 576 00a8 6123     		movs	r3, #97
 577 00aa 2B70     		strb	r3, [r5]
 436:Generated_Source\PSoC5/cyfitter_cfg.c **** 	/* Setup clocks based on selections from Clock DWR */
 437:Generated_Source\PSoC5/cyfitter_cfg.c **** 	ClockSetup();
ARM GAS  C:\Users\Jacob\AppData\Local\Temp\ccvFF3Lm.s 			page 19


 578              		.loc 1 437 0
 579 00ac FFF7FEFF 		bl	ClockSetup
 580              	.LVL47:
 438:Generated_Source\PSoC5/cyfitter_cfg.c **** 	/* Set Flash Cycles based on newly configured 24.00MHz Bus Clock. */
 439:Generated_Source\PSoC5/cyfitter_cfg.c **** 	CY_SET_XTND_REG8((void CYFAR *)(CYREG_CACHE_CC_CTL), (((CYDEV_INSTRUCT_CACHE_ENABLED) != 0) ? 0x81
 581              		.loc 1 439 0
 582 00b0 8123     		movs	r3, #129
 583 00b2 2B70     		strb	r3, [r5]
 440:Generated_Source\PSoC5/cyfitter_cfg.c **** 	CY_SET_XTND_REG8((void CYFAR *)(CYREG_PANTHER_WAITPIPE), 0x01u);
 584              		.loc 1 440 0
 585 00b4 0122     		movs	r2, #1
 586 00b6 174B     		ldr	r3, .L34+72
 587 00b8 1A70     		strb	r2, [r3]
 441:Generated_Source\PSoC5/cyfitter_cfg.c **** 
 442:Generated_Source\PSoC5/cyfitter_cfg.c **** 	/* Perform basic analog initialization to defaults */
 443:Generated_Source\PSoC5/cyfitter_cfg.c **** 	AnalogSetDefault();
 588              		.loc 1 443 0
 589 00ba FFF7FEFF 		bl	AnalogSetDefault
 590              	.LVL48:
 444:Generated_Source\PSoC5/cyfitter_cfg.c **** 
 445:Generated_Source\PSoC5/cyfitter_cfg.c **** 	/* Configure alternate active mode */
 446:Generated_Source\PSoC5/cyfitter_cfg.c **** 	CYCONFIGCPY((void CYFAR *)CYDEV_PM_STBY_BASE, (const void CYFAR *)CYDEV_PM_ACT_BASE, 14u);
 591              		.loc 1 446 0
 592 00be 0E22     		movs	r2, #14
 593 00c0 2146     		mov	r1, r4
 594 00c2 1548     		ldr	r0, .L34+76
 595 00c4 FFF7FEFF 		bl	CYCONFIGCPY
 596              	.LVL49:
 597 00c8 38BD     		pop	{r3, r4, r5, pc}
 598              	.L35:
 599 00ca 00BF     		.align	2
 600              	.L34:
 601 00cc E8460040 		.word	1073759976
 602 00d0 00000000 		.word	.LANCHOR0
 603 00d4 9C000048 		.word	1207959708
 604 00d8 00760040 		.word	1073772032
 605 00dc 00080048 		.word	1207961600
 606 00e0 08760040 		.word	1073772040
 607 00e4 04040444 		.word	1141113860
 608 00e8 D8080140 		.word	1073809624
 609 00ec 03500140 		.word	1073827843
 610 00f0 A0430040 		.word	1073759136
 611 00f4 E8070048 		.word	1207961576
 612 00f8 02510040 		.word	1073762562
 613 00fc F0070048 		.word	1207961584
 614 0100 12510040 		.word	1073762578
 615 0104 F8070048 		.word	1207961592
 616 0108 22510040 		.word	1073762594
 617 010c 22430040 		.word	1073759010
 618 0110 00480040 		.word	1073760256
 619 0114 04000840 		.word	1074266116
 620 0118 B0430040 		.word	1073759152
 621              		.cfi_endproc
 622              	.LFE8:
 623              		.size	cyfitter_cfg, .-cyfitter_cfg
 624              		.section	.rodata
 625              		.align	2
ARM GAS  C:\Users\Jacob\AppData\Local\Temp\ccvFF3Lm.s 			page 20


 626              		.set	.LANCHOR0,. + 0
 627              		.type	cfg_memset_list.5005, %object
 628              		.size	cfg_memset_list.5005, 48
 629              	cfg_memset_list.5005:
 630 0000 30510040 		.word	1073762608
 631 0004 4000     		.short	64
 632 0006 C0510040 		.4byte	1073762752
 633 000a 1000     		.short	16
 634 000c F0510040 		.word	1073762800
 635 0010 1000     		.short	16
 636 0012 00000140 		.4byte	1073807360
 637 0016 0010     		.short	4096
 638 0018 00140140 		.word	1073812480
 639 001c 0008     		.short	2048
 640 001e 00400140 		.4byte	1073823744
 641 0022 000A     		.short	2560
 642 0024 004C0140 		.word	1073826816
 643 0028 0002     		.short	512
 644 002a 00500140 		.4byte	1073827840
 645 002e 2000     		.short	32
 646              		.text
 647              	.Letext0:
 648              		.file 2 "c:\\program files (x86)\\cypress\\psoc creator\\4.1\\psoc creator\\import\\gnu\\arm\\5.4.
 649              		.file 3 "Generated_Source\\PSoC5\\cytypes.h"
 650              		.file 4 "Generated_Source\\PSoC5\\CyLib.h"