

Microchip Technology PIC18 LITE Macro Assembler V1.45 build -152302408 
                                                                                               Thu Apr 19 16:42:12 2018

Microchip Technology Omniscient Code Generator v1.45 (Free mode) build 201711160504
     1                           	processor	18F47K40
     2                           	fnconf	rparam,??,?,0
     3                           	opt	pw 120
     4                           	opt	lm
     5                           	psect	smallconst,global,reloc=2,class=SMALLCONST,delta=1,noexec
     6                           	psect	cinit,global,reloc=2,class=CODE,delta=1
     7                           	psect	cstackCOMRAM,global,class=COMRAM,space=1,delta=1,noexec
     8                           	psect	text0,global,reloc=2,class=CODE,delta=1
     9                           	psect	text1,global,reloc=2,class=CODE,delta=1
    10                           	psect	text2,global,reloc=2,class=CODE,delta=1
    11                           	psect	text3,global,reloc=2,class=CODE,delta=1
    12                           	psect	text4,global,reloc=2,class=CODE,delta=1
    13                           	psect	text5,global,reloc=2,class=CODE,delta=1
    14                           	psect	text6,global,reloc=2,class=CODE,delta=1
    15                           	psect	intsave_regs,global,class=BIGRAM,space=1,delta=1,noexec
    16                           	psect	rparam,global,class=COMRAM,space=1,delta=1,noexec
    17  0000                     
    18                           ; Version 1.45
    19                           ; Generated 16/11/2017 GMT
    20                           ; 
    21                           ; Copyright © 2017, Microchip Technology Inc. and its subsidiaries ("Microchip")
    22                           ; All rights reserved.
    23                           ; 
    24                           ; This software is developed by Microchip Technology Inc. and its subsidiaries ("Microch
      +                          ip").
    25                           ; 
    26                           ; Redistribution and use in source and binary forms, with or without modification, are
    27                           ; permitted provided that the following conditions are met:
    28                           ; 
    29                           ;     1. Redistributions of source code must retain the above copyright notice, this lis
      +                          t of
    30                           ;        conditions and the following disclaimer.
    31                           ; 
    32                           ;     2. Redistributions in binary form must reproduce the above copyright notice, this 
      +                          list
    33                           ;        of conditions and the following disclaimer in the documentation and/or other
    34                           ;        materials provided with the distribution.
    35                           ; 
    36                           ;     3. Microchip's name may not be used to endorse or promote products derived from th
      +                          is
    37                           ;        software without specific prior written permission.
    38                           ; 
    39                           ; THIS SOFTWARE IS PROVIDED BY MICROCHIP "AS IS" AND ANY EXPRESS OR IMPLIED WARRANTIES,
    40                           ; INCLUDING, BUT NOT LIMITED TO, THE IMPLIED WARRANTIES OF MERCHANTABILITY AND FITNESS F
      +                          OR
    41                           ; PURPOSE ARE DISCLAIMED.  IN NO EVENT SHALL MICROCHIP BE LIABLE FOR ANY DIRECT, INDIREC
      +                          T,
    42                           ; INCIDENTAL, SPECIAL, EXEMPLARY, OR CONSEQUENTIAL DAMAGES (INCLUDING BUT NOT LIMITED TO
    43                           ; PROCUREMENT OF SUBSTITUTE GOODS OR SERVICES; LOSS OF USE, DATA OR PROFITS; OR BUSINESS
    44                           ; INTERRUPTION) HOWSOEVER CAUSED AND ON ANY THEORY OF LIABILITY, WHETHER IN CONTRACT, ST
      +                          RICT
    45                           ; LIABILITY, OR TORT (INCLUDING NEGLIGENCE OR OTHERWISE) ARISING IN ANY WAY OUT OF THE U
      +                          SE OF
    46                           ; THIS SOFTWARE, EVEN IF ADVISED OF THE POSSIBILITY OF SUCH DAMAGE.
    47                           ; 
    48                           ; 
    49                           ; Code-generator required, PIC18F47K40 Definitions
    50                           ; 
    51                           ; SFR Addresses
    52  0000                     
    53                           	psect	smallconst
    54  000F00                     __psmallconst:
    55                           	opt stack 0
    56  000F00  00                 	db	0
    57  000F01                     _spi2_configuration:
    58                           	opt stack 0
    59  000F01  10                 	db	16
    60  000F02  00                 	db	0
    61  000F03  04                 	db	4
    62  000F04                     __end_of_spi2_configuration:
    63                           	opt stack 0
    64  0000                     _PIR3bits	set	3789
    65  0000                     _SSP2BUF	set	3730
    66  0000                     _SSP2ADD	set	3731
    67  0000                     _SSP2CON2	set	3735
    68  0000                     _SSP2CON1	set	3734
    69  0000                     _SSP2STAT	set	3733
    70  0000                     _SSP2CON1bits	set	3734
    71  0000                     _PMD5	set	3814
    72  0000                     _PMD4	set	3813
    73  0000                     _PMD3	set	3812
    74  0000                     _PMD2	set	3811
    75  0000                     _PMD1	set	3810
    76  0000                     _PMD0	set	3809
    77  0000                     _OSCTUNE	set	3805
    78  0000                     _OSCFRQ	set	3806
    79  0000                     _OSCEN	set	3804
    80  0000                     _OSCCON3	set	3802
    81  0000                     _OSCCON1	set	3800
    82  0000                     _SSP2DATPPSbits	set	3728
    83  0000                     _SSP2CLKPPSbits	set	3727
    84  0000                     _RD1PPS	set	3840
    85  0000                     _RD3PPS	set	3842
    86  0000                     _ODCOND	set	3876
    87  0000                     _ODCONC	set	3871
    88  0000                     _ODCONB	set	3863
    89  0000                     _ODCONA	set	3855
    90  0000                     _ODCONE	set	3884
    91  0000                     _WPUC	set	3872
    92  0000                     _WPUA	set	3856
    93  0000                     _WPUB	set	3864
    94  0000                     _WPUE	set	3885
    95  0000                     _WPUD	set	3877
    96  0000                     _ANSELA	set	3857
    97  0000                     _ANSELE	set	3886
    98  0000                     _ANSELD	set	3878
    99  0000                     _ANSELB	set	3865
   100  0000                     _ANSELC	set	3873
   101  0000                     _LATAbits	set	3971
   102  0000                     _PORTCbits	set	3983
   103  0000                     _TRISDbits	set	3979
   104  0000                     _TRISD	set	3979
   105  0000                     _TRISC	set	3978
   106  0000                     _TRISB	set	3977
   107  0000                     _TRISA	set	3976
   108  0000                     _TRISE	set	3980
   109  0000                     _LATC	set	3973
   110  0000                     _LATB	set	3972
   111  0000                     _LATA	set	3971
   112  0000                     _LATD	set	3974
   113  0000                     _LATE	set	3975
   114                           
   115                           ; #config settings
   116  000F04  00                 	db	0	; dummy byte at the end
   117  0000                     
   118                           	psect	cinit
   119  00106E                     __pcinit:
   120                           	opt stack 0
   121  00106E                     start_initialization:
   122                           	opt stack 0
   123  00106E                     __initialization:
   124                           	opt stack 0
   125  00106E                     end_of_initialization:
   126                           	opt stack 0
   127  00106E                     __end_of__initialization:
   128                           	opt stack 0
   129  00106E  0E00               	movlw	low (__Lsmallconst shr (0+16))
   130  001070  6EF8               	movwf	tblptru,c
   131  001072  0E0F               	movlw	high __Lsmallconst
   132  001074  6EF7               	movwf	tblptrh,c
   133  001076  0100               	movlb	0
   134  001078  EFF5  F007         	goto	_main	;jump to C main() function
   135                           tblptru	equ	0xFF8
   136                           tblptrh	equ	0xFF7
   137                           
   138                           	psect	cstackCOMRAM
   139  000001                     __pcstackCOMRAM:
   140                           	opt stack 0
   141  000001                     spi2_slave_open@spiUniqueConfiguration:
   142                           	opt stack 0
   143  000001                     spi2_exchangeByte@b:
   144                           	opt stack 0
   145                           
   146                           ; 1 bytes @ 0x0
   147  000001                     	ds	1
   148  000002                     ??_main:
   149                           
   150                           ; 1 bytes @ 0x1
   151  000002                     	ds	1
   152  000003                     main@res:
   153                           	opt stack 0
   154                           
   155                           ; 1 bytes @ 0x2
   156  000003                     	ds	1
   157                           tblptru	equ	0xFF8
   158                           tblptrh	equ	0xFF7
   159                           
   160 ;;
   161 ;;Main: autosize = 0, tempsize = 1, incstack = 0, save=0
   162 ;;
   163 ;; *************** function _main *****************
   164 ;; Defined at:
   165 ;;		line 48 in file "main.c"
   166 ;; Parameters:    Size  Location     Type
   167 ;;		None
   168 ;; Auto vars:     Size  Location     Type
   169 ;;  res             1    2[COMRAM] unsigned char 
   170 ;; Return value:  Size  Location     Type
   171 ;;                  1    wreg      void 
   172 ;; Registers used:
   173 ;;		wreg, status,2, status,0, tblptrl, tblptrh, tblptru, prodl, prodh, cstack
   174 ;; Tracked objects:
   175 ;;		On entry : 0/0
   176 ;;		On exit  : 0/0
   177 ;;		Unchanged: 0/0
   178 ;; Data sizes:     COMRAM   BANK0   BANK1   BANK2   BANK3   BANK4   BANK5   BANK6   BANK7   BANK8   BANK9  BANK10  BANK1
      +1  BANK12  BANK13  BANK14
   179 ;;      Params:         0       0       0       0       0       0       0       0       0       0       0       0       
      +0       0       0       0
   180 ;;      Locals:         1       0       0       0       0       0       0       0       0       0       0       0       
      +0       0       0       0
   181 ;;      Temps:          1       0       0       0       0       0       0       0       0       0       0       0       
      +0       0       0       0
   182 ;;      Totals:         2       0       0       0       0       0       0       0       0       0       0       0       
      +0       0       0       0
   183 ;;Total ram usage:        2 bytes
   184 ;; Hardware stack levels required when called:    2
   185 ;; This function calls:
   186 ;;		_SYSTEM_Initialize
   187 ;;		_spi2_exchangeByte
   188 ;;		_spi2_slave_open
   189 ;; This function is called by:
   190 ;;		Startup code after reset
   191 ;; This function uses a non-reentrant model
   192 ;;
   193                           
   194                           	psect	text0
   195  000FEA                     __ptext0:
   196                           	opt stack 0
   197  000FEA                     _main:
   198                           	opt stack 29
   199                           
   200                           ;main.c: 51: SYSTEM_Initialize();
   201                           
   202                           ;incstack = 0
   203  000FEA  EC3E  F008         	call	_SYSTEM_Initialize	;wreg free
   204                           
   205                           ;main.c: 69: spi2_slave_open(CUSTOM0);
   206  000FEE  0E00               	movlw	0
   207  000FF0  ECC3  F007         	call	_spi2_slave_open
   208                           
   209                           ;main.c: 70: while(PORTCbits.RC6 == 0)
   210  000FF4  D008               	goto	l175
   211  000FF6                     
   212                           ;main.c: 71: _delay((unsigned long)((50)*(2000000/4000.0)));
   213  000FF6  0E21               	movlw	33
   214  000FF8  6E02               	movwf	??_main& (0+255),c
   215  000FFA  0E76               	movlw	118
   216  000FFC                     u87:
   217  000FFC  2EE8               	decfsz	wreg,f,c
   218  000FFE  D7FE               	bra	u87
   219  001000  2E02               	decfsz	??_main& (0+255),f,c
   220  001002  D7FC               	bra	u87
   221  001004  D000               	nop2	
   222  001006                     l175:
   223  001006  AC8F               	btfss	3983,6,c	;volatile
   224  001008  D7F6               	goto	l176
   225                           
   226                           ;main.c: 72: do { LATAbits.LATA4 = 0; } while(0);
   227  00100A  9883               	bcf	3971,4,c	;volatile
   228                           
   229                           ;main.c: 73: uint8_t res = spi2_exchangeByte(1);
   230  00100C  0E01               	movlw	1
   231  00100E  EC2E  F008         	call	_spi2_exchangeByte
   232  001012  6E03               	movwf	main@res,c
   233                           
   234                           ;main.c: 75: do { LATAbits.LATA4 = 1; } while(0);
   235  001014  8883               	bsf	3971,4,c	;volatile
   236  001016                     
   237                           ;main.c: 79: {
   238                           ;main.c: 81: _delay((unsigned long)((50)*(2000000/4000.0)));
   239                           
   240                           ;main.c: 78: while (1)
   241  001016  0E21               	movlw	33
   242  001018  6E02               	movwf	??_main& (0+255),c
   243  00101A  0E76               	movlw	118
   244  00101C                     u97:
   245  00101C  2EE8               	decfsz	wreg,f,c
   246  00101E  D7FE               	bra	u97
   247  001020  2E02               	decfsz	??_main& (0+255),f,c
   248  001022  D7FC               	bra	u97
   249  001024  D000               	nop2	
   250  001026  D7F7               	goto	l181
   251  001028                     __end_of_main:
   252                           	opt stack 0
   253                           tblptru	equ	0xFF8
   254                           tblptrh	equ	0xFF7
   255                           wreg	equ	0xFE8
   256                           
   257 ;; *************** function _spi2_slave_open *****************
   258 ;; Defined at:
   259 ;;		line 60 in file "mcc_generated_files/spi2_driver.c"
   260 ;; Parameters:    Size  Location     Type
   261 ;;  spiUniqueCon    1    wreg     enum E11670
   262 ;; Auto vars:     Size  Location     Type
   263 ;;  spiUniqueCon    1    0[COMRAM] enum E11670
   264 ;; Return value:  Size  Location     Type
   265 ;;		None               void
   266 ;; Registers used:
   267 ;;		wreg, status,2, status,0, tblptrl, tblptrh, tblptru, prodl, prodh
   268 ;; Tracked objects:
   269 ;;		On entry : 0/0
   270 ;;		On exit  : 0/0
   271 ;;		Unchanged: 0/0
   272 ;; Data sizes:     COMRAM   BANK0   BANK1   BANK2   BANK3   BANK4   BANK5   BANK6   BANK7   BANK8   BANK9  BANK10  BANK1
      +1  BANK12  BANK13  BANK14
   273 ;;      Params:         0       0       0       0       0       0       0       0       0       0       0       0       
      +0       0       0       0
   274 ;;      Locals:         1       0       0       0       0       0       0       0       0       0       0       0       
      +0       0       0       0
   275 ;;      Temps:          0       0       0       0       0       0       0       0       0       0       0       0       
      +0       0       0       0
   276 ;;      Totals:         1       0       0       0       0       0       0       0       0       0       0       0       
      +0       0       0       0
   277 ;;Total ram usage:        1 bytes
   278 ;; Hardware stack levels used:    1
   279 ;; This function calls:
   280 ;;		Nothing
   281 ;; This function is called by:
   282 ;;		_main
   283 ;; This function uses a non-reentrant model
   284 ;;
   285                           
   286                           	psect	text1
   287  000F86                     __ptext1:
   288                           	opt stack 0
   289  000F86                     _spi2_slave_open:
   290                           	opt stack 30
   291                           
   292                           ;incstack = 0
   293                           ;spi2_slave_open@spiUniqueConfiguration stored from wreg
   294  000F86  6E01               	movwf	spi2_slave_open@spiUniqueConfiguration,c
   295                           
   296                           ;spi2_driver.c: 62: if(!SSP2CON1bits.SSPEN)
   297  000F88  010E               	movlb	14	; () banked
   298  000F8A  BB96               	btfsc	150,5,b	;volatile
   299  000F8C  0012               	return	
   300                           
   301                           ; BSR set to: 14
   302                           ;spi2_driver.c: 63: {
   303                           ;spi2_driver.c: 64: SSP2STAT = spi2_configuration[spiUniqueConfiguration].stat;
   304  000F8E  5001               	movf	spi2_slave_open@spiUniqueConfiguration,w,c
   305  000F90  0D03               	mullw	3
   306  000F92  0E01               	movlw	1
   307  000F94  26F3               	addwf	prodl,f,c
   308  000F96  0E00               	movlw	0
   309  000F98  22F4               	addwfc	prodh,f,c
   310  000F9A  0E01               	movlw	low _spi2_configuration
   311  000F9C  24F3               	addwf	prodl,w,c
   312  000F9E  6EF6               	movwf	tblptrl,c
   313  000FA0  0E0F               	movlw	high _spi2_configuration
   314  000FA2  20F4               	addwfc	prodh,w,c
   315  000FA4  6EF7               	movwf	tblptrh,c
   316  000FA6                     	if	0	;There are less than 3 active tblptr bytes
   317  000FA6                     	endif
   318  000FA6  0008               	tblrd		*
   319  000FA8  CFF5 FE95          	movff	tablat,3733	;volatile
   320                           
   321                           ;spi2_driver.c: 65: SSP2CON1 |= spi2_configuration[spiUniqueConfiguration].con1 | 0x25;
   322  000FAC  5001               	movf	spi2_slave_open@spiUniqueConfiguration,w,c
   323  000FAE  0D03               	mullw	3
   324  000FB0  0E01               	movlw	low _spi2_configuration
   325  000FB2  24F3               	addwf	prodl,w,c
   326  000FB4  6EF6               	movwf	tblptrl,c
   327  000FB6  0E0F               	movlw	high _spi2_configuration
   328  000FB8  20F4               	addwfc	prodh,w,c
   329  000FBA  6EF7               	movwf	tblptrh,c
   330  000FBC                     	if	0	;There are less than 3 active tblptr bytes
   331  000FBC                     	endif
   332  000FBC  0008               	tblrd		*
   333  000FBE  50F5               	movf	tablat,w,c
   334  000FC0  0925               	iorlw	37
   335  000FC2  1396               	iorwf	150,f,b	;volatile
   336                           
   337                           ; BSR set to: 14
   338                           ;spi2_driver.c: 66: SSP2CON2 = 0x00;
   339  000FC4  0E00               	movlw	0
   340  000FC6  6F97               	movwf	151,b	;volatile
   341                           
   342                           ; BSR set to: 14
   343                           ;spi2_driver.c: 67: SSP2ADD = spi2_configuration[spiUniqueConfiguration].add | 0;
   344  000FC8  5001               	movf	spi2_slave_open@spiUniqueConfiguration,w,c
   345  000FCA  0D03               	mullw	3
   346  000FCC  0E02               	movlw	2
   347  000FCE  26F3               	addwf	prodl,f,c
   348  000FD0  0E00               	movlw	0
   349  000FD2  22F4               	addwfc	prodh,f,c
   350  000FD4  0E01               	movlw	low _spi2_configuration
   351  000FD6  24F3               	addwf	prodl,w,c
   352  000FD8  6EF6               	movwf	tblptrl,c
   353  000FDA  0E0F               	movlw	high _spi2_configuration
   354  000FDC  20F4               	addwfc	prodh,w,c
   355  000FDE  6EF7               	movwf	tblptrh,c
   356  000FE0                     	if	0	;There are less than 3 active tblptr bytes
   357  000FE0                     	endif
   358  000FE0  0008               	tblrd		*
   359  000FE2  CFF5 FE93          	movff	tablat,3731	;volatile
   360                           
   361                           ; BSR set to: 14
   362                           
   363                           ; BSR set to: 14
   364                           
   365                           ;spi2_driver.c: 69: do { TRISDbits.TRISD1 = 1; } while(0);
   366  000FE6  828B               	bsf	3979,1,c	;volatile
   367                           
   368                           ; BSR set to: 14
   369                           ;spi2_driver.c: 70: return 1;
   370                           ;	Return value of _spi2_slave_open is never used
   371                           
   372                           ; BSR set to: 14
   373  000FE8  0012               	return	
   374  000FEA                     __end_of_spi2_slave_open:
   375                           	opt stack 0
   376                           tblptru	equ	0xFF8
   377                           tblptrh	equ	0xFF7
   378                           tblptrl	equ	0xFF6
   379                           tablat	equ	0xFF5
   380                           prodh	equ	0xFF4
   381                           prodl	equ	0xFF3
   382                           wreg	equ	0xFE8
   383                           
   384 ;; *************** function _spi2_exchangeByte *****************
   385 ;; Defined at:
   386 ;;		line 76 in file "mcc_generated_files/spi2_driver.c"
   387 ;; Parameters:    Size  Location     Type
   388 ;;  b               1    wreg     unsigned char 
   389 ;; Auto vars:     Size  Location     Type
   390 ;;  b               1    0[COMRAM] unsigned char 
   391 ;; Return value:  Size  Location     Type
   392 ;;                  1    wreg      unsigned char 
   393 ;; Registers used:
   394 ;;		wreg, status,2
   395 ;; Tracked objects:
   396 ;;		On entry : 0/0
   397 ;;		On exit  : 0/0
   398 ;;		Unchanged: 0/0
   399 ;; Data sizes:     COMRAM   BANK0   BANK1   BANK2   BANK3   BANK4   BANK5   BANK6   BANK7   BANK8   BANK9  BANK10  BANK1
      +1  BANK12  BANK13  BANK14
   400 ;;      Params:         0       0       0       0       0       0       0       0       0       0       0       0       
      +0       0       0       0
   401 ;;      Locals:         1       0       0       0       0       0       0       0       0       0       0       0       
      +0       0       0       0
   402 ;;      Temps:          0       0       0       0       0       0       0       0       0       0       0       0       
      +0       0       0       0
   403 ;;      Totals:         1       0       0       0       0       0       0       0       0       0       0       0       
      +0       0       0       0
   404 ;;Total ram usage:        1 bytes
   405 ;; Hardware stack levels used:    1
   406 ;; This function calls:
   407 ;;		Nothing
   408 ;; This function is called by:
   409 ;;		_main
   410 ;;		_spi2_exchangeBlock
   411 ;;		_spi2_writeBlock
   412 ;;		_spi2_readBlock
   413 ;; This function uses a non-reentrant model
   414 ;;
   415                           
   416                           	psect	text2
   417  00105C                     __ptext2:
   418                           	opt stack 0
   419  00105C                     _spi2_exchangeByte:
   420                           	opt stack 30
   421                           
   422                           ; BSR set to: 14
   423                           ;incstack = 0
   424                           ;spi2_exchangeByte@b stored from wreg
   425  00105C  6E01               	movwf	spi2_exchangeByte@b,c
   426                           
   427                           ;spi2_driver.c: 78: SSP2BUF = b;
   428  00105E  C001  FE92         	movff	spi2_exchangeByte@b,3730	;volatile
   429  001062  010E               	movlb	14	; () banked
   430  001064  A5CD               	btfss	205,2,b	;volatile
   431  001066  D7FD               	goto	l138
   432                           
   433                           ; BSR set to: 14
   434                           ;spi2_driver.c: 80: PIR3bits.SSP2IF = 0;
   435  001068  95CD               	bcf	205,2,b	;volatile
   436                           
   437                           ;spi2_driver.c: 81: return SSP2BUF;
   438  00106A  5192               	movf	146,w,b	;volatile
   439                           
   440                           ; BSR set to: 14
   441  00106C  0012               	return		;funcret
   442  00106E                     __end_of_spi2_exchangeByte:
   443                           	opt stack 0
   444                           tblptru	equ	0xFF8
   445                           tblptrh	equ	0xFF7
   446                           tblptrl	equ	0xFF6
   447                           tablat	equ	0xFF5
   448                           prodh	equ	0xFF4
   449                           prodl	equ	0xFF3
   450                           wreg	equ	0xFE8
   451                           
   452 ;; *************** function _SYSTEM_Initialize *****************
   453 ;; Defined at:
   454 ;;		line 116 in file "mcc_generated_files/mcc.c"
   455 ;; Parameters:    Size  Location     Type
   456 ;;		None
   457 ;; Auto vars:     Size  Location     Type
   458 ;;		None
   459 ;; Return value:  Size  Location     Type
   460 ;;                  1    wreg      void 
   461 ;; Registers used:
   462 ;;		wreg, status,2, cstack
   463 ;; Tracked objects:
   464 ;;		On entry : 0/0
   465 ;;		On exit  : 0/0
   466 ;;		Unchanged: 0/0
   467 ;; Data sizes:     COMRAM   BANK0   BANK1   BANK2   BANK3   BANK4   BANK5   BANK6   BANK7   BANK8   BANK9  BANK10  BANK1
      +1  BANK12  BANK13  BANK14
   468 ;;      Params:         0       0       0       0       0       0       0       0       0       0       0       0       
      +0       0       0       0
   469 ;;      Locals:         0       0       0       0       0       0       0       0       0       0       0       0       
      +0       0       0       0
   470 ;;      Temps:          0       0       0       0       0       0       0       0       0       0       0       0       
      +0       0       0       0
   471 ;;      Totals:         0       0       0       0       0       0       0       0       0       0       0       0       
      +0       0       0       0
   472 ;;Total ram usage:        0 bytes
   473 ;; Hardware stack levels used:    1
   474 ;; Hardware stack levels required when called:    1
   475 ;; This function calls:
   476 ;;		_OSCILLATOR_Initialize
   477 ;;		_PIN_MANAGER_Initialize
   478 ;;		_PMD_Initialize
   479 ;; This function is called by:
   480 ;;		_main
   481 ;; This function uses a non-reentrant model
   482 ;;
   483                           
   484                           	psect	text3
   485  00107C                     __ptext3:
   486                           	opt stack 0
   487  00107C                     _SYSTEM_Initialize:
   488                           	opt stack 29
   489                           
   490                           ;mcc.c: 118: PMD_Initialize();
   491                           
   492                           ; BSR set to: 14
   493                           ;incstack = 0
   494  00107C  EC14  F008         	call	_PMD_Initialize	;wreg free
   495                           
   496                           ;mcc.c: 119: PIN_MANAGER_Initialize();
   497  001080  EC83  F007         	call	_PIN_MANAGER_Initialize	;wreg free
   498                           
   499                           ;mcc.c: 120: OSCILLATOR_Initialize();
   500  001084  EC22  F008         	call	_OSCILLATOR_Initialize	;wreg free
   501  001088  0012               	return		;funcret
   502  00108A                     __end_of_SYSTEM_Initialize:
   503                           	opt stack 0
   504                           tblptru	equ	0xFF8
   505                           tblptrh	equ	0xFF7
   506                           tblptrl	equ	0xFF6
   507                           tablat	equ	0xFF5
   508                           prodh	equ	0xFF4
   509                           prodl	equ	0xFF3
   510                           wreg	equ	0xFE8
   511                           
   512 ;; *************** function _PMD_Initialize *****************
   513 ;; Defined at:
   514 ;;		line 137 in file "mcc_generated_files/mcc.c"
   515 ;; Parameters:    Size  Location     Type
   516 ;;		None
   517 ;; Auto vars:     Size  Location     Type
   518 ;;		None
   519 ;; Return value:  Size  Location     Type
   520 ;;                  1    wreg      void 
   521 ;; Registers used:
   522 ;;		wreg, status,2
   523 ;; Tracked objects:
   524 ;;		On entry : 0/0
   525 ;;		On exit  : 0/0
   526 ;;		Unchanged: 0/0
   527 ;; Data sizes:     COMRAM   BANK0   BANK1   BANK2   BANK3   BANK4   BANK5   BANK6   BANK7   BANK8   BANK9  BANK10  BANK1
      +1  BANK12  BANK13  BANK14
   528 ;;      Params:         0       0       0       0       0       0       0       0       0       0       0       0       
      +0       0       0       0
   529 ;;      Locals:         0       0       0       0       0       0       0       0       0       0       0       0       
      +0       0       0       0
   530 ;;      Temps:          0       0       0       0       0       0       0       0       0       0       0       0       
      +0       0       0       0
   531 ;;      Totals:         0       0       0       0       0       0       0       0       0       0       0       0       
      +0       0       0       0
   532 ;;Total ram usage:        0 bytes
   533 ;; Hardware stack levels used:    1
   534 ;; This function calls:
   535 ;;		Nothing
   536 ;; This function is called by:
   537 ;;		_SYSTEM_Initialize
   538 ;; This function uses a non-reentrant model
   539 ;;
   540                           
   541                           	psect	text4
   542  001028                     __ptext4:
   543                           	opt stack 0
   544  001028                     _PMD_Initialize:
   545                           	opt stack 29
   546                           
   547                           ;mcc.c: 140: PMD0 = 0x00;
   548                           
   549                           ;incstack = 0
   550  001028  0E00               	movlw	0
   551  00102A  010E               	movlb	14	; () banked
   552  00102C  6FE1               	movwf	225,b	;volatile
   553                           
   554                           ;mcc.c: 142: PMD1 = 0x00;
   555  00102E  0E00               	movlw	0
   556  001030  6FE2               	movwf	226,b	;volatile
   557                           
   558                           ;mcc.c: 144: PMD2 = 0x00;
   559  001032  0E00               	movlw	0
   560  001034  6FE3               	movwf	227,b	;volatile
   561                           
   562                           ;mcc.c: 146: PMD3 = 0x00;
   563  001036  0E00               	movlw	0
   564  001038  6FE4               	movwf	228,b	;volatile
   565                           
   566                           ;mcc.c: 148: PMD4 = 0x00;
   567  00103A  0E00               	movlw	0
   568  00103C  6FE5               	movwf	229,b	;volatile
   569                           
   570                           ;mcc.c: 150: PMD5 = 0x00;
   571  00103E  0E00               	movlw	0
   572  001040  6FE6               	movwf	230,b	;volatile
   573                           
   574                           ; BSR set to: 14
   575  001042  0012               	return		;funcret
   576  001044                     __end_of_PMD_Initialize:
   577                           	opt stack 0
   578                           tblptru	equ	0xFF8
   579                           tblptrh	equ	0xFF7
   580                           tblptrl	equ	0xFF6
   581                           tablat	equ	0xFF5
   582                           prodh	equ	0xFF4
   583                           prodl	equ	0xFF3
   584                           wreg	equ	0xFE8
   585                           
   586 ;; *************** function _PIN_MANAGER_Initialize *****************
   587 ;; Defined at:
   588 ;;		line 52 in file "mcc_generated_files/pin_manager.c"
   589 ;; Parameters:    Size  Location     Type
   590 ;;		None
   591 ;; Auto vars:     Size  Location     Type
   592 ;;		None
   593 ;; Return value:  Size  Location     Type
   594 ;;                  1    wreg      void 
   595 ;; Registers used:
   596 ;;		wreg, status,2
   597 ;; Tracked objects:
   598 ;;		On entry : 0/0
   599 ;;		On exit  : 0/0
   600 ;;		Unchanged: 0/0
   601 ;; Data sizes:     COMRAM   BANK0   BANK1   BANK2   BANK3   BANK4   BANK5   BANK6   BANK7   BANK8   BANK9  BANK10  BANK1
      +1  BANK12  BANK13  BANK14
   602 ;;      Params:         0       0       0       0       0       0       0       0       0       0       0       0       
      +0       0       0       0
   603 ;;      Locals:         0       0       0       0       0       0       0       0       0       0       0       0       
      +0       0       0       0
   604 ;;      Temps:          0       0       0       0       0       0       0       0       0       0       0       0       
      +0       0       0       0
   605 ;;      Totals:         0       0       0       0       0       0       0       0       0       0       0       0       
      +0       0       0       0
   606 ;;Total ram usage:        0 bytes
   607 ;; Hardware stack levels used:    1
   608 ;; This function calls:
   609 ;;		Nothing
   610 ;; This function is called by:
   611 ;;		_SYSTEM_Initialize
   612 ;; This function uses a non-reentrant model
   613 ;;
   614                           
   615                           	psect	text5
   616  000F06                     __ptext5:
   617                           	opt stack 0
   618  000F06                     _PIN_MANAGER_Initialize:
   619                           	opt stack 29
   620                           
   621                           ;pin_manager.c: 57: LATE = 0x00;
   622                           
   623                           ; BSR set to: 14
   624                           ;incstack = 0
   625  000F06  0E00               	movlw	0
   626  000F08  6E87               	movwf	3975,c	;volatile
   627                           
   628                           ;pin_manager.c: 58: LATD = 0x00;
   629  000F0A  0E00               	movlw	0
   630  000F0C  6E86               	movwf	3974,c	;volatile
   631                           
   632                           ;pin_manager.c: 59: LATA = 0x10;
   633  000F0E  0E10               	movlw	16
   634  000F10  6E83               	movwf	3971,c	;volatile
   635                           
   636                           ;pin_manager.c: 60: LATB = 0x00;
   637  000F12  0E00               	movlw	0
   638  000F14  6E84               	movwf	3972,c	;volatile
   639                           
   640                           ;pin_manager.c: 61: LATC = 0x00;
   641  000F16  0E00               	movlw	0
   642  000F18  6E85               	movwf	3973,c	;volatile
   643                           
   644                           ;pin_manager.c: 66: TRISE = 0x07;
   645  000F1A  0E07               	movlw	7
   646  000F1C  6E8C               	movwf	3980,c	;volatile
   647                           
   648                           ;pin_manager.c: 67: TRISA = 0xEF;
   649  000F1E  0EEF               	movlw	239
   650  000F20  6E88               	movwf	3976,c	;volatile
   651                           
   652                           ;pin_manager.c: 68: TRISB = 0xFF;
   653  000F22  6889               	setf	3977,c	;volatile
   654                           
   655                           ;pin_manager.c: 69: TRISC = 0xFF;
   656  000F24  688A               	setf	3978,c	;volatile
   657                           
   658                           ;pin_manager.c: 70: TRISD = 0xF5;
   659  000F26  0EF5               	movlw	245
   660  000F28  6E8B               	movwf	3979,c	;volatile
   661                           
   662                           ;pin_manager.c: 75: ANSELC = 0xBF;
   663  000F2A  0EBF               	movlw	191
   664  000F2C  010F               	movlb	15	; () banked
   665  000F2E  6F21               	movwf	33,b	;volatile
   666                           
   667                           ; BSR set to: 15
   668                           ;pin_manager.c: 76: ANSELB = 0xFF;
   669  000F30  6919               	setf	25,b	;volatile
   670                           
   671                           ;pin_manager.c: 77: ANSELD = 0xF9;
   672  000F32  0EF9               	movlw	249
   673  000F34  6F26               	movwf	38,b	;volatile
   674                           
   675                           ;pin_manager.c: 78: ANSELE = 0x07;
   676  000F36  0E07               	movlw	7
   677  000F38  6F2E               	movwf	46,b	;volatile
   678                           
   679                           ; BSR set to: 15
   680                           ;pin_manager.c: 79: ANSELA = 0xFF;
   681  000F3A  6911               	setf	17,b	;volatile
   682                           
   683                           ;pin_manager.c: 84: WPUD = 0x00;
   684  000F3C  0E00               	movlw	0
   685  000F3E  6F25               	movwf	37,b	;volatile
   686                           
   687                           ;pin_manager.c: 85: WPUE = 0x00;
   688  000F40  0E00               	movlw	0
   689  000F42  6F2D               	movwf	45,b	;volatile
   690                           
   691                           ;pin_manager.c: 86: WPUB = 0x00;
   692  000F44  0E00               	movlw	0
   693  000F46  6F18               	movwf	24,b	;volatile
   694                           
   695                           ;pin_manager.c: 87: WPUA = 0x00;
   696  000F48  0E00               	movlw	0
   697  000F4A  6F10               	movwf	16,b	;volatile
   698                           
   699                           ;pin_manager.c: 88: WPUC = 0x38;
   700  000F4C  0E38               	movlw	56
   701  000F4E  6F20               	movwf	32,b	;volatile
   702                           
   703                           ;pin_manager.c: 93: ODCONE = 0x00;
   704  000F50  0E00               	movlw	0
   705  000F52  6F2C               	movwf	44,b	;volatile
   706                           
   707                           ;pin_manager.c: 94: ODCONA = 0x00;
   708  000F54  0E00               	movlw	0
   709  000F56  6F0F               	movwf	15,b	;volatile
   710                           
   711                           ;pin_manager.c: 95: ODCONB = 0x00;
   712  000F58  0E00               	movlw	0
   713  000F5A  6F17               	movwf	23,b	;volatile
   714                           
   715                           ;pin_manager.c: 96: ODCONC = 0x00;
   716  000F5C  0E00               	movlw	0
   717  000F5E  6F1F               	movwf	31,b	;volatile
   718                           
   719                           ;pin_manager.c: 97: ODCOND = 0x00;
   720  000F60  0E00               	movlw	0
   721  000F62  6F24               	movwf	36,b	;volatile
   722                           
   723                           ; BSR set to: 15
   724                           ;pin_manager.c: 104: SSP2CLKPPSbits.SSPCLKPPS = 0x19;
   725  000F64  010E               	movlb	14	; () banked
   726  000F66  818F               	bsf	143,0,b	;volatile
   727  000F68  938F               	bcf	143,1,b	;volatile
   728  000F6A  958F               	bcf	143,2,b	;volatile
   729  000F6C  878F               	bsf	143,3,b	;volatile
   730  000F6E  898F               	bsf	143,4,b	;volatile
   731                           
   732                           ; BSR set to: 14
   733                           ;pin_manager.c: 105: SSP2DATPPSbits.SSPDATPPS = 0x1A;
   734  000F70  9190               	bcf	144,0,b	;volatile
   735  000F72  8390               	bsf	144,1,b	;volatile
   736  000F74  9590               	bcf	144,2,b	;volatile
   737  000F76  8790               	bsf	144,3,b	;volatile
   738  000F78  8990               	bsf	144,4,b	;volatile
   739                           
   740                           ;pin_manager.c: 106: RD3PPS = 0x12;
   741  000F7A  0E12               	movlw	18
   742  000F7C  010F               	movlb	15	; () banked
   743  000F7E  6F02               	movwf	2,b	;volatile
   744                           
   745                           ;pin_manager.c: 107: RD1PPS = 0x11;
   746  000F80  0E11               	movlw	17
   747  000F82  6F00               	movwf	0,b	;volatile
   748                           
   749                           ; BSR set to: 15
   750  000F84  0012               	return		;funcret
   751  000F86                     __end_of_PIN_MANAGER_Initialize:
   752                           	opt stack 0
   753                           tblptru	equ	0xFF8
   754                           tblptrh	equ	0xFF7
   755                           tblptrl	equ	0xFF6
   756                           tablat	equ	0xFF5
   757                           prodh	equ	0xFF4
   758                           prodl	equ	0xFF3
   759                           wreg	equ	0xFE8
   760                           
   761 ;; *************** function _OSCILLATOR_Initialize *****************
   762 ;; Defined at:
   763 ;;		line 123 in file "mcc_generated_files/mcc.c"
   764 ;; Parameters:    Size  Location     Type
   765 ;;		None
   766 ;; Auto vars:     Size  Location     Type
   767 ;;		None
   768 ;; Return value:  Size  Location     Type
   769 ;;                  1    wreg      void 
   770 ;; Registers used:
   771 ;;		wreg, status,2
   772 ;; Tracked objects:
   773 ;;		On entry : 0/0
   774 ;;		On exit  : 0/0
   775 ;;		Unchanged: 0/0
   776 ;; Data sizes:     COMRAM   BANK0   BANK1   BANK2   BANK3   BANK4   BANK5   BANK6   BANK7   BANK8   BANK9  BANK10  BANK1
      +1  BANK12  BANK13  BANK14
   777 ;;      Params:         0       0       0       0       0       0       0       0       0       0       0       0       
      +0       0       0       0
   778 ;;      Locals:         0       0       0       0       0       0       0       0       0       0       0       0       
      +0       0       0       0
   779 ;;      Temps:          0       0       0       0       0       0       0       0       0       0       0       0       
      +0       0       0       0
   780 ;;      Totals:         0       0       0       0       0       0       0       0       0       0       0       0       
      +0       0       0       0
   781 ;;Total ram usage:        0 bytes
   782 ;; Hardware stack levels used:    1
   783 ;; This function calls:
   784 ;;		Nothing
   785 ;; This function is called by:
   786 ;;		_SYSTEM_Initialize
   787 ;; This function uses a non-reentrant model
   788 ;;
   789                           
   790                           	psect	text6
   791  001044                     __ptext6:
   792                           	opt stack 0
   793  001044                     _OSCILLATOR_Initialize:
   794                           	opt stack 29
   795                           
   796                           ;mcc.c: 126: OSCCON1 = 0x62;
   797                           
   798                           ; BSR set to: 15
   799                           ;incstack = 0
   800  001044  0E62               	movlw	98
   801  001046  010E               	movlb	14	; () banked
   802  001048  6FD8               	movwf	216,b	;volatile
   803                           
   804                           ;mcc.c: 128: OSCCON3 = 0x00;
   805  00104A  0E00               	movlw	0
   806  00104C  6FDA               	movwf	218,b	;volatile
   807                           
   808                           ;mcc.c: 130: OSCEN = 0x00;
   809  00104E  0E00               	movlw	0
   810  001050  6FDC               	movwf	220,b	;volatile
   811                           
   812                           ;mcc.c: 132: OSCFRQ = 0x03;
   813  001052  0E03               	movlw	3
   814  001054  6FDE               	movwf	222,b	;volatile
   815                           
   816                           ;mcc.c: 134: OSCTUNE = 0x20;
   817  001056  0E20               	movlw	32
   818  001058  6FDD               	movwf	221,b	;volatile
   819                           
   820                           ; BSR set to: 14
   821  00105A  0012               	return		;funcret
   822  00105C                     __end_of_OSCILLATOR_Initialize:
   823                           	opt stack 0
   824                           tblptru	equ	0xFF8
   825                           tblptrh	equ	0xFF7
   826                           tblptrl	equ	0xFF6
   827                           tablat	equ	0xFF5
   828                           prodh	equ	0xFF4
   829                           prodl	equ	0xFF3
   830                           wreg	equ	0xFE8
   831                           tblptru	equ	0xFF8
   832                           tblptrh	equ	0xFF7
   833                           tblptrl	equ	0xFF6
   834                           tablat	equ	0xFF5
   835                           prodh	equ	0xFF4
   836                           prodl	equ	0xFF3
   837                           wreg	equ	0xFE8
   838                           
   839                           	psect	rparam
   840  0000                     tblptru	equ	0xFF8
   841                           tblptrh	equ	0xFF7
   842                           tblptrl	equ	0xFF6
   843                           tablat	equ	0xFF5
   844                           prodh	equ	0xFF4
   845                           prodl	equ	0xFF3
   846                           wreg	equ	0xFE8


Data Sizes:
    Strings     0
    Constant    3
    Data        0
    BSS         0
    Persistent  0
    Stack       0

Auto Spaces:
    Space          Size  Autos    Used
    COMRAM           95      3       3
    BANK0           160      0       0
    BANK1           256      0       0
    BANK2           256      0       0
    BANK3           256      0       0
    BANK4           256      0       0
    BANK5           256      0       0
    BANK6           256      0       0
    BANK7           256      0       0
    BANK8           256      0       0
    BANK9           256      0       0
    BANK10          256      0       0
    BANK11          256      0       0
    BANK12          256      0       0
    BANK13          256      0       0
    BANK14          136      0       0

Pointer List with Targets:

    None.

Critical Paths under _main in COMRAM

    _main->_spi2_exchangeByte
    _main->_spi2_slave_open

Critical Paths under _main in BANK0

    None.

Critical Paths under _main in BANK1

    None.

Critical Paths under _main in BANK2

    None.

Critical Paths under _main in BANK3

    None.

Critical Paths under _main in BANK4

    None.

Critical Paths under _main in BANK5

    None.

Critical Paths under _main in BANK6

    None.

Critical Paths under _main in BANK7

    None.

Critical Paths under _main in BANK8

    None.

Critical Paths under _main in BANK9

    None.

Critical Paths under _main in BANK10

    None.

Critical Paths under _main in BANK11

    None.

Critical Paths under _main in BANK12

    None.

Critical Paths under _main in BANK13

    None.

Critical Paths under _main in BANK14

    None.

Call Graph Tables:

 ---------------------------------------------------------------------------------
 (Depth) Function   	        Calls       Base Space   Used Autos Params    Refs
 ---------------------------------------------------------------------------------
 (0) _main                                                 2     2      0      60
                                              1 COMRAM     2     2      0
                  _SYSTEM_Initialize
                  _spi2_exchangeByte
                    _spi2_slave_open
 ---------------------------------------------------------------------------------
 (1) _spi2_slave_open                                      1     1      0      45
                                              0 COMRAM     1     1      0
 ---------------------------------------------------------------------------------
 (1) _spi2_exchangeByte                                    1     1      0      15
                                              0 COMRAM     1     1      0
 ---------------------------------------------------------------------------------
 (1) _SYSTEM_Initialize                                    0     0      0       0
              _OSCILLATOR_Initialize
             _PIN_MANAGER_Initialize
                     _PMD_Initialize
 ---------------------------------------------------------------------------------
 (2) _PMD_Initialize                                       0     0      0       0
 ---------------------------------------------------------------------------------
 (2) _PIN_MANAGER_Initialize                               0     0      0       0
 ---------------------------------------------------------------------------------
 (2) _OSCILLATOR_Initialize                                0     0      0       0
 ---------------------------------------------------------------------------------
 Estimated maximum stack depth 2
 ---------------------------------------------------------------------------------

 Call Graph Graphs:

 _main (ROOT)
   _SYSTEM_Initialize
     _OSCILLATOR_Initialize
     _PIN_MANAGER_Initialize
     _PMD_Initialize
   _spi2_exchangeByte
   _spi2_slave_open

 Address spaces:
Name               Size   Autos  Total    Cost      Usage
BITCOMRAM           5F      0       0       0        0.0%
EEDATA             400      0       0       0        0.0%
NULL                 0      0       0       0        0.0%
CODE                 0      0       0       0        0.0%
COMRAM              5F      3       3       1        3.2%
STACK                0      0       0       2        0.0%
DATA                 0      0       0       3        0.0%
BITBANK0            A0      0       0       4        0.0%
BANK0               A0      0       0       5        0.0%
ABS                  0      0       0       6        0.0%
BITBANK1           100      0       0       7        0.0%
BANK1              100      0       0       8        0.0%
BITBANK2           100      0       0       9        0.0%
BANK2              100      0       0      10        0.0%
BITBANK3           100      0       0      11        0.0%
BANK3              100      0       0      12        0.0%
BITBANK4           100      0       0      13        0.0%
BANK4              100      0       0      14        0.0%
BITBANK5           100      0       0      15        0.0%
BANK5              100      0       0      16        0.0%
BITBANK6           100      0       0      17        0.0%
BANK6              100      0       0      18        0.0%
BITBANK7           100      0       0      19        0.0%
BANK7              100      0       0      20        0.0%
BITBANK8           100      0       0      21        0.0%
BANK8              100      0       0      22        0.0%
BITBANK9           100      0       0      23        0.0%
BANK9              100      0       0      24        0.0%
BITBANK10          100      0       0      25        0.0%
BANK10             100      0       0      26        0.0%
BITBANK11          100      0       0      27        0.0%
BANK11             100      0       0      28        0.0%
BITBANK12          100      0       0      29        0.0%
BANK12             100      0       0      30        0.0%
BITBANK13          100      0       0      31        0.0%
BANK13             100      0       0      32        0.0%
BITBANK14           88      0       0      33        0.0%
BANK14              88      0       0      34        0.0%
BIGRAM             E87      0       0      35        0.0%
BITSFR_2             0      0       0     200        0.0%
SFR_2                0      0       0     200        0.0%
BITSFR_1             0      0       0     200        0.0%
SFR_1                0      0       0     200        0.0%
BITSFR               0      0       0     200        0.0%
SFR                  0      0       0     200        0.0%


Microchip Technology PIC18 Macro Assembler V1.45 build -152302408 
Symbol Table                                                                                   Thu Apr 19 16:42:12 2018

                          __CFG_CP$OFF 000000                                     u87 0FFC  
                                   u97 101C                            __CFG_LVP$ON 000000  
                                  l138 1062                                    l181 1016  
                                  l175 1006                                    l176 0FF6  
                         __CFG_CPD$OFF 000000                __size_of_PMD_Initialize 001C  
                                  wreg 000FE8                           __CFG_ZCD$OFF 000000  
                                 _LATA 000F83                                   _LATB 000F84  
                                 _LATC 000F85                                   _LATD 000F86  
                                 _LATE 000F87                                   _PMD0 000EE1  
                                 _PMD1 000EE2                                   _PMD2 000EE3  
                                 _PMD3 000EE4                                   _PMD4 000EE5  
                                 _PMD5 000EE6                                   _WPUA 000F10  
                                 _WPUB 000F18                                   _WPUC 000F20  
                                 _WPUD 000F25                                   _WPUE 000F2D  
                        __CFG_FCMEN$ON 000000                        _spi2_slave_open 0F86  
                                 _main 0FEA                                   prodh 000FF4  
                                 prodl 000FF3                                   start 0000  
                        __CFG_CSWEN$ON 000000                           ___param_bank 000000  
                        __CFG_SCANE$ON 000000         __size_of_OSCILLATOR_Initialize 0018  
        __end_of_OSCILLATOR_Initialize 105C             __size_of_spi2_exchangeByte 0012  
                                ?_main 0001                          __CFG_WDTE$OFF 000000  
                       __CFG_DEBUG$OFF 000000                                  _OSCEN 000EDC  
                                _TRISA 000F88                                  _TRISB 000F89  
                                _TRISC 000F8A                                  _TRISD 000F8B  
                                _TRISE 000F8C                          __CFG_WRT0$OFF 000000  
                        __CFG_WRT1$OFF 000000                          __CFG_WRT2$OFF 000000  
                        __CFG_WRT3$OFF 000000                          __CFG_WRT4$OFF 000000  
                        __CFG_WRT5$OFF 000000                          __CFG_WRT6$OFF 000000  
                        __CFG_WRT7$OFF 000000                         __CFG_EBTR0$OFF 000000  
                       __CFG_EBTR1$OFF 000000                         __CFG_EBTR2$OFF 000000  
                       __CFG_EBTR3$OFF 000000                         __CFG_EBTR4$OFF 000000  
                       __CFG_EBTR5$OFF 000000                         __CFG_EBTR6$OFF 000000  
                       __CFG_EBTR7$OFF 000000                          __CFG_WRTB$OFF 000000  
                        __CFG_WRTC$OFF 000000                          __CFG_WRTD$OFF 000000  
                       __CFG_EBTRB$OFF 000000                     __CFG_MCLRE$EXTMCLR 000000  
                                tablat 000FF5                        __initialization 106E  
                         __end_of_main 1028                                 ??_main 0002  
                        __activetblptr 000001                __end_of_spi2_slave_open 0FEA  
                               _ANSELA 000F11                                 _ANSELB 000F19  
                               _ANSELC 000F21                                 _ANSELD 000F26  
                               _ANSELE 000F2E                                 _RD1PPS 000F00  
                               _RD3PPS 000F02                                 _ODCONA 000F0F  
                               _ODCONB 000F17                                 _ODCONC 000F1F  
                               _ODCOND 000F24                                 _ODCONE 000F2C  
                       __CFG_WDTCCS$SC 000000                                 _OSCFRQ 000EDE  
                       __CFG_PWRTE$OFF 000000                         __CFG_XINST$OFF 000000  
            __CFG_RSTOSC$HFINTOSC_1MHZ 000000                         __CFG_STVREN$ON 000000  
                   spi2_exchangeByte@b 0001                         _PMD_Initialize 1028  
                         __mediumconst 0000                                 tblptrh 000FF7  
                               tblptrl 000FF6                                 tblptru 000FF8  
                    _SYSTEM_Initialize 107C                             __accesstop 0060  
              __end_of__initialization 106E                     ?_SYSTEM_Initialize 0001  
                        ___rparam_used 000001             __end_of_spi2_configuration 0F04  
                       __pcstackCOMRAM 0001                    ??_SYSTEM_Initialize 0001  
               __end_of_PMD_Initialize 1044  spi2_slave_open@spiUniqueConfiguration 0001  
                     ?_spi2_slave_open 0001              __end_of_SYSTEM_Initialize 108A  
                      __CFG_PPS1WAY$ON 000000                         _SSP2DATPPSbits 000E90  
                      ?_PMD_Initialize 0001                                _OSCCON1 000ED8  
                              _OSCCON3 000EDA                         _SSP2CLKPPSbits 000E8F  
                              _OSCTUNE 000EDD                                _SSP2ADD 000E93  
                              _SSP2BUF 000E92                                __Hparam 0000  
                              __Lparam 0000                           __psmallconst 0F00  
                              __pcinit 106E                                __ramtop 0F00  
                              __ptext0 0FEA                                __ptext1 0F86  
                              __ptext2 105C                                __ptext3 107C  
                              __ptext4 1028                                __ptext5 0F06  
                              __ptext6 1044                  _OSCILLATOR_Initialize 1044  
             ??_PIN_MANAGER_Initialize 0001             __size_of_SYSTEM_Initialize 000E  
                              main@res 0003                   end_of_initialization 106E  
                __CFG_WDTCPS$WDTCPS_31 000000                              _PORTCbits 000F8F  
                            _TRISDbits 000F8B                       __CFG_FEXTOSC$OFF 000000  
               ?_OSCILLATOR_Initialize 0001                     _spi2_configuration 0F01  
                  start_initialization 106E        __size_of_PIN_MANAGER_Initialize 0080  
                     __CFG_LPBOREN$OFF 000000                       ??_PMD_Initialize 0001  
             __size_of_spi2_slave_open 0064                 _PIN_MANAGER_Initialize 0F06  
                          __smallconst 0F00                               _LATAbits 000F83  
                  __CFG_BORV$VBOR_2P45 000000                               _PIR3bits 000ECD  
                             _SSP2CON1 000E96                               _SSP2CON2 000E97  
                             _SSP2STAT 000E95                               __Hrparam 0000  
                             __Lrparam 0000                           __Lsmallconst 0F00  
                   __CFG_BOREN$SBORDIS 000000                      ??_spi2_slave_open 0001  
              ??_OSCILLATOR_Initialize 0001                           _SSP2CON1bits 000E96  
                        __size_of_main 003E                   __CFG_WDTCWS$WDTCWS_7 000000  
                    _spi2_exchangeByte 105C                     ?_spi2_exchangeByte 0001  
                  ??_spi2_exchangeByte 0001                ?_PIN_MANAGER_Initialize 0001  
                    __CFG_CLKOUTEN$OFF 000000              __end_of_spi2_exchangeByte 106E  
       __end_of_PIN_MANAGER_Initialize 0F86  
