ARM GAS  C:\Users\Jacob\AppData\Local\Temp\ccc5Tfai.s 			page 1


   1              		.syntax unified
   2              		.cpu cortex-m0
   3              		.fpu softvfp
   4              		.eabi_attribute 20, 1
   5              		.eabi_attribute 21, 1
   6              		.eabi_attribute 23, 3
   7              		.eabi_attribute 24, 1
   8              		.eabi_attribute 25, 1
   9              		.eabi_attribute 26, 1
  10              		.eabi_attribute 30, 6
  11              		.eabi_attribute 34, 0
  12              		.eabi_attribute 18, 4
  13              		.thumb
  14              		.syntax unified
  15              		.file	"main.c"
  16              		.text
  17              	.Ltext0:
  18              		.cfi_sections	.debug_frame
  19              		.section	.text.main,"ax",%progbits
  20              		.align	2
  21              		.global	main
  22              		.code	16
  23              		.thumb_func
  24              		.type	main, %function
  25              	main:
  26              	.LFB35:
  27              		.file 1 "main.c"
   1:main.c        **** /*******************************************************************************
   2:main.c        **** * File Name: main.c
   3:main.c        **** *
   4:main.c        **** * Version: 1.0
   5:main.c        **** *
   6:main.c        **** * Description:
   7:main.c        **** *  This is the source code for the PSoC 4 BLE lab 2 - Setting up a Connection.
   8:main.c        **** *
   9:main.c        **** * Hardware Dependency:
  10:main.c        **** *  CY8CKIT-042 BLE Pioneer Kit
  11:main.c        **** *
  12:main.c        **** ********************************************************************************
  13:main.c        **** * Copyright 2014, Cypress Semiconductor Corporation.  All rights reserved.
  14:main.c        **** * You may use this file only in accordance with the license, terms, conditions,
  15:main.c        **** * disclaimers, and limitations in the end user license agreement accompanying
  16:main.c        **** * the software package with which this file was provided.
  17:main.c        **** *******************************************************************************/
  18:main.c        **** #include <project.h>
  19:main.c        **** 
  20:main.c        **** /***************************************
  21:main.c        **** *        API Constants
  22:main.c        **** ***************************************/
  23:main.c        **** #define NO_ALERT           (0u)
  24:main.c        **** #define MILD_ALERT         (1u)
  25:main.c        **** #define HIGH_ALERT         (2u)
  26:main.c        **** 
  27:main.c        **** #define NO_ALERT_COMPARE   (0u)
  28:main.c        **** #define MILD_ALERT_COMPARE (250u)
  29:main.c        **** #define HIGH_ALERT_COMPARE (500u)
  30:main.c        **** 
ARM GAS  C:\Users\Jacob\AppData\Local\Temp\ccc5Tfai.s 			page 2


  31:main.c        **** /***************************************
  32:main.c        **** *        Function Prototypes
  33:main.c        **** ***************************************/
  34:main.c        **** void StackEventHandler(uint32 event, void* eventParam);
  35:main.c        **** void IasEventHandler(uint32 event, void* eventParam);
  36:main.c        **** void HandleAlertLEDs(uint8 status);
  37:main.c        **** 
  38:main.c        **** 
  39:main.c        **** /*******************************************************************************
  40:main.c        **** * Function Name: main
  41:main.c        **** ********************************************************************************
  42:main.c        **** *
  43:main.c        **** * Summary:
  44:main.c        **** *  Main function.
  45:main.c        **** *
  46:main.c        **** * Parameters:  
  47:main.c        **** *  None
  48:main.c        **** *
  49:main.c        **** * Return: 
  50:main.c        **** *  None
  51:main.c        **** *
  52:main.c        **** *******************************************************************************/
  53:main.c        **** int main()
  54:main.c        **** {
  28              		.loc 1 54 0
  29              		.cfi_startproc
  30              		@ args = 0, pretend = 0, frame = 0
  31              		@ frame_needed = 1, uses_anonymous_args = 0
  32 0000 80B5     		push	{r7, lr}
  33              		.cfi_def_cfa_offset 8
  34              		.cfi_offset 7, -8
  35              		.cfi_offset 14, -4
  36 0002 00AF     		add	r7, sp, #0
  37              		.cfi_def_cfa_register 7
  55:main.c        ****     CyGlobalIntEnable; 
  38              		.loc 1 55 0
  39              		.syntax divided
  40              	@ 55 "main.c" 1
  41 0004 62B6     		CPSIE   i
  42              	@ 0 "" 2
  56:main.c        **** 
  57:main.c        ****     /* Start the BLE component and register StackEventHandler function */
  58:main.c        ****     CyBle_Start(StackEventHandler);
  43              		.loc 1 58 0
  44              		.thumb
  45              		.syntax unified
  46 0006 064B     		ldr	r3, .L3
  47 0008 1800     		movs	r0, r3
  48 000a FFF7FEFF 		bl	CyBle_Start
  59:main.c        ****     
  60:main.c        ****     /* Start the PWM component */
  61:main.c        ****     PWM_Start();
  49              		.loc 1 61 0
  50 000e FFF7FEFF 		bl	PWM_Start
  62:main.c        **** 
  63:main.c        ****     /* Register IAS event handler function */
  64:main.c        ****     CyBle_IasRegisterAttrCallback(IasEventHandler);
ARM GAS  C:\Users\Jacob\AppData\Local\Temp\ccc5Tfai.s 			page 3


  51              		.loc 1 64 0
  52 0012 044B     		ldr	r3, .L3+4
  53 0014 1800     		movs	r0, r3
  54 0016 FFF7FEFF 		bl	CyBle_IasRegisterAttrCallback
  55              	.L2:
  65:main.c        ****         
  66:main.c        ****     while(1)
  67:main.c        ****     {
  68:main.c        ****         /* Process all the pending BLE tasks. This single API call to 
  69:main.c        ****          * will service all the BLE stack events. This API MUST be called at least once
  70:main.c        ****          * in a BLE connection interval */
  71:main.c        ****         CyBle_ProcessEvents();
  56              		.loc 1 71 0 discriminator 1
  57 001a FFF7FEFF 		bl	CyBle_ProcessEvents
  72:main.c        ****     }
  58              		.loc 1 72 0 discriminator 1
  59 001e FCE7     		b	.L2
  60              	.L4:
  61              		.align	2
  62              	.L3:
  63 0020 00000000 		.word	StackEventHandler
  64 0024 00000000 		.word	IasEventHandler
  65              		.cfi_endproc
  66              	.LFE35:
  67              		.size	main, .-main
  68              		.section	.text.StackEventHandler,"ax",%progbits
  69              		.align	2
  70              		.global	StackEventHandler
  71              		.code	16
  72              		.thumb_func
  73              		.type	StackEventHandler, %function
  74              	StackEventHandler:
  75              	.LFB36:
  73:main.c        **** }
  74:main.c        **** 
  75:main.c        **** /*******************************************************************************
  76:main.c        **** * Function Name: StackEventHandler
  77:main.c        **** ********************************************************************************
  78:main.c        **** *
  79:main.c        **** * Summary:
  80:main.c        **** *  This is an event callback function to receive events from the BLE Component.
  81:main.c        **** *
  82:main.c        **** * Parameters:  
  83:main.c        **** *  uint8 event:       Event from the CYBLE component
  84:main.c        **** *  void* eventParams: A structure instance for corresponding event type. The 
  85:main.c        **** *                     list of event structure is described in the component 
  86:main.c        **** *                     datasheet.
  87:main.c        **** *
  88:main.c        **** * Return: 
  89:main.c        **** *  None
  90:main.c        **** *
  91:main.c        **** *******************************************************************************/
  92:main.c        **** void StackEventHandler(uint32 event, void *eventParam)
  93:main.c        **** {
  76              		.loc 1 93 0
  77              		.cfi_startproc
  78              		@ args = 0, pretend = 0, frame = 8
ARM GAS  C:\Users\Jacob\AppData\Local\Temp\ccc5Tfai.s 			page 4


  79              		@ frame_needed = 1, uses_anonymous_args = 0
  80 0000 80B5     		push	{r7, lr}
  81              		.cfi_def_cfa_offset 8
  82              		.cfi_offset 7, -8
  83              		.cfi_offset 14, -4
  84 0002 82B0     		sub	sp, sp, #8
  85              		.cfi_def_cfa_offset 16
  86 0004 00AF     		add	r7, sp, #0
  87              		.cfi_def_cfa_register 7
  88 0006 7860     		str	r0, [r7, #4]
  89 0008 3960     		str	r1, [r7]
  94:main.c        ****     switch(event)
  90              		.loc 1 94 0
  91 000a 7B68     		ldr	r3, [r7, #4]
  92 000c 012B     		cmp	r3, #1
  93 000e 02D0     		beq	.L7
  94 0010 282B     		cmp	r3, #40
  95 0012 00D0     		beq	.L7
  95:main.c        ****     {
  96:main.c        ****         /* Mandatory events to be handled by Find Me Target design */
  97:main.c        ****         case CYBLE_EVT_STACK_ON:
  98:main.c        ****         case CYBLE_EVT_GAP_DEVICE_DISCONNECTED:
  99:main.c        ****             /* Start the BLE fast advertisement. */
 100:main.c        ****             CyBle_GappStartAdvertisement(CYBLE_ADVERTISING_FAST);
 101:main.c        ****             break;
 102:main.c        ****         
 103:main.c        ****         default:
 104:main.c        ****     	    break;
  96              		.loc 1 104 0
  97 0014 03E0     		b	.L8
  98              	.L7:
 100:main.c        ****             break;
  99              		.loc 1 100 0
 100 0016 0020     		movs	r0, #0
 101 0018 FFF7FEFF 		bl	CyBle_GappStartAdvertisement
 101:main.c        ****         
 102              		.loc 1 101 0
 103 001c C046     		nop
 104              	.L8:
 105:main.c        ****     }
 106:main.c        **** }
 105              		.loc 1 106 0
 106 001e C046     		nop
 107 0020 BD46     		mov	sp, r7
 108 0022 02B0     		add	sp, sp, #8
 109              		@ sp needed
 110 0024 80BD     		pop	{r7, pc}
 111              		.cfi_endproc
 112              	.LFE36:
 113              		.size	StackEventHandler, .-StackEventHandler
 114 0026 C046     		.section	.text.IasEventHandler,"ax",%progbits
 115              		.align	2
 116              		.global	IasEventHandler
 117              		.code	16
 118              		.thumb_func
 119              		.type	IasEventHandler, %function
 120              	IasEventHandler:
ARM GAS  C:\Users\Jacob\AppData\Local\Temp\ccc5Tfai.s 			page 5


 121              	.LFB37:
 107:main.c        **** 
 108:main.c        **** /*******************************************************************************
 109:main.c        **** * Function Name: IasEventHandler
 110:main.c        **** ********************************************************************************
 111:main.c        **** *
 112:main.c        **** * Summary:
 113:main.c        **** *  This is an event callback function to receive events from the BLE Component,
 114:main.c        **** *  which are specific to Immediate Alert Service.
 115:main.c        **** *
 116:main.c        **** * Parameters:  
 117:main.c        **** *  uint8 event:       Write Command event from the CYBLE component.
 118:main.c        **** *  void* eventParams: A structure instance of CYBLE_GATT_HANDLE_VALUE_PAIR_T
 119:main.c        **** *                     type.
 120:main.c        **** *
 121:main.c        **** * Return: 
 122:main.c        **** *  None
 123:main.c        **** *
 124:main.c        **** *******************************************************************************/
 125:main.c        **** void IasEventHandler(uint32 event, void *eventParam)
 126:main.c        **** {
 122              		.loc 1 126 0
 123              		.cfi_startproc
 124              		@ args = 0, pretend = 0, frame = 16
 125              		@ frame_needed = 1, uses_anonymous_args = 0
 126 0000 80B5     		push	{r7, lr}
 127              		.cfi_def_cfa_offset 8
 128              		.cfi_offset 7, -8
 129              		.cfi_offset 14, -4
 130 0002 84B0     		sub	sp, sp, #16
 131              		.cfi_def_cfa_offset 24
 132 0004 00AF     		add	r7, sp, #0
 133              		.cfi_def_cfa_register 7
 134 0006 7860     		str	r0, [r7, #4]
 135 0008 3960     		str	r1, [r7]
 127:main.c        ****     uint8 alertLevel;
 128:main.c        ****     
 129:main.c        ****     /* Alert Level Characteristic write event */
 130:main.c        ****     if(event == CYBLE_EVT_IASS_WRITE_CHAR_CMD)
 136              		.loc 1 130 0
 137 000a 7A68     		ldr	r2, [r7, #4]
 138 000c DE23     		movs	r3, #222
 139 000e 5B00     		lsls	r3, r3, #1
 140 0010 9A42     		cmp	r2, r3
 141 0012 0CD1     		bne	.L11
 131:main.c        ****     {
 132:main.c        ****         /* Extract Alert Level value from the GATT DB using the 
 133:main.c        **** 		 * CYBLE_IAS_ALERT_LEVEL as a parameter to CyBle_IassGetCharacteristicValue
 134:main.c        **** 		 * routine. Store the Alert Level Characteristic value in "alertLevel"
 135:main.c        **** 		 * variable */
 136:main.c        ****         CyBle_IassGetCharacteristicValue(CYBLE_IAS_ALERT_LEVEL, sizeof(alertLevel), &alertLevel);
 142              		.loc 1 136 0
 143 0014 0F23     		movs	r3, #15
 144 0016 FB18     		adds	r3, r7, r3
 145 0018 1A00     		movs	r2, r3
 146 001a 0121     		movs	r1, #1
 147 001c 0020     		movs	r0, #0
ARM GAS  C:\Users\Jacob\AppData\Local\Temp\ccc5Tfai.s 			page 6


 148 001e FFF7FEFF 		bl	CyBle_IassGetCharacteristicValue
 137:main.c        ****         
 138:main.c        ****         /*Based on alert Level level recieved, Drive LED*/
 139:main.c        ****         HandleAlertLEDs(alertLevel);
 149              		.loc 1 139 0
 150 0022 0F23     		movs	r3, #15
 151 0024 FB18     		adds	r3, r7, r3
 152 0026 1B78     		ldrb	r3, [r3]
 153 0028 1800     		movs	r0, r3
 154 002a FFF7FEFF 		bl	HandleAlertLEDs
 155              	.L11:
 140:main.c        ****     }
 141:main.c        **** }
 156              		.loc 1 141 0
 157 002e C046     		nop
 158 0030 BD46     		mov	sp, r7
 159 0032 04B0     		add	sp, sp, #16
 160              		@ sp needed
 161 0034 80BD     		pop	{r7, pc}
 162              		.cfi_endproc
 163              	.LFE37:
 164              		.size	IasEventHandler, .-IasEventHandler
 165 0036 C046     		.section	.text.HandleAlertLEDs,"ax",%progbits
 166              		.align	2
 167              		.global	HandleAlertLEDs
 168              		.code	16
 169              		.thumb_func
 170              		.type	HandleAlertLEDs, %function
 171              	HandleAlertLEDs:
 172              	.LFB38:
 142:main.c        **** 
 143:main.c        **** /*******************************************************************************
 144:main.c        **** * Function Name: HandleAlertLEDs
 145:main.c        **** ********************************************************************************
 146:main.c        **** *
 147:main.c        **** * Summary:
 148:main.c        **** *  This function drives the LED based on the alert level
 149:main.c        **** *
 150:main.c        **** * Parameters:  
 151:main.c        **** *  uint8 status:      Alert level 
 152:main.c        **** *
 153:main.c        **** * Return: 
 154:main.c        **** *  None
 155:main.c        **** *
 156:main.c        **** *******************************************************************************/
 157:main.c        **** void HandleAlertLEDs(uint8 status)
 158:main.c        **** {
 173              		.loc 1 158 0
 174              		.cfi_startproc
 175              		@ args = 0, pretend = 0, frame = 8
 176              		@ frame_needed = 1, uses_anonymous_args = 0
 177 0000 80B5     		push	{r7, lr}
 178              		.cfi_def_cfa_offset 8
 179              		.cfi_offset 7, -8
 180              		.cfi_offset 14, -4
 181 0002 82B0     		sub	sp, sp, #8
 182              		.cfi_def_cfa_offset 16
ARM GAS  C:\Users\Jacob\AppData\Local\Temp\ccc5Tfai.s 			page 7


 183 0004 00AF     		add	r7, sp, #0
 184              		.cfi_def_cfa_register 7
 185 0006 0200     		movs	r2, r0
 186 0008 FB1D     		adds	r3, r7, #7
 187 000a 1A70     		strb	r2, [r3]
 159:main.c        ****     /* Update Alert LED status based on IAS Alert level characteristic. */
 160:main.c        ****     switch(status)
 188              		.loc 1 160 0
 189 000c FB1D     		adds	r3, r7, #7
 190 000e 1B78     		ldrb	r3, [r3]
 191 0010 012B     		cmp	r3, #1
 192 0012 08D0     		beq	.L14
 193 0014 022B     		cmp	r3, #2
 194 0016 0AD0     		beq	.L15
 195 0018 002B     		cmp	r3, #0
 196 001a 00D0     		beq	.L16
 161:main.c        ****     {
 162:main.c        ****         case NO_ALERT:
 163:main.c        ****             PWM_WriteCompare(NO_ALERT_COMPARE);
 164:main.c        ****             break;
 165:main.c        **** 
 166:main.c        ****         case MILD_ALERT:
 167:main.c        ****             PWM_WriteCompare(MILD_ALERT_COMPARE);
 168:main.c        ****             break;
 169:main.c        ****             
 170:main.c        ****         case HIGH_ALERT:
 171:main.c        ****             PWM_WriteCompare(HIGH_ALERT_COMPARE);
 172:main.c        ****             break;                
 173:main.c        ****     }
 174:main.c        **** }
 197              		.loc 1 174 0
 198 001c 0DE0     		b	.L17
 199              	.L16:
 163:main.c        ****             break;
 200              		.loc 1 163 0
 201 001e 0020     		movs	r0, #0
 202 0020 FFF7FEFF 		bl	PWM_WriteCompare
 164:main.c        **** 
 203              		.loc 1 164 0
 204 0024 09E0     		b	.L13
 205              	.L14:
 167:main.c        ****             break;
 206              		.loc 1 167 0
 207 0026 FA20     		movs	r0, #250
 208 0028 FFF7FEFF 		bl	PWM_WriteCompare
 168:main.c        ****             
 209              		.loc 1 168 0
 210 002c 05E0     		b	.L13
 211              	.L15:
 171:main.c        ****             break;                
 212              		.loc 1 171 0
 213 002e FA23     		movs	r3, #250
 214 0030 5B00     		lsls	r3, r3, #1
 215 0032 1800     		movs	r0, r3
 216 0034 FFF7FEFF 		bl	PWM_WriteCompare
 172:main.c        ****     }
 217              		.loc 1 172 0
ARM GAS  C:\Users\Jacob\AppData\Local\Temp\ccc5Tfai.s 			page 8


 218 0038 C046     		nop
 219              	.L13:
 220              	.L17:
 221              		.loc 1 174 0
 222 003a C046     		nop
 223 003c BD46     		mov	sp, r7
 224 003e 02B0     		add	sp, sp, #8
 225              		@ sp needed
 226 0040 80BD     		pop	{r7, pc}
 227              		.cfi_endproc
 228              	.LFE38:
 229              		.size	HandleAlertLEDs, .-HandleAlertLEDs
 230 0042 C046     		.text
 231              	.Letext0:
 232              		.file 2 "Generated_Source\\PSoC4/cytypes.h"
 233              		.file 3 "Generated_Source\\PSoC4/BLE_Stack.h"
 234              		.file 4 "Generated_Source\\PSoC4/BLE_ias.h"
 235              		.file 5 "Generated_Source\\PSoC4/BLE_eventHandler.h"