ARM GAS  C:\Users\Jacob\AppData\Local\Temp\cc0s3k17.s 			page 1


   1              		.syntax unified
   2              		.cpu cortex-m0
   3              		.fpu softvfp
   4              		.eabi_attribute 20, 1
   5              		.eabi_attribute 21, 1
   6              		.eabi_attribute 23, 3
   7              		.eabi_attribute 24, 1
   8              		.eabi_attribute 25, 1
   9              		.eabi_attribute 26, 1
  10              		.eabi_attribute 30, 6
  11              		.eabi_attribute 34, 0
  12              		.eabi_attribute 18, 4
  13              		.thumb
  14              		.syntax unified
  15              		.file	"adc.c"
  16              		.text
  17              	.Ltext0:
  18              		.cfi_sections	.debug_frame
  19              		.global	adc_initVar
  20              		.bss
  21              		.type	adc_initVar, %object
  22              		.size	adc_initVar, 1
  23              	adc_initVar:
  24 0000 00       		.space	1
  25              		.comm	adc_offset,4,4
  26              		.comm	adc_countsPer10Volt,8,4
  27              		.section	.rodata
  28              		.align	2
  29              		.type	adc_channelsConfig, %object
  30              		.size	adc_channelsConfig, 8
  31              	adc_channelsConfig:
  32 0000 00000000 		.space	8
  32      00000000 
  33              		.section	.text.adc_Start,"ax",%progbits
  34              		.align	2
  35              		.global	adc_Start
  36              		.code	16
  37              		.thumb_func
  38              		.type	adc_Start, %function
  39              	adc_Start:
  40              	.LFB2:
  41              		.file 1 "Generated_Source\\PSoC4\\adc.c"
   1:Generated_Source\PSoC4/adc.c **** /*******************************************************************************
   2:Generated_Source\PSoC4/adc.c **** * File Name: adc.c
   3:Generated_Source\PSoC4/adc.c **** * Version 2.50
   4:Generated_Source\PSoC4/adc.c **** *
   5:Generated_Source\PSoC4/adc.c **** * Description:
   6:Generated_Source\PSoC4/adc.c **** *  This file provides the source code to the API for the Sequencing Successive
   7:Generated_Source\PSoC4/adc.c **** *  Approximation ADC Component Component.
   8:Generated_Source\PSoC4/adc.c **** *
   9:Generated_Source\PSoC4/adc.c **** * Note:
  10:Generated_Source\PSoC4/adc.c **** *
  11:Generated_Source\PSoC4/adc.c **** ********************************************************************************
  12:Generated_Source\PSoC4/adc.c **** * Copyright 2008-2017, Cypress Semiconductor Corporation.  All rights reserved.
  13:Generated_Source\PSoC4/adc.c **** * You may use this file only in accordance with the license, terms, conditions,
  14:Generated_Source\PSoC4/adc.c **** * disclaimers, and limitations in the end user license agreement accompanying
  15:Generated_Source\PSoC4/adc.c **** * the software package with which this file was provided.
ARM GAS  C:\Users\Jacob\AppData\Local\Temp\cc0s3k17.s 			page 2


  16:Generated_Source\PSoC4/adc.c **** *******************************************************************************/
  17:Generated_Source\PSoC4/adc.c **** 
  18:Generated_Source\PSoC4/adc.c **** #include "adc.h"
  19:Generated_Source\PSoC4/adc.c **** 
  20:Generated_Source\PSoC4/adc.c **** 
  21:Generated_Source\PSoC4/adc.c **** /***************************************
  22:Generated_Source\PSoC4/adc.c **** * Global data allocation
  23:Generated_Source\PSoC4/adc.c **** ***************************************/
  24:Generated_Source\PSoC4/adc.c **** uint8 adc_initVar = 0u;
  25:Generated_Source\PSoC4/adc.c **** volatile int16 adc_offset[adc_TOTAL_CHANNELS_NUM];
  26:Generated_Source\PSoC4/adc.c **** volatile int32 adc_countsPer10Volt[adc_TOTAL_CHANNELS_NUM];   /* Gain compensation */
  27:Generated_Source\PSoC4/adc.c **** 
  28:Generated_Source\PSoC4/adc.c **** 
  29:Generated_Source\PSoC4/adc.c **** /***************************************
  30:Generated_Source\PSoC4/adc.c **** * Local data allocation
  31:Generated_Source\PSoC4/adc.c **** ***************************************/
  32:Generated_Source\PSoC4/adc.c **** /* Channels configuration generated by customiser */
  33:Generated_Source\PSoC4/adc.c **** static const uint32 CYCODE adc_channelsConfig[] = { 0x00000000u, 0x00000000u };
  34:Generated_Source\PSoC4/adc.c **** 
  35:Generated_Source\PSoC4/adc.c **** 
  36:Generated_Source\PSoC4/adc.c **** /*******************************************************************************
  37:Generated_Source\PSoC4/adc.c **** * Function Name: adc_Start
  38:Generated_Source\PSoC4/adc.c **** ********************************************************************************
  39:Generated_Source\PSoC4/adc.c **** *
  40:Generated_Source\PSoC4/adc.c **** * Summary:
  41:Generated_Source\PSoC4/adc.c **** *  Performs all required initialization for this component
  42:Generated_Source\PSoC4/adc.c **** *  and enables the power. The power will be set to the appropriate
  43:Generated_Source\PSoC4/adc.c **** *  power based on the clock frequency.
  44:Generated_Source\PSoC4/adc.c **** *
  45:Generated_Source\PSoC4/adc.c **** * Parameters:
  46:Generated_Source\PSoC4/adc.c **** *  None.
  47:Generated_Source\PSoC4/adc.c **** *
  48:Generated_Source\PSoC4/adc.c **** * Return:
  49:Generated_Source\PSoC4/adc.c **** *  None.
  50:Generated_Source\PSoC4/adc.c **** *
  51:Generated_Source\PSoC4/adc.c **** * Global variables:
  52:Generated_Source\PSoC4/adc.c **** *  The adc_initVar variable is used to indicate when/if initial
  53:Generated_Source\PSoC4/adc.c **** *  configuration of this component has happened. The variable is initialized to
  54:Generated_Source\PSoC4/adc.c **** *  zero and set to 1 the first time ADC_Start() is called. This allows for
  55:Generated_Source\PSoC4/adc.c **** *  component Re-Start without re-initialization in all subsequent calls to the
  56:Generated_Source\PSoC4/adc.c **** *  adc_Start() routine.
  57:Generated_Source\PSoC4/adc.c **** *  If re-initialization of the component is required the variable should be set
  58:Generated_Source\PSoC4/adc.c **** *  to zero before call of adc_Start() routine, or the user may call
  59:Generated_Source\PSoC4/adc.c **** *  adc_Init() and adc_Enable() as done in the
  60:Generated_Source\PSoC4/adc.c **** *  adc_Start() routine.
  61:Generated_Source\PSoC4/adc.c **** *
  62:Generated_Source\PSoC4/adc.c **** *******************************************************************************/
  63:Generated_Source\PSoC4/adc.c **** void adc_Start(void)
  64:Generated_Source\PSoC4/adc.c **** {
  42              		.loc 1 64 0
  43              		.cfi_startproc
  44              		@ args = 0, pretend = 0, frame = 0
  45              		@ frame_needed = 1, uses_anonymous_args = 0
  46 0000 80B5     		push	{r7, lr}
  47              		.cfi_def_cfa_offset 8
  48              		.cfi_offset 7, -8
  49              		.cfi_offset 14, -4
ARM GAS  C:\Users\Jacob\AppData\Local\Temp\cc0s3k17.s 			page 3


  50 0002 00AF     		add	r7, sp, #0
  51              		.cfi_def_cfa_register 7
  65:Generated_Source\PSoC4/adc.c ****     /* If not Initialized then initialize all required hardware and software */
  66:Generated_Source\PSoC4/adc.c ****     if(adc_initVar == 0u)
  52              		.loc 1 66 0
  53 0004 064B     		ldr	r3, .L3
  54 0006 1B78     		ldrb	r3, [r3]
  55 0008 002B     		cmp	r3, #0
  56 000a 04D1     		bne	.L2
  67:Generated_Source\PSoC4/adc.c ****     {
  68:Generated_Source\PSoC4/adc.c ****         adc_Init();
  57              		.loc 1 68 0
  58 000c FFF7FEFF 		bl	adc_Init
  69:Generated_Source\PSoC4/adc.c ****         adc_initVar = 1u;
  59              		.loc 1 69 0
  60 0010 034B     		ldr	r3, .L3
  61 0012 0122     		movs	r2, #1
  62 0014 1A70     		strb	r2, [r3]
  63              	.L2:
  70:Generated_Source\PSoC4/adc.c ****     }
  71:Generated_Source\PSoC4/adc.c ****     adc_Enable();
  64              		.loc 1 71 0
  65 0016 FFF7FEFF 		bl	adc_Enable
  72:Generated_Source\PSoC4/adc.c **** }
  66              		.loc 1 72 0
  67 001a C046     		nop
  68 001c BD46     		mov	sp, r7
  69              		@ sp needed
  70 001e 80BD     		pop	{r7, pc}
  71              	.L4:
  72              		.align	2
  73              	.L3:
  74 0020 00000000 		.word	adc_initVar
  75              		.cfi_endproc
  76              	.LFE2:
  77              		.size	adc_Start, .-adc_Start
  78              		.global	__aeabi_idiv
  79              		.section	.text.adc_Init,"ax",%progbits
  80              		.align	2
  81              		.global	adc_Init
  82              		.code	16
  83              		.thumb_func
  84              		.type	adc_Init, %function
  85              	adc_Init:
  86              	.LFB3:
  73:Generated_Source\PSoC4/adc.c **** 
  74:Generated_Source\PSoC4/adc.c **** 
  75:Generated_Source\PSoC4/adc.c **** /*******************************************************************************
  76:Generated_Source\PSoC4/adc.c **** * Function Name: adc_Init
  77:Generated_Source\PSoC4/adc.c **** ********************************************************************************
  78:Generated_Source\PSoC4/adc.c **** *
  79:Generated_Source\PSoC4/adc.c **** * Summary:
  80:Generated_Source\PSoC4/adc.c **** *  Initialize component's parameters to the parameters set by user in the
  81:Generated_Source\PSoC4/adc.c **** *  customizer of the component placed onto schematic. Usually called in
  82:Generated_Source\PSoC4/adc.c **** *  adc_Start().
  83:Generated_Source\PSoC4/adc.c **** *
  84:Generated_Source\PSoC4/adc.c **** * Parameters:
ARM GAS  C:\Users\Jacob\AppData\Local\Temp\cc0s3k17.s 			page 4


  85:Generated_Source\PSoC4/adc.c **** *  None.
  86:Generated_Source\PSoC4/adc.c **** *
  87:Generated_Source\PSoC4/adc.c **** * Return:
  88:Generated_Source\PSoC4/adc.c **** *  None.
  89:Generated_Source\PSoC4/adc.c **** *
  90:Generated_Source\PSoC4/adc.c **** * Global variables:
  91:Generated_Source\PSoC4/adc.c **** *  The adc_offset variable is initialized.
  92:Generated_Source\PSoC4/adc.c **** *
  93:Generated_Source\PSoC4/adc.c **** *******************************************************************************/
  94:Generated_Source\PSoC4/adc.c **** void adc_Init(void)
  95:Generated_Source\PSoC4/adc.c **** {
  87              		.loc 1 95 0
  88              		.cfi_startproc
  89              		@ args = 0, pretend = 0, frame = 16
  90              		@ frame_needed = 1, uses_anonymous_args = 0
  91 0000 80B5     		push	{r7, lr}
  92              		.cfi_def_cfa_offset 8
  93              		.cfi_offset 7, -8
  94              		.cfi_offset 14, -4
  95 0002 84B0     		sub	sp, sp, #16
  96              		.cfi_def_cfa_offset 24
  97 0004 00AF     		add	r7, sp, #0
  98              		.cfi_def_cfa_register 7
  96:Generated_Source\PSoC4/adc.c ****     uint32 chNum;
  97:Generated_Source\PSoC4/adc.c ****     uint32 tmpRegVal;
  98:Generated_Source\PSoC4/adc.c ****     int32 counts;
  99:Generated_Source\PSoC4/adc.c **** 
 100:Generated_Source\PSoC4/adc.c ****     #if(adc_TOTAL_CHANNELS_NUM > 1u)
 101:Generated_Source\PSoC4/adc.c ****         static const uint8 CYCODE adc_InputsPlacement[] =
 102:Generated_Source\PSoC4/adc.c ****         {
 103:Generated_Source\PSoC4/adc.c ****             (uint8)(adc_cy_psoc4_sarmux_8__CH_0_PORT << 4u) |
 104:Generated_Source\PSoC4/adc.c ****             (uint8)adc_cy_psoc4_sarmux_8__CH_0_PIN
 105:Generated_Source\PSoC4/adc.c ****             ,(uint8)(adc_cy_psoc4_sarmux_8__CH_1_PORT << 4u) |
 106:Generated_Source\PSoC4/adc.c ****              (uint8)adc_cy_psoc4_sarmux_8__CH_1_PIN
 107:Generated_Source\PSoC4/adc.c ****             #if(adc_TOTAL_CHANNELS_NUM > 2u)
 108:Generated_Source\PSoC4/adc.c ****                 ,(uint8)(adc_cy_psoc4_sarmux_8__CH_2_PORT << 4u) |
 109:Generated_Source\PSoC4/adc.c ****                  (uint8)adc_cy_psoc4_sarmux_8__CH_2_PIN
 110:Generated_Source\PSoC4/adc.c ****             #endif /* End adc_TOTAL_CHANNELS_NUM > 2u */
 111:Generated_Source\PSoC4/adc.c ****             #if(adc_TOTAL_CHANNELS_NUM > 3u)
 112:Generated_Source\PSoC4/adc.c ****                 ,(uint8)(adc_cy_psoc4_sarmux_8__CH_3_PORT << 4u) |
 113:Generated_Source\PSoC4/adc.c ****                  (uint8)adc_cy_psoc4_sarmux_8__CH_3_PIN
 114:Generated_Source\PSoC4/adc.c ****             #endif /* End adc_TOTAL_CHANNELS_NUM > 3u */
 115:Generated_Source\PSoC4/adc.c ****             #if(adc_TOTAL_CHANNELS_NUM > 4u)
 116:Generated_Source\PSoC4/adc.c ****                 ,(uint8)(adc_cy_psoc4_sarmux_8__CH_4_PORT << 4u) |
 117:Generated_Source\PSoC4/adc.c ****                  (uint8)adc_cy_psoc4_sarmux_8__CH_4_PIN
 118:Generated_Source\PSoC4/adc.c ****             #endif /* End adc_TOTAL_CHANNELS_NUM > 4u */
 119:Generated_Source\PSoC4/adc.c ****             #if(adc_TOTAL_CHANNELS_NUM > 5u)
 120:Generated_Source\PSoC4/adc.c ****                 ,(uint8)(adc_cy_psoc4_sarmux_8__CH_5_PORT << 4u) |
 121:Generated_Source\PSoC4/adc.c ****                  (uint8)adc_cy_psoc4_sarmux_8__CH_5_PIN
 122:Generated_Source\PSoC4/adc.c ****             #endif /* End adc_TOTAL_CHANNELS_NUM > 5u */
 123:Generated_Source\PSoC4/adc.c ****             #if(adc_TOTAL_CHANNELS_NUM > 6u)
 124:Generated_Source\PSoC4/adc.c ****                 ,(uint8)(adc_cy_psoc4_sarmux_8__CH_6_PORT << 4u) |
 125:Generated_Source\PSoC4/adc.c ****                  (uint8)adc_cy_psoc4_sarmux_8__CH_6_PIN
 126:Generated_Source\PSoC4/adc.c ****             #endif /* End adc_TOTAL_CHANNELS_NUM > 6u */
 127:Generated_Source\PSoC4/adc.c ****             #if(adc_TOTAL_CHANNELS_NUM > 7u)
 128:Generated_Source\PSoC4/adc.c ****                 ,(uint8)(adc_cy_psoc4_sarmux_8__CH_7_PORT << 4u) |
 129:Generated_Source\PSoC4/adc.c ****                  (uint8)adc_cy_psoc4_sarmux_8__CH_7_PIN
ARM GAS  C:\Users\Jacob\AppData\Local\Temp\cc0s3k17.s 			page 5


 130:Generated_Source\PSoC4/adc.c ****             #endif /* End adc_TOTAL_CHANNELS_NUM > 7u */
 131:Generated_Source\PSoC4/adc.c ****             #if(adc_TOTAL_CHANNELS_NUM > 8u)
 132:Generated_Source\PSoC4/adc.c ****                 ,(uint8)(adc_cy_psoc4_sarmux_8__CH_8_PORT << 4u) |
 133:Generated_Source\PSoC4/adc.c ****                  (uint8)adc_cy_psoc4_sarmux_8__CH_8_PIN
 134:Generated_Source\PSoC4/adc.c ****             #endif /* End adc_TOTAL_CHANNELS_NUM > 8u */
 135:Generated_Source\PSoC4/adc.c ****             #if(adc_TOTAL_CHANNELS_NUM > 9u)
 136:Generated_Source\PSoC4/adc.c ****                 ,(uint8)(adc_cy_psoc4_sarmux_8__CH_9_PORT << 4u) |
 137:Generated_Source\PSoC4/adc.c ****                  (uint8)adc_cy_psoc4_sarmux_8__CH_9_PIN
 138:Generated_Source\PSoC4/adc.c ****             #endif /* End adc_TOTAL_CHANNELS_NUM > 9u */
 139:Generated_Source\PSoC4/adc.c ****             #if(adc_TOTAL_CHANNELS_NUM > 10u)
 140:Generated_Source\PSoC4/adc.c ****                 ,(uint8)(adc_cy_psoc4_sarmux_8__CH_10_PORT << 4u) |
 141:Generated_Source\PSoC4/adc.c ****                  (uint8)adc_cy_psoc4_sarmux_8__CH_10_PIN
 142:Generated_Source\PSoC4/adc.c ****             #endif /* End adc_TOTAL_CHANNELS_NUM > 10u */
 143:Generated_Source\PSoC4/adc.c ****             #if(adc_TOTAL_CHANNELS_NUM > 11u)
 144:Generated_Source\PSoC4/adc.c ****                 ,(uint8)(adc_cy_psoc4_sarmux_8__CH_11_PORT << 4u) |
 145:Generated_Source\PSoC4/adc.c ****                  (uint8)adc_cy_psoc4_sarmux_8__CH_11_PIN
 146:Generated_Source\PSoC4/adc.c ****             #endif /* End adc_TOTAL_CHANNELS_NUM > 11u */
 147:Generated_Source\PSoC4/adc.c ****             #if(adc_TOTAL_CHANNELS_NUM > 12u)
 148:Generated_Source\PSoC4/adc.c ****                 ,(uint8)(adc_cy_psoc4_sarmux_8__CH_12_PORT << 4u) |
 149:Generated_Source\PSoC4/adc.c ****                  (uint8)adc_cy_psoc4_sarmux_8__CH_12_PIN
 150:Generated_Source\PSoC4/adc.c ****             #endif /* End adc_TOTAL_CHANNELS_NUM > 12u */
 151:Generated_Source\PSoC4/adc.c ****             #if(adc_TOTAL_CHANNELS_NUM > 13u)
 152:Generated_Source\PSoC4/adc.c ****                 ,(uint8)(adc_cy_psoc4_sarmux_8__CH_13_PORT << 4u) |
 153:Generated_Source\PSoC4/adc.c ****                  (uint8)adc_cy_psoc4_sarmux_8__CH_13_PIN
 154:Generated_Source\PSoC4/adc.c ****             #endif /* End adc_TOTAL_CHANNELS_NUM > 13u */
 155:Generated_Source\PSoC4/adc.c ****             #if(adc_TOTAL_CHANNELS_NUM > 14u)
 156:Generated_Source\PSoC4/adc.c ****                 ,(uint8)(adc_cy_psoc4_sarmux_8__CH_14_PORT << 4u) |
 157:Generated_Source\PSoC4/adc.c ****                  (uint8)adc_cy_psoc4_sarmux_8__CH_14_PIN
 158:Generated_Source\PSoC4/adc.c ****             #endif /* End adc_TOTAL_CHANNELS_NUM > 14u */
 159:Generated_Source\PSoC4/adc.c ****             #if(adc_TOTAL_CHANNELS_NUM > 15u)
 160:Generated_Source\PSoC4/adc.c ****                 ,(uint8)(adc_cy_psoc4_sarmux_8__CH_15_PORT << 4u) |
 161:Generated_Source\PSoC4/adc.c ****                  (uint8)adc_cy_psoc4_sarmux_8__CH_15_PIN
 162:Generated_Source\PSoC4/adc.c ****             #endif /* End adc_TOTAL_CHANNELS_NUM > 15u */
 163:Generated_Source\PSoC4/adc.c ****             #if(adc_TOTAL_CHANNELS_NUM > 16u)
 164:Generated_Source\PSoC4/adc.c ****                 ,(uint8)(adc_cy_psoc4_sarmux_8__CH_16_PORT << 4u) |
 165:Generated_Source\PSoC4/adc.c ****                  (uint8)adc_cy_psoc4_sarmux_8__CH_16_PIN
 166:Generated_Source\PSoC4/adc.c ****             #endif /* End adc_TOTAL_CHANNELS_NUM > 16u */
 167:Generated_Source\PSoC4/adc.c ****         };
 168:Generated_Source\PSoC4/adc.c ****     #endif /* End adc_TOTAL_CHANNELS_NUM > 1u */
 169:Generated_Source\PSoC4/adc.c **** 
 170:Generated_Source\PSoC4/adc.c ****     #if(adc_IRQ_REMOVE == 0u)
 171:Generated_Source\PSoC4/adc.c ****         /* Start and set interrupt vector */
 172:Generated_Source\PSoC4/adc.c ****         CyIntSetPriority(adc_INTC_NUMBER, adc_INTC_PRIOR_NUMBER);
  99              		.loc 1 172 0
 100 0006 0321     		movs	r1, #3
 101 0008 0F20     		movs	r0, #15
 102 000a FFF7FEFF 		bl	CyIntSetPriority
 173:Generated_Source\PSoC4/adc.c ****         (void)CyIntSetVector(adc_INTC_NUMBER, &adc_ISR);
 103              		.loc 1 173 0
 104 000e 644B     		ldr	r3, .L16
 105 0010 1900     		movs	r1, r3
 106 0012 0F20     		movs	r0, #15
 107 0014 FFF7FEFF 		bl	CyIntSetVector
 174:Generated_Source\PSoC4/adc.c ****     #endif   /* End adc_IRQ_REMOVE */
 175:Generated_Source\PSoC4/adc.c **** 
 176:Generated_Source\PSoC4/adc.c ****     /* Init SAR and MUX registers */
 177:Generated_Source\PSoC4/adc.c ****     adc_SAR_CHAN_EN_REG = adc_DEFAULT_EN_CHANNELS;
ARM GAS  C:\Users\Jacob\AppData\Local\Temp\cc0s3k17.s 			page 6


 108              		.loc 1 177 0
 109 0018 624B     		ldr	r3, .L16+4
 110 001a 0322     		movs	r2, #3
 111 001c 1A60     		str	r2, [r3]
 178:Generated_Source\PSoC4/adc.c ****     adc_SAR_CTRL_REG |= adc_DEFAULT_CTRL_REG_CFG | 
 179:Generated_Source\PSoC4/adc.c ****         /* Enable the SAR internal pump when global pump is enabled */
 180:Generated_Source\PSoC4/adc.c ****         (((adc_PUMP_CTRL_REG & adc_PUMP_CTRL_ENABLED) != 0u) ? 
 112              		.loc 1 180 0
 113 001e 624B     		ldr	r3, .L16+8
 114 0020 1B68     		ldr	r3, [r3]
 178:Generated_Source\PSoC4/adc.c ****     adc_SAR_CTRL_REG |= adc_DEFAULT_CTRL_REG_CFG | 
 115              		.loc 1 178 0
 116 0022 002B     		cmp	r3, #0
 117 0024 01DA     		bge	.L6
 178:Generated_Source\PSoC4/adc.c ****     adc_SAR_CTRL_REG |= adc_DEFAULT_CTRL_REG_CFG | 
 118              		.loc 1 178 0 is_stmt 0 discriminator 1
 119 0026 6149     		ldr	r1, .L16+12
 120 0028 00E0     		b	.L7
 121              	.L6:
 178:Generated_Source\PSoC4/adc.c ****     adc_SAR_CTRL_REG |= adc_DEFAULT_CTRL_REG_CFG | 
 122              		.loc 1 178 0 discriminator 2
 123 002a 6149     		ldr	r1, .L16+16
 124              	.L7:
 178:Generated_Source\PSoC4/adc.c ****     adc_SAR_CTRL_REG |= adc_DEFAULT_CTRL_REG_CFG | 
 125              		.loc 1 178 0 discriminator 4
 126 002c 614B     		ldr	r3, .L16+20
 127 002e 614A     		ldr	r2, .L16+20
 128 0030 1268     		ldr	r2, [r2]
 129 0032 0A43     		orrs	r2, r1
 130 0034 1A60     		str	r2, [r3]
 181:Generated_Source\PSoC4/adc.c ****         adc_BOOSTPUMP_EN : 0u);
 182:Generated_Source\PSoC4/adc.c ****     adc_SAR_SAMPLE_CTRL_REG = adc_DEFAULT_SAMPLE_CTRL_REG_CFG;
 131              		.loc 1 182 0 is_stmt 1 discriminator 4
 132 0036 604B     		ldr	r3, .L16+24
 133 0038 604A     		ldr	r2, .L16+28
 134 003a 1A60     		str	r2, [r3]
 183:Generated_Source\PSoC4/adc.c ****     adc_SAR_RANGE_THRES_REG = adc_DEFAULT_RANGE_THRES_REG_CFG;
 135              		.loc 1 183 0 discriminator 4
 136 003c 604B     		ldr	r3, .L16+32
 137 003e 614A     		ldr	r2, .L16+36
 138 0040 1A60     		str	r2, [r3]
 184:Generated_Source\PSoC4/adc.c ****     adc_SAR_RANGE_COND_REG  = adc_COMPARE_MODE;
 139              		.loc 1 184 0 discriminator 4
 140 0042 614B     		ldr	r3, .L16+40
 141 0044 0022     		movs	r2, #0
 142 0046 1A60     		str	r2, [r3]
 185:Generated_Source\PSoC4/adc.c ****     adc_SAR_SAMPLE_TIME01_REG = adc_DEFAULT_SAMPLE_TIME01_REG_CFG;
 143              		.loc 1 185 0 discriminator 4
 144 0048 604B     		ldr	r3, .L16+44
 145 004a 614A     		ldr	r2, .L16+48
 146 004c 1A60     		str	r2, [r3]
 186:Generated_Source\PSoC4/adc.c ****     adc_SAR_SAMPLE_TIME23_REG = adc_DEFAULT_SAMPLE_TIME23_REG_CFG;
 147              		.loc 1 186 0 discriminator 4
 148 004e 614B     		ldr	r3, .L16+52
 149 0050 614A     		ldr	r2, .L16+56
 150 0052 1A60     		str	r2, [r3]
 187:Generated_Source\PSoC4/adc.c ****     
ARM GAS  C:\Users\Jacob\AppData\Local\Temp\cc0s3k17.s 			page 7


 188:Generated_Source\PSoC4/adc.c ****     /* Connect Vm to VSSA when even one channel is single-ended or multiple channels configured */
 189:Generated_Source\PSoC4/adc.c ****     #if(adc_DEFAULT_MUX_SWITCH0 != 0u)
 190:Generated_Source\PSoC4/adc.c ****         adc_MUX_SWITCH0_REG |= adc_DEFAULT_MUX_SWITCH0;
 151              		.loc 1 190 0 discriminator 4
 152 0054 614B     		ldr	r3, .L16+60
 153 0056 614A     		ldr	r2, .L16+60
 154 0058 1268     		ldr	r2, [r2]
 155 005a 8021     		movs	r1, #128
 156 005c 4902     		lsls	r1, r1, #9
 157 005e 0A43     		orrs	r2, r1
 158 0060 1A60     		str	r2, [r3]
 191:Generated_Source\PSoC4/adc.c ****         /* Set MUX_HW_CTRL_VSSA in MUX_SWITCH_HW_CTRL when multiple channels enabled */
 192:Generated_Source\PSoC4/adc.c ****         #if(adc_TOTAL_CHANNELS_NUM > 1u)
 193:Generated_Source\PSoC4/adc.c ****             adc_MUX_SWITCH_HW_CTRL_REG |= adc_DEFAULT_MUX_SWITCH0;
 159              		.loc 1 193 0 discriminator 4
 160 0062 5F4B     		ldr	r3, .L16+64
 161 0064 5E4A     		ldr	r2, .L16+64
 162 0066 1268     		ldr	r2, [r2]
 163 0068 8021     		movs	r1, #128
 164 006a 4902     		lsls	r1, r1, #9
 165 006c 0A43     		orrs	r2, r1
 166 006e 1A60     		str	r2, [r3]
 194:Generated_Source\PSoC4/adc.c ****         #endif /* adc_TOTAL_CHANNELS_NUM > 1u */
 195:Generated_Source\PSoC4/adc.c ****     #endif /*adc_CHANNELS_MODE !=0 */
 196:Generated_Source\PSoC4/adc.c **** 
 197:Generated_Source\PSoC4/adc.c ****     adc_SAR_SATURATE_INTR_MASK_REG = 0u;
 167              		.loc 1 197 0 discriminator 4
 168 0070 5C4B     		ldr	r3, .L16+68
 169 0072 0022     		movs	r2, #0
 170 0074 1A60     		str	r2, [r3]
 198:Generated_Source\PSoC4/adc.c ****     adc_SAR_RANGE_INTR_MASK_REG = 0u;
 171              		.loc 1 198 0 discriminator 4
 172 0076 5C4B     		ldr	r3, .L16+72
 173 0078 0022     		movs	r2, #0
 174 007a 1A60     		str	r2, [r3]
 199:Generated_Source\PSoC4/adc.c ****     adc_SAR_INTR_MASK_REG = adc_SAR_INTR_MASK;
 175              		.loc 1 199 0 discriminator 4
 176 007c 5B4B     		ldr	r3, .L16+76
 177 007e 0122     		movs	r2, #1
 178 0080 1A60     		str	r2, [r3]
 200:Generated_Source\PSoC4/adc.c **** 
 201:Generated_Source\PSoC4/adc.c ****     #if(adc_CY_SAR_IP_VER == adc_CY_SAR_IP_VER0)
 202:Generated_Source\PSoC4/adc.c ****         adc_ANA_TRIM_REG = adc_TRIM_COEF;
 203:Generated_Source\PSoC4/adc.c ****     #endif /* (adc_CY_SAR_IP_VER == adc_CY_SAR_IP_VER0) */
 204:Generated_Source\PSoC4/adc.c **** 
 205:Generated_Source\PSoC4/adc.c ****     /* Read and modify default configuration based on characterization */
 206:Generated_Source\PSoC4/adc.c ****     tmpRegVal = adc_SAR_DFT_CTRL_REG;
 179              		.loc 1 206 0 discriminator 4
 180 0082 5B4B     		ldr	r3, .L16+80
 181 0084 1B68     		ldr	r3, [r3]
 182 0086 7B60     		str	r3, [r7, #4]
 207:Generated_Source\PSoC4/adc.c ****     tmpRegVal &= (uint32)~adc_DCEN;
 183              		.loc 1 207 0 discriminator 4
 184 0088 7B68     		ldr	r3, [r7, #4]
 185 008a 5A4A     		ldr	r2, .L16+84
 186 008c 1340     		ands	r3, r2
 187 008e 7B60     		str	r3, [r7, #4]
ARM GAS  C:\Users\Jacob\AppData\Local\Temp\cc0s3k17.s 			page 8


 208:Generated_Source\PSoC4/adc.c ****     
 209:Generated_Source\PSoC4/adc.c ****     #if(adc_CY_SAR_IP_VER == adc_CY_SAR_IP_VER0)
 210:Generated_Source\PSoC4/adc.c ****         #if(adc_NOMINAL_CLOCK_FREQ > (adc_MAX_FREQUENCY / 2))
 211:Generated_Source\PSoC4/adc.c ****             tmpRegVal |= adc_SEL_CSEL_DFT_CHAR;
 212:Generated_Source\PSoC4/adc.c ****         #else  /* clock speed < 9 Mhz */
 213:Generated_Source\PSoC4/adc.c ****             tmpRegVal |= adc_DLY_INC;
 214:Generated_Source\PSoC4/adc.c ****         #endif /* clock speed > 9 Mhz */
 215:Generated_Source\PSoC4/adc.c ****     #else
 216:Generated_Source\PSoC4/adc.c ****         #if ((adc_DEFAULT_VREF_SEL == adc__INTERNAL1024) || \
 217:Generated_Source\PSoC4/adc.c ****              (adc_DEFAULT_VREF_SEL == adc__INTERNALVREF))
 218:Generated_Source\PSoC4/adc.c ****             tmpRegVal |= adc_DLY_INC;
 219:Generated_Source\PSoC4/adc.c ****         #else
 220:Generated_Source\PSoC4/adc.c ****             tmpRegVal |= adc_DCEN;
 188              		.loc 1 220 0 discriminator 4
 189 0090 7B68     		ldr	r3, [r7, #4]
 190 0092 8022     		movs	r2, #128
 191 0094 9205     		lsls	r2, r2, #22
 192 0096 1343     		orrs	r3, r2
 193 0098 7B60     		str	r3, [r7, #4]
 221:Generated_Source\PSoC4/adc.c ****             tmpRegVal &= (uint32)~adc_DLY_INC;
 194              		.loc 1 221 0 discriminator 4
 195 009a 7B68     		ldr	r3, [r7, #4]
 196 009c 0122     		movs	r2, #1
 197 009e 9343     		bics	r3, r2
 198 00a0 7B60     		str	r3, [r7, #4]
 222:Generated_Source\PSoC4/adc.c ****         #endif /* ((adc_DEFAULT_VREF_SEL == adc__INTERNAL1024) || \
 223:Generated_Source\PSoC4/adc.c ****                    (adc_DEFAULT_VREF_SEL == adc__INTERNALVREF)) */
 224:Generated_Source\PSoC4/adc.c ****     #endif /* (adc_CY_SAR_IP_VER == adc_CY_SAR_IP_VER0) */
 225:Generated_Source\PSoC4/adc.c ****     
 226:Generated_Source\PSoC4/adc.c ****     adc_SAR_DFT_CTRL_REG = tmpRegVal;
 199              		.loc 1 226 0 discriminator 4
 200 00a2 534B     		ldr	r3, .L16+80
 201 00a4 7A68     		ldr	r2, [r7, #4]
 202 00a6 1A60     		str	r2, [r3]
 227:Generated_Source\PSoC4/adc.c **** 
 228:Generated_Source\PSoC4/adc.c ****     #if(adc_MAX_RESOLUTION != adc_RESOLUTION_12)
 229:Generated_Source\PSoC4/adc.c ****         adc_WOUNDING_REG = adc_ALT_WOUNDING;
 230:Generated_Source\PSoC4/adc.c ****     #endif /* adc_MAX_RESOLUTION != adc_RESOLUTION_12 */
 231:Generated_Source\PSoC4/adc.c **** 
 232:Generated_Source\PSoC4/adc.c ****     for(chNum = 0u; chNum < adc_TOTAL_CHANNELS_NUM; chNum++)
 203              		.loc 1 232 0 discriminator 4
 204 00a8 0023     		movs	r3, #0
 205 00aa FB60     		str	r3, [r7, #12]
 206 00ac 70E0     		b	.L8
 207              	.L15:
 233:Generated_Source\PSoC4/adc.c ****     {
 234:Generated_Source\PSoC4/adc.c ****         tmpRegVal = (adc_channelsConfig[chNum] & adc_CHANNEL_CONFIG_MASK);
 208              		.loc 1 234 0
 209 00ae 524B     		ldr	r3, .L16+88
 210 00b0 FA68     		ldr	r2, [r7, #12]
 211 00b2 9200     		lsls	r2, r2, #2
 212 00b4 D258     		ldr	r2, [r2, r3]
 213 00b6 DC23     		movs	r3, #220
 214 00b8 9B01     		lsls	r3, r3, #6
 215 00ba 1340     		ands	r3, r2
 216 00bc 7B60     		str	r3, [r7, #4]
 235:Generated_Source\PSoC4/adc.c ****         #if(adc_TOTAL_CHANNELS_NUM > 1u)
ARM GAS  C:\Users\Jacob\AppData\Local\Temp\cc0s3k17.s 			page 9


 236:Generated_Source\PSoC4/adc.c ****             tmpRegVal |= adc_InputsPlacement[chNum];
 217              		.loc 1 236 0
 218 00be 4F4A     		ldr	r2, .L16+92
 219 00c0 FB68     		ldr	r3, [r7, #12]
 220 00c2 D318     		adds	r3, r2, r3
 221 00c4 1B78     		ldrb	r3, [r3]
 222 00c6 1A00     		movs	r2, r3
 223 00c8 7B68     		ldr	r3, [r7, #4]
 224 00ca 1343     		orrs	r3, r2
 225 00cc 7B60     		str	r3, [r7, #4]
 237:Generated_Source\PSoC4/adc.c ****         #endif /* End adc_TOTAL_CHANNELS_NUM > 1u */
 238:Generated_Source\PSoC4/adc.c ****         
 239:Generated_Source\PSoC4/adc.c ****         
 240:Generated_Source\PSoC4/adc.c ****         /* When the part is limited to 10-bit then the SUB_RESOLUTION bit
 241:Generated_Source\PSoC4/adc.c ****         *  will be ignored and the RESOLUTION bit selects between 10-bit
 242:Generated_Source\PSoC4/adc.c ****         *  (0) and 8-bit (1) resolution.
 243:Generated_Source\PSoC4/adc.c ****         */
 244:Generated_Source\PSoC4/adc.c ****         #if((adc_MAX_RESOLUTION != adc_RESOLUTION_12) && \
 245:Generated_Source\PSoC4/adc.c ****             (adc_ALT_WOUNDING == adc_WOUNDING_10BIT))
 246:Generated_Source\PSoC4/adc.c ****             tmpRegVal &= (uint32)(~adc_ALT_RESOLUTION_ON);
 247:Generated_Source\PSoC4/adc.c ****         #endif /* adc_MAX_RESOLUTION != adc_RESOLUTION_12 */
 248:Generated_Source\PSoC4/adc.c **** 
 249:Generated_Source\PSoC4/adc.c ****         #if(adc_INJ_CHANNEL_ENABLED)
 250:Generated_Source\PSoC4/adc.c ****         if(chNum < adc_SEQUENCED_CHANNELS_NUM)
 251:Generated_Source\PSoC4/adc.c ****         #endif /* adc_INJ_CHANNEL_ENABLED */
 252:Generated_Source\PSoC4/adc.c ****         {
 253:Generated_Source\PSoC4/adc.c ****             CY_SET_REG32((reg32 *)(adc_SAR_CHAN_CONFIG_IND + (uint32)(chNum << 2)), tmpRegVal);
 226              		.loc 1 253 0
 227 00ce FB68     		ldr	r3, [r7, #12]
 228 00d0 9B00     		lsls	r3, r3, #2
 229 00d2 4B4A     		ldr	r2, .L16+96
 230 00d4 9446     		mov	ip, r2
 231 00d6 6344     		add	r3, r3, ip
 232 00d8 7A68     		ldr	r2, [r7, #4]
 233 00da 1A60     		str	r2, [r3]
 254:Generated_Source\PSoC4/adc.c **** 
 255:Generated_Source\PSoC4/adc.c ****             if((adc_channelsConfig[chNum] & adc_IS_SATURATE_EN_MASK) != 0u)
 234              		.loc 1 255 0
 235 00dc 464B     		ldr	r3, .L16+88
 236 00de FA68     		ldr	r2, [r7, #12]
 237 00e0 9200     		lsls	r2, r2, #2
 238 00e2 D358     		ldr	r3, [r2, r3]
 239 00e4 0122     		movs	r2, #1
 240 00e6 1340     		ands	r3, r2
 241 00e8 0AD0     		beq	.L9
 256:Generated_Source\PSoC4/adc.c ****             {
 257:Generated_Source\PSoC4/adc.c ****                 adc_SAR_SATURATE_INTR_MASK_REG |= (uint16)((uint16)1 << chNum);
 242              		.loc 1 257 0
 243 00ea 3E4B     		ldr	r3, .L16+68
 244 00ec 3D4A     		ldr	r2, .L16+68
 245 00ee 1168     		ldr	r1, [r2]
 246 00f0 0120     		movs	r0, #1
 247 00f2 FA68     		ldr	r2, [r7, #12]
 248 00f4 9040     		lsls	r0, r0, r2
 249 00f6 0200     		movs	r2, r0
 250 00f8 1204     		lsls	r2, r2, #16
 251 00fa 120C     		lsrs	r2, r2, #16
ARM GAS  C:\Users\Jacob\AppData\Local\Temp\cc0s3k17.s 			page 10


 252 00fc 0A43     		orrs	r2, r1
 253 00fe 1A60     		str	r2, [r3]
 254              	.L9:
 258:Generated_Source\PSoC4/adc.c ****             }
 259:Generated_Source\PSoC4/adc.c **** 
 260:Generated_Source\PSoC4/adc.c ****             if((adc_channelsConfig[chNum] & adc_IS_RANGE_CTRL_EN_MASK) != 0u)
 255              		.loc 1 260 0
 256 0100 3D4B     		ldr	r3, .L16+88
 257 0102 FA68     		ldr	r2, [r7, #12]
 258 0104 9200     		lsls	r2, r2, #2
 259 0106 D358     		ldr	r3, [r2, r3]
 260 0108 0222     		movs	r2, #2
 261 010a 1340     		ands	r3, r2
 262 010c 0AD0     		beq	.L10
 261:Generated_Source\PSoC4/adc.c ****             {
 262:Generated_Source\PSoC4/adc.c ****                 adc_SAR_RANGE_INTR_MASK_REG |= (uint16)((uint16)1 << chNum);
 263              		.loc 1 262 0
 264 010e 364B     		ldr	r3, .L16+72
 265 0110 354A     		ldr	r2, .L16+72
 266 0112 1168     		ldr	r1, [r2]
 267 0114 0120     		movs	r0, #1
 268 0116 FA68     		ldr	r2, [r7, #12]
 269 0118 9040     		lsls	r0, r0, r2
 270 011a 0200     		movs	r2, r0
 271 011c 1204     		lsls	r2, r2, #16
 272 011e 120C     		lsrs	r2, r2, #16
 273 0120 0A43     		orrs	r2, r1
 274 0122 1A60     		str	r2, [r3]
 275              	.L10:
 263:Generated_Source\PSoC4/adc.c ****             }
 264:Generated_Source\PSoC4/adc.c ****         }
 265:Generated_Source\PSoC4/adc.c ****         #if(adc_INJ_CHANNEL_ENABLED)
 266:Generated_Source\PSoC4/adc.c ****             else
 267:Generated_Source\PSoC4/adc.c ****             {
 268:Generated_Source\PSoC4/adc.c ****                 CY_SET_REG32(adc_SAR_INJ_CHAN_CONFIG_PTR, tmpRegVal | adc_INJ_TAILGATING);
 269:Generated_Source\PSoC4/adc.c **** 
 270:Generated_Source\PSoC4/adc.c ****                 if((adc_channelsConfig[chNum] & adc_IS_SATURATE_EN_MASK) != 0u)
 271:Generated_Source\PSoC4/adc.c ****                 {
 272:Generated_Source\PSoC4/adc.c ****                     adc_SAR_INTR_MASK_REG |= adc_INJ_SATURATE_MASK;
 273:Generated_Source\PSoC4/adc.c ****                 }
 274:Generated_Source\PSoC4/adc.c **** 
 275:Generated_Source\PSoC4/adc.c ****                 if((adc_channelsConfig[chNum] & adc_IS_RANGE_CTRL_EN_MASK) != 0u)
 276:Generated_Source\PSoC4/adc.c ****                 {
 277:Generated_Source\PSoC4/adc.c ****                     adc_SAR_INTR_MASK_REG |= adc_INJ_RANGE_MASK;
 278:Generated_Source\PSoC4/adc.c ****                 }
 279:Generated_Source\PSoC4/adc.c ****             }
 280:Generated_Source\PSoC4/adc.c ****         #endif /* adc_INJ_CHANNEL_ENABLED */
 281:Generated_Source\PSoC4/adc.c **** 
 282:Generated_Source\PSoC4/adc.c ****         if((adc_channelsConfig[chNum] & adc_ALT_RESOLUTION_ON) != 0u)
 276              		.loc 1 282 0
 277 0124 344B     		ldr	r3, .L16+88
 278 0126 FA68     		ldr	r2, [r7, #12]
 279 0128 9200     		lsls	r2, r2, #2
 280 012a D258     		ldr	r2, [r2, r3]
 281 012c 8023     		movs	r3, #128
 282 012e 9B00     		lsls	r3, r3, #2
 283 0130 1340     		ands	r3, r2
ARM GAS  C:\Users\Jacob\AppData\Local\Temp\cc0s3k17.s 			page 11


 284 0132 03D0     		beq	.L11
 283:Generated_Source\PSoC4/adc.c ****         {
 284:Generated_Source\PSoC4/adc.c ****                counts = (int32)adc_DEFAULT_MAX_WRK_ALT;
 285              		.loc 1 284 0
 286 0134 8023     		movs	r3, #128
 287 0136 5B00     		lsls	r3, r3, #1
 288 0138 BB60     		str	r3, [r7, #8]
 289 013a 02E0     		b	.L12
 290              	.L11:
 285:Generated_Source\PSoC4/adc.c ****         }
 286:Generated_Source\PSoC4/adc.c ****         else
 287:Generated_Source\PSoC4/adc.c ****         {
 288:Generated_Source\PSoC4/adc.c ****                counts = (int32)adc_SAR_WRK_MAX_12BIT;
 291              		.loc 1 288 0
 292 013c 8023     		movs	r3, #128
 293 013e 5B01     		lsls	r3, r3, #5
 294 0140 BB60     		str	r3, [r7, #8]
 295              	.L12:
 289:Generated_Source\PSoC4/adc.c ****         }
 290:Generated_Source\PSoC4/adc.c **** 
 291:Generated_Source\PSoC4/adc.c ****         if((adc_channelsConfig[chNum] & adc_DIFFERENTIAL_EN) == 0u)
 296              		.loc 1 291 0
 297 0142 2D4B     		ldr	r3, .L16+88
 298 0144 FA68     		ldr	r2, [r7, #12]
 299 0146 9200     		lsls	r2, r2, #2
 300 0148 D258     		ldr	r2, [r2, r3]
 301 014a 8023     		movs	r3, #128
 302 014c 5B00     		lsls	r3, r3, #1
 303 014e 1340     		ands	r3, r2
 304 0150 05D1     		bne	.L13
 292:Generated_Source\PSoC4/adc.c ****         {
 293:Generated_Source\PSoC4/adc.c ****             #if((adc_DEFAULT_SE_RESULT_FORMAT_SEL == adc__FSIGNED) && \
 294:Generated_Source\PSoC4/adc.c ****                 (adc_DEFAULT_NEG_INPUT_SEL == adc__VREF))
 295:Generated_Source\PSoC4/adc.c ****                 /* Set offset to the minus half scale to convert results to unsigned format */
 296:Generated_Source\PSoC4/adc.c ****                 adc_offset[chNum] = (int16)(counts / -2);
 297:Generated_Source\PSoC4/adc.c ****             #else
 298:Generated_Source\PSoC4/adc.c ****                 adc_offset[chNum] = 0;
 305              		.loc 1 298 0
 306 0152 2C4B     		ldr	r3, .L16+100
 307 0154 FA68     		ldr	r2, [r7, #12]
 308 0156 5200     		lsls	r2, r2, #1
 309 0158 0021     		movs	r1, #0
 310 015a D152     		strh	r1, [r2, r3]
 311 015c 04E0     		b	.L14
 312              	.L13:
 299:Generated_Source\PSoC4/adc.c ****             #endif /* end DEFAULT_SE_RESULT_FORMAT_SEL == adc__FSIGNED */
 300:Generated_Source\PSoC4/adc.c ****         }
 301:Generated_Source\PSoC4/adc.c ****         else    /* Differential channel */
 302:Generated_Source\PSoC4/adc.c ****         {
 303:Generated_Source\PSoC4/adc.c ****             #if(adc_DEFAULT_DIFF_RESULT_FORMAT_SEL == adc__FUNSIGNED)
 304:Generated_Source\PSoC4/adc.c ****                 /* Set offset to the half scale to convert results to signed format */
 305:Generated_Source\PSoC4/adc.c ****                 adc_offset[chNum] = (int16)(counts / 2);
 306:Generated_Source\PSoC4/adc.c ****             #else
 307:Generated_Source\PSoC4/adc.c ****                 adc_offset[chNum] = 0;
 313              		.loc 1 307 0
 314 015e 294B     		ldr	r3, .L16+100
 315 0160 FA68     		ldr	r2, [r7, #12]
ARM GAS  C:\Users\Jacob\AppData\Local\Temp\cc0s3k17.s 			page 12


 316 0162 5200     		lsls	r2, r2, #1
 317 0164 0021     		movs	r1, #0
 318 0166 D152     		strh	r1, [r2, r3]
 319              	.L14:
 308:Generated_Source\PSoC4/adc.c ****             #endif /* end adc_DEFAULT_DIFF_RESULT_FORMAT_SEL == adc__FUNSIGNED */
 309:Generated_Source\PSoC4/adc.c ****         }
 310:Generated_Source\PSoC4/adc.c ****         /* Calculate gain in counts per 10 volts with rounding */
 311:Generated_Source\PSoC4/adc.c ****         adc_countsPer10Volt[chNum] = (int16)(((counts * adc_10MV_COUNTS) +
 320              		.loc 1 311 0 discriminator 2
 321 0168 BB68     		ldr	r3, [r7, #8]
 322 016a 274A     		ldr	r2, .L16+104
 323 016c 5343     		muls	r3, r2
 324 016e 274A     		ldr	r2, .L16+108
 325 0170 9446     		mov	ip, r2
 326 0172 6344     		add	r3, r3, ip
 312:Generated_Source\PSoC4/adc.c ****                             adc_DEFAULT_VREF_MV_VALUE) / (adc_DEFAULT_VREF_MV_VALUE * 2));
 327              		.loc 1 312 0 discriminator 2
 328 0174 2449     		ldr	r1, .L16+104
 329 0176 1800     		movs	r0, r3
 330 0178 FFF7FEFF 		bl	__aeabi_idiv
 331 017c 0300     		movs	r3, r0
 311:Generated_Source\PSoC4/adc.c ****                             adc_DEFAULT_VREF_MV_VALUE) / (adc_DEFAULT_VREF_MV_VALUE * 2));
 332              		.loc 1 311 0 discriminator 2
 333 017e 1BB2     		sxth	r3, r3
 334 0180 1900     		movs	r1, r3
 335 0182 234B     		ldr	r3, .L16+112
 336 0184 FA68     		ldr	r2, [r7, #12]
 337 0186 9200     		lsls	r2, r2, #2
 338 0188 D150     		str	r1, [r2, r3]
 232:Generated_Source\PSoC4/adc.c ****     {
 339              		.loc 1 232 0 discriminator 2
 340 018a FB68     		ldr	r3, [r7, #12]
 341 018c 0133     		adds	r3, r3, #1
 342 018e FB60     		str	r3, [r7, #12]
 343              	.L8:
 232:Generated_Source\PSoC4/adc.c ****     {
 344              		.loc 1 232 0 is_stmt 0 discriminator 1
 345 0190 FB68     		ldr	r3, [r7, #12]
 346 0192 012B     		cmp	r3, #1
 347 0194 8BD9     		bls	.L15
 313:Generated_Source\PSoC4/adc.c ****     }
 314:Generated_Source\PSoC4/adc.c **** }
 348              		.loc 1 314 0 is_stmt 1
 349 0196 C046     		nop
 350 0198 BD46     		mov	sp, r7
 351 019a 04B0     		add	sp, sp, #16
 352              		@ sp needed
 353 019c 80BD     		pop	{r7, pc}
 354              	.L17:
 355 019e C046     		.align	2
 356              	.L16:
 357 01a0 00000000 		.word	adc_ISR
 358 01a4 20003A40 		.word	1077542944
 359 01a8 80033A40 		.word	1077543808
 360 01ac 70201010 		.word	269492336
 361 01b0 70200010 		.word	268443760
 362 01b4 00003A40 		.word	1077542912
ARM GAS  C:\Users\Jacob\AppData\Local\Temp\cc0s3k17.s 			page 13


 363 01b8 04003A40 		.word	1077542916
 364 01bc 8C000080 		.word	-2147483508
 365 01c0 18003A40 		.word	1077542936
 366 01c4 0000FF07 		.word	134152192
 367 01c8 1C003A40 		.word	1077542940
 368 01cc 10003A40 		.word	1077542928
 369 01d0 04000200 		.word	131076
 370 01d4 14003A40 		.word	1077542932
 371 01d8 02000200 		.word	131074
 372 01dc 00033A40 		.word	1077543680
 373 01e0 40033A40 		.word	1077543744
 374 01e4 28023A40 		.word	1077543464
 375 01e8 38023A40 		.word	1077543480
 376 01ec 18023A40 		.word	1077543448
 377 01f0 30003A40 		.word	1077542960
 378 01f4 FFFFFFDF 		.word	-536870913
 379 01f8 00000000 		.word	adc_channelsConfig
 380 01fc 08000000 		.word	adc_InputsPlacement.4920
 381 0200 80003A40 		.word	1077543040
 382 0204 00000000 		.word	adc_offset
 383 0208 10270000 		.word	10000
 384 020c 88130000 		.word	5000
 385 0210 00000000 		.word	adc_countsPer10Volt
 386              		.cfi_endproc
 387              	.LFE3:
 388              		.size	adc_Init, .-adc_Init
 389              		.section	.text.adc_Enable,"ax",%progbits
 390              		.align	2
 391              		.global	adc_Enable
 392              		.code	16
 393              		.thumb_func
 394              		.type	adc_Enable, %function
 395              	adc_Enable:
 396              	.LFB4:
 315:Generated_Source\PSoC4/adc.c **** 
 316:Generated_Source\PSoC4/adc.c **** /*******************************************************************************
 317:Generated_Source\PSoC4/adc.c **** * Function Name: ADC_SAR_1_Enable
 318:Generated_Source\PSoC4/adc.c **** ********************************************************************************
 319:Generated_Source\PSoC4/adc.c **** *
 320:Generated_Source\PSoC4/adc.c **** * Summary:
 321:Generated_Source\PSoC4/adc.c **** *  Enables the clock and analog power for SAR ADC.
 322:Generated_Source\PSoC4/adc.c **** *
 323:Generated_Source\PSoC4/adc.c **** * Parameters:
 324:Generated_Source\PSoC4/adc.c **** *  None.
 325:Generated_Source\PSoC4/adc.c **** *
 326:Generated_Source\PSoC4/adc.c **** * Return:
 327:Generated_Source\PSoC4/adc.c **** *  None.
 328:Generated_Source\PSoC4/adc.c **** *
 329:Generated_Source\PSoC4/adc.c **** *******************************************************************************/
 330:Generated_Source\PSoC4/adc.c **** void adc_Enable(void)
 331:Generated_Source\PSoC4/adc.c **** {
 397              		.loc 1 331 0
 398              		.cfi_startproc
 399              		@ args = 0, pretend = 0, frame = 0
 400              		@ frame_needed = 1, uses_anonymous_args = 0
 401 0000 80B5     		push	{r7, lr}
 402              		.cfi_def_cfa_offset 8
ARM GAS  C:\Users\Jacob\AppData\Local\Temp\cc0s3k17.s 			page 14


 403              		.cfi_offset 7, -8
 404              		.cfi_offset 14, -4
 405 0002 00AF     		add	r7, sp, #0
 406              		.cfi_def_cfa_register 7
 332:Generated_Source\PSoC4/adc.c ****     if (0u == (adc_SAR_CTRL_REG & adc_ENABLE))
 407              		.loc 1 332 0
 408 0004 0A4B     		ldr	r3, .L22
 409 0006 1B68     		ldr	r3, [r3]
 410 0008 002B     		cmp	r3, #0
 411 000a 0EDB     		blt	.L21
 333:Generated_Source\PSoC4/adc.c ****     {
 334:Generated_Source\PSoC4/adc.c ****         #if(adc_CY_SAR_IP_VER != adc_CY_SAR_IP_VER0)
 335:Generated_Source\PSoC4/adc.c **** 
 336:Generated_Source\PSoC4/adc.c ****             while (0u != (adc_SAR_STATUS_REG & adc_STATUS_BUSY))
 412              		.loc 1 336 0
 413 000c C046     		nop
 414              	.L20:
 415              		.loc 1 336 0 is_stmt 0 discriminator 1
 416 000e 094B     		ldr	r3, .L22+4
 417 0010 1B68     		ldr	r3, [r3]
 418 0012 002B     		cmp	r3, #0
 419 0014 FBDB     		blt	.L20
 337:Generated_Source\PSoC4/adc.c ****             {
 338:Generated_Source\PSoC4/adc.c ****                 /* wait for SAR to go idle to avoid deadlock */
 339:Generated_Source\PSoC4/adc.c ****             }
 340:Generated_Source\PSoC4/adc.c ****         #endif /* (adc_CY_SAR_IP_VER != adc_CY_SAR_IP_VER0) */
 341:Generated_Source\PSoC4/adc.c ****         
 342:Generated_Source\PSoC4/adc.c ****         adc_SAR_CTRL_REG |= adc_ENABLE;
 420              		.loc 1 342 0 is_stmt 1
 421 0016 064B     		ldr	r3, .L22
 422 0018 054A     		ldr	r2, .L22
 423 001a 1268     		ldr	r2, [r2]
 424 001c 8021     		movs	r1, #128
 425 001e 0906     		lsls	r1, r1, #24
 426 0020 0A43     		orrs	r2, r1
 427 0022 1A60     		str	r2, [r3]
 343:Generated_Source\PSoC4/adc.c ****         
 344:Generated_Source\PSoC4/adc.c ****         /* The block is ready to use 10 us after the enable signal is set high. */
 345:Generated_Source\PSoC4/adc.c ****         CyDelayUs(adc_10US_DELAY);         
 428              		.loc 1 345 0
 429 0024 0A20     		movs	r0, #10
 430 0026 FFF7FEFF 		bl	CyDelayUs
 431              	.L21:
 346:Generated_Source\PSoC4/adc.c ****     }
 347:Generated_Source\PSoC4/adc.c **** }
 432              		.loc 1 347 0
 433 002a C046     		nop
 434 002c BD46     		mov	sp, r7
 435              		@ sp needed
 436 002e 80BD     		pop	{r7, pc}
 437              	.L23:
 438              		.align	2
 439              	.L22:
 440 0030 00003A40 		.word	1077542912
 441 0034 08023A40 		.word	1077543432
 442              		.cfi_endproc
 443              	.LFE4:
ARM GAS  C:\Users\Jacob\AppData\Local\Temp\cc0s3k17.s 			page 15


 444              		.size	adc_Enable, .-adc_Enable
 445              		.section	.text.adc_Stop,"ax",%progbits
 446              		.align	2
 447              		.global	adc_Stop
 448              		.code	16
 449              		.thumb_func
 450              		.type	adc_Stop, %function
 451              	adc_Stop:
 452              	.LFB5:
 348:Generated_Source\PSoC4/adc.c **** 
 349:Generated_Source\PSoC4/adc.c **** 
 350:Generated_Source\PSoC4/adc.c **** /*******************************************************************************
 351:Generated_Source\PSoC4/adc.c **** * Function Name: adc_Stop
 352:Generated_Source\PSoC4/adc.c **** ********************************************************************************
 353:Generated_Source\PSoC4/adc.c **** *
 354:Generated_Source\PSoC4/adc.c **** * Summary:
 355:Generated_Source\PSoC4/adc.c **** *  This function stops ADC conversions and puts the ADC into its lowest power
 356:Generated_Source\PSoC4/adc.c **** *  mode.
 357:Generated_Source\PSoC4/adc.c **** *
 358:Generated_Source\PSoC4/adc.c **** * Parameters:
 359:Generated_Source\PSoC4/adc.c **** *  None.
 360:Generated_Source\PSoC4/adc.c **** *
 361:Generated_Source\PSoC4/adc.c **** * Return:
 362:Generated_Source\PSoC4/adc.c **** *  None.
 363:Generated_Source\PSoC4/adc.c **** *
 364:Generated_Source\PSoC4/adc.c **** *******************************************************************************/
 365:Generated_Source\PSoC4/adc.c **** void adc_Stop(void)
 366:Generated_Source\PSoC4/adc.c **** {
 453              		.loc 1 366 0
 454              		.cfi_startproc
 455              		@ args = 0, pretend = 0, frame = 0
 456              		@ frame_needed = 1, uses_anonymous_args = 0
 457 0000 80B5     		push	{r7, lr}
 458              		.cfi_def_cfa_offset 8
 459              		.cfi_offset 7, -8
 460              		.cfi_offset 14, -4
 461 0002 00AF     		add	r7, sp, #0
 462              		.cfi_def_cfa_register 7
 367:Generated_Source\PSoC4/adc.c ****     adc_SAR_CTRL_REG &= (uint32)~adc_ENABLE;
 463              		.loc 1 367 0
 464 0004 044B     		ldr	r3, .L25
 465 0006 044A     		ldr	r2, .L25
 466 0008 1268     		ldr	r2, [r2]
 467 000a 5200     		lsls	r2, r2, #1
 468 000c 5208     		lsrs	r2, r2, #1
 469 000e 1A60     		str	r2, [r3]
 368:Generated_Source\PSoC4/adc.c **** }
 470              		.loc 1 368 0
 471 0010 C046     		nop
 472 0012 BD46     		mov	sp, r7
 473              		@ sp needed
 474 0014 80BD     		pop	{r7, pc}
 475              	.L26:
 476 0016 C046     		.align	2
 477              	.L25:
 478 0018 00003A40 		.word	1077542912
 479              		.cfi_endproc
ARM GAS  C:\Users\Jacob\AppData\Local\Temp\cc0s3k17.s 			page 16


 480              	.LFE5:
 481              		.size	adc_Stop, .-adc_Stop
 482              		.section	.text.adc_StartConvert,"ax",%progbits
 483              		.align	2
 484              		.global	adc_StartConvert
 485              		.code	16
 486              		.thumb_func
 487              		.type	adc_StartConvert, %function
 488              	adc_StartConvert:
 489              	.LFB6:
 369:Generated_Source\PSoC4/adc.c **** 
 370:Generated_Source\PSoC4/adc.c **** 
 371:Generated_Source\PSoC4/adc.c **** /*******************************************************************************
 372:Generated_Source\PSoC4/adc.c **** * Function Name: adc_StartConvert
 373:Generated_Source\PSoC4/adc.c **** ********************************************************************************
 374:Generated_Source\PSoC4/adc.c **** *
 375:Generated_Source\PSoC4/adc.c **** * Summary:
 376:Generated_Source\PSoC4/adc.c **** *  Description:
 377:Generated_Source\PSoC4/adc.c **** *  For free running mode, this API starts the conversion process and it
 378:Generated_Source\PSoC4/adc.c **** *  runs continuously.
 379:Generated_Source\PSoC4/adc.c **** *
 380:Generated_Source\PSoC4/adc.c **** *  In a triggered mode, this routine triggers every conversion by
 381:Generated_Source\PSoC4/adc.c **** *  writing into the FW_TRIGGER bit in SAR_START_CTRL reg. In triggered mode,
 382:Generated_Source\PSoC4/adc.c **** *  every conversion has to start by this API.
 383:Generated_Source\PSoC4/adc.c **** *
 384:Generated_Source\PSoC4/adc.c **** * Parameters:
 385:Generated_Source\PSoC4/adc.c **** *  None.
 386:Generated_Source\PSoC4/adc.c **** *
 387:Generated_Source\PSoC4/adc.c **** * Return:
 388:Generated_Source\PSoC4/adc.c **** *  None.
 389:Generated_Source\PSoC4/adc.c **** *
 390:Generated_Source\PSoC4/adc.c **** *******************************************************************************/
 391:Generated_Source\PSoC4/adc.c **** void adc_StartConvert(void)
 392:Generated_Source\PSoC4/adc.c **** {
 490              		.loc 1 392 0
 491              		.cfi_startproc
 492              		@ args = 0, pretend = 0, frame = 0
 493              		@ frame_needed = 1, uses_anonymous_args = 0
 494 0000 80B5     		push	{r7, lr}
 495              		.cfi_def_cfa_offset 8
 496              		.cfi_offset 7, -8
 497              		.cfi_offset 14, -4
 498 0002 00AF     		add	r7, sp, #0
 499              		.cfi_def_cfa_register 7
 393:Generated_Source\PSoC4/adc.c ****     #if(adc_DEFAULT_SAMPLE_MODE_SEL == adc__FREERUNNING)
 394:Generated_Source\PSoC4/adc.c ****         adc_SAR_SAMPLE_CTRL_REG |= adc_CONTINUOUS_EN;
 500              		.loc 1 394 0
 501 0004 044B     		ldr	r3, .L28
 502 0006 044A     		ldr	r2, .L28
 503 0008 1268     		ldr	r2, [r2]
 504 000a 8021     		movs	r1, #128
 505 000c 4902     		lsls	r1, r1, #9
 506 000e 0A43     		orrs	r2, r1
 507 0010 1A60     		str	r2, [r3]
 395:Generated_Source\PSoC4/adc.c ****     #else /* Firmware trigger */
 396:Generated_Source\PSoC4/adc.c ****         adc_SAR_START_CTRL_REG = adc_FW_TRIGGER;
 397:Generated_Source\PSoC4/adc.c ****     #endif /* End adc_DEFAULT_SAMPLE_MODE == adc__FREERUNNING */
ARM GAS  C:\Users\Jacob\AppData\Local\Temp\cc0s3k17.s 			page 17


 398:Generated_Source\PSoC4/adc.c **** 
 399:Generated_Source\PSoC4/adc.c **** }
 508              		.loc 1 399 0
 509 0012 C046     		nop
 510 0014 BD46     		mov	sp, r7
 511              		@ sp needed
 512 0016 80BD     		pop	{r7, pc}
 513              	.L29:
 514              		.align	2
 515              	.L28:
 516 0018 04003A40 		.word	1077542916
 517              		.cfi_endproc
 518              	.LFE6:
 519              		.size	adc_StartConvert, .-adc_StartConvert
 520              		.section	.text.adc_StopConvert,"ax",%progbits
 521              		.align	2
 522              		.global	adc_StopConvert
 523              		.code	16
 524              		.thumb_func
 525              		.type	adc_StopConvert, %function
 526              	adc_StopConvert:
 527              	.LFB7:
 400:Generated_Source\PSoC4/adc.c **** 
 401:Generated_Source\PSoC4/adc.c **** 
 402:Generated_Source\PSoC4/adc.c **** /*******************************************************************************
 403:Generated_Source\PSoC4/adc.c **** * Function Name: adc_StopConvert
 404:Generated_Source\PSoC4/adc.c **** ********************************************************************************
 405:Generated_Source\PSoC4/adc.c **** *
 406:Generated_Source\PSoC4/adc.c **** * Summary:
 407:Generated_Source\PSoC4/adc.c **** *  Forces the ADC to stop all conversions.
 408:Generated_Source\PSoC4/adc.c **** *
 409:Generated_Source\PSoC4/adc.c **** * Parameters:
 410:Generated_Source\PSoC4/adc.c **** *  None.
 411:Generated_Source\PSoC4/adc.c **** *
 412:Generated_Source\PSoC4/adc.c **** * Return:
 413:Generated_Source\PSoC4/adc.c **** *  None.
 414:Generated_Source\PSoC4/adc.c **** *
 415:Generated_Source\PSoC4/adc.c **** *******************************************************************************/
 416:Generated_Source\PSoC4/adc.c **** void adc_StopConvert(void)
 417:Generated_Source\PSoC4/adc.c **** {
 528              		.loc 1 417 0
 529              		.cfi_startproc
 530              		@ args = 0, pretend = 0, frame = 0
 531              		@ frame_needed = 1, uses_anonymous_args = 0
 532 0000 80B5     		push	{r7, lr}
 533              		.cfi_def_cfa_offset 8
 534              		.cfi_offset 7, -8
 535              		.cfi_offset 14, -4
 536 0002 00AF     		add	r7, sp, #0
 537              		.cfi_def_cfa_register 7
 418:Generated_Source\PSoC4/adc.c ****     #if(adc_DEFAULT_SAMPLE_MODE_SEL == adc__FREERUNNING)
 419:Generated_Source\PSoC4/adc.c ****         adc_SAR_SAMPLE_CTRL_REG &= (uint32)(~adc_CONTINUOUS_EN);
 538              		.loc 1 419 0
 539 0004 044B     		ldr	r3, .L31
 540 0006 044A     		ldr	r2, .L31
 541 0008 1268     		ldr	r2, [r2]
 542 000a 0449     		ldr	r1, .L31+4
ARM GAS  C:\Users\Jacob\AppData\Local\Temp\cc0s3k17.s 			page 18


 543 000c 0A40     		ands	r2, r1
 544 000e 1A60     		str	r2, [r3]
 420:Generated_Source\PSoC4/adc.c ****     #endif /* adc_DEFAULT_SAMPLE_MODE == adc__FREERUNNING */
 421:Generated_Source\PSoC4/adc.c **** }
 545              		.loc 1 421 0
 546 0010 C046     		nop
 547 0012 BD46     		mov	sp, r7
 548              		@ sp needed
 549 0014 80BD     		pop	{r7, pc}
 550              	.L32:
 551 0016 C046     		.align	2
 552              	.L31:
 553 0018 04003A40 		.word	1077542916
 554 001c FFFFFEFF 		.word	-65537
 555              		.cfi_endproc
 556              	.LFE7:
 557              		.size	adc_StopConvert, .-adc_StopConvert
 558              		.section	.text.adc_IsEndConversion,"ax",%progbits
 559              		.align	2
 560              		.global	adc_IsEndConversion
 561              		.code	16
 562              		.thumb_func
 563              		.type	adc_IsEndConversion, %function
 564              	adc_IsEndConversion:
 565              	.LFB8:
 422:Generated_Source\PSoC4/adc.c **** 
 423:Generated_Source\PSoC4/adc.c **** 
 424:Generated_Source\PSoC4/adc.c **** /*******************************************************************************
 425:Generated_Source\PSoC4/adc.c **** * Function Name: adc_IsEndConversion
 426:Generated_Source\PSoC4/adc.c **** ********************************************************************************
 427:Generated_Source\PSoC4/adc.c **** *
 428:Generated_Source\PSoC4/adc.c **** * Summary:
 429:Generated_Source\PSoC4/adc.c **** *  Description: Checks for ADC end of conversion for the case one
 430:Generated_Source\PSoC4/adc.c **** *  channel and end of scan for the case of multiple channels. It acts
 431:Generated_Source\PSoC4/adc.c **** *  as a software version of the EOC. This function provides the
 432:Generated_Source\PSoC4/adc.c **** *  programmer with two options. In one mode this function
 433:Generated_Source\PSoC4/adc.c **** *  immediately returns with the conversion status. In the other mode,
 434:Generated_Source\PSoC4/adc.c **** *  the function does not return (blocking) until the conversion has
 435:Generated_Source\PSoC4/adc.c **** *  completed.
 436:Generated_Source\PSoC4/adc.c **** *
 437:Generated_Source\PSoC4/adc.c **** * Parameters:
 438:Generated_Source\PSoC4/adc.c **** *  ADC_RETURN_STATUS        -> Immediately returns conversion result status
 439:Generated_Source\PSoC4/adc.c **** *  ADC_WAIT_FOR_RESULT      -> Does not return until ADC complete
 440:Generated_Source\PSoC4/adc.c **** *  ADC_RETURN_STATUS_INJ    -> Immediately returns conversion result status
 441:Generated_Source\PSoC4/adc.c **** *                              for injection channel
 442:Generated_Source\PSoC4/adc.c **** *  ADC_WAIT_FOR_RESULT_INJ  -> Does not return until ADC completes injection
 443:Generated_Source\PSoC4/adc.c **** *                              channel conversion
 444:Generated_Source\PSoC4/adc.c **** *
 445:Generated_Source\PSoC4/adc.c **** * Return:
 446:Generated_Source\PSoC4/adc.c **** *  If a non-zero value is returned, the last conversion or scan has completed.
 447:Generated_Source\PSoC4/adc.c **** *  If the returned value is zero, the ADC is still in the process of a scan.
 448:Generated_Source\PSoC4/adc.c **** *
 449:Generated_Source\PSoC4/adc.c **** *******************************************************************************/
 450:Generated_Source\PSoC4/adc.c **** uint32 adc_IsEndConversion(uint32 retMode)
 451:Generated_Source\PSoC4/adc.c **** {
 566              		.loc 1 451 0
 567              		.cfi_startproc
ARM GAS  C:\Users\Jacob\AppData\Local\Temp\cc0s3k17.s 			page 19


 568              		@ args = 0, pretend = 0, frame = 16
 569              		@ frame_needed = 1, uses_anonymous_args = 0
 570 0000 80B5     		push	{r7, lr}
 571              		.cfi_def_cfa_offset 8
 572              		.cfi_offset 7, -8
 573              		.cfi_offset 14, -4
 574 0002 84B0     		sub	sp, sp, #16
 575              		.cfi_def_cfa_offset 24
 576 0004 00AF     		add	r7, sp, #0
 577              		.cfi_def_cfa_register 7
 578 0006 7860     		str	r0, [r7, #4]
 452:Generated_Source\PSoC4/adc.c ****     uint32 status = 0u;
 579              		.loc 1 452 0
 580 0008 0023     		movs	r3, #0
 581 000a FB60     		str	r3, [r7, #12]
 453:Generated_Source\PSoC4/adc.c **** 
 454:Generated_Source\PSoC4/adc.c ****     if((retMode & (adc_RETURN_STATUS | adc_WAIT_FOR_RESULT)) != 0u)
 582              		.loc 1 454 0
 583 000c 7B68     		ldr	r3, [r7, #4]
 584 000e 0322     		movs	r2, #3
 585 0010 1340     		ands	r3, r2
 586 0012 11D0     		beq	.L34
 587              	.L36:
 455:Generated_Source\PSoC4/adc.c ****     {
 456:Generated_Source\PSoC4/adc.c ****         do
 457:Generated_Source\PSoC4/adc.c ****         {
 458:Generated_Source\PSoC4/adc.c ****             status = adc_SAR_INTR_REG & adc_EOS_MASK;
 588              		.loc 1 458 0 discriminator 2
 589 0014 0B4B     		ldr	r3, .L38
 590 0016 1B68     		ldr	r3, [r3]
 591 0018 0122     		movs	r2, #1
 592 001a 1340     		ands	r3, r2
 593 001c FB60     		str	r3, [r7, #12]
 459:Generated_Source\PSoC4/adc.c ****         }while((status == 0u) && ((retMode & adc_WAIT_FOR_RESULT) != 0u));
 594              		.loc 1 459 0 discriminator 2
 595 001e FB68     		ldr	r3, [r7, #12]
 596 0020 002B     		cmp	r3, #0
 597 0022 03D1     		bne	.L35
 598              		.loc 1 459 0 is_stmt 0 discriminator 1
 599 0024 7B68     		ldr	r3, [r7, #4]
 600 0026 0222     		movs	r2, #2
 601 0028 1340     		ands	r3, r2
 602 002a F3D1     		bne	.L36
 603              	.L35:
 460:Generated_Source\PSoC4/adc.c **** 
 461:Generated_Source\PSoC4/adc.c ****         if(status != 0u)
 604              		.loc 1 461 0 is_stmt 1
 605 002c FB68     		ldr	r3, [r7, #12]
 606 002e 002B     		cmp	r3, #0
 607 0030 02D0     		beq	.L34
 462:Generated_Source\PSoC4/adc.c ****         {
 463:Generated_Source\PSoC4/adc.c ****             /* Clear EOS bit */
 464:Generated_Source\PSoC4/adc.c ****             adc_SAR_INTR_REG = adc_EOS_MASK;
 608              		.loc 1 464 0
 609 0032 044B     		ldr	r3, .L38
 610 0034 0122     		movs	r2, #1
 611 0036 1A60     		str	r2, [r3]
ARM GAS  C:\Users\Jacob\AppData\Local\Temp\cc0s3k17.s 			page 20


 612              	.L34:
 465:Generated_Source\PSoC4/adc.c ****         }
 466:Generated_Source\PSoC4/adc.c ****     }
 467:Generated_Source\PSoC4/adc.c **** 
 468:Generated_Source\PSoC4/adc.c ****     #if(adc_INJ_CHANNEL_ENABLED)
 469:Generated_Source\PSoC4/adc.c ****         if((retMode & (adc_RETURN_STATUS_INJ | adc_WAIT_FOR_RESULT_INJ)) != 0u)
 470:Generated_Source\PSoC4/adc.c ****         {
 471:Generated_Source\PSoC4/adc.c ****             do
 472:Generated_Source\PSoC4/adc.c ****             {
 473:Generated_Source\PSoC4/adc.c ****                 status |= adc_SAR_INTR_REG & adc_INJ_EOC_MASK;
 474:Generated_Source\PSoC4/adc.c ****             }while(((status & adc_INJ_EOC_MASK) == 0u) &&
 475:Generated_Source\PSoC4/adc.c ****                    ((retMode & adc_WAIT_FOR_RESULT_INJ) != 0u));
 476:Generated_Source\PSoC4/adc.c **** 
 477:Generated_Source\PSoC4/adc.c ****             if((status & adc_INJ_EOC_MASK) != 0u)
 478:Generated_Source\PSoC4/adc.c ****             {
 479:Generated_Source\PSoC4/adc.c ****                 /* Clear Injection EOS bit */
 480:Generated_Source\PSoC4/adc.c ****                 adc_SAR_INTR_REG = adc_INJ_EOC_MASK;
 481:Generated_Source\PSoC4/adc.c ****             }
 482:Generated_Source\PSoC4/adc.c ****         }
 483:Generated_Source\PSoC4/adc.c ****     #endif /* adc_INJ_CHANNEL_ENABLED */
 484:Generated_Source\PSoC4/adc.c **** 
 485:Generated_Source\PSoC4/adc.c ****     return (status);
 613              		.loc 1 485 0
 614 0038 FB68     		ldr	r3, [r7, #12]
 486:Generated_Source\PSoC4/adc.c **** }
 615              		.loc 1 486 0
 616 003a 1800     		movs	r0, r3
 617 003c BD46     		mov	sp, r7
 618 003e 04B0     		add	sp, sp, #16
 619              		@ sp needed
 620 0040 80BD     		pop	{r7, pc}
 621              	.L39:
 622 0042 C046     		.align	2
 623              	.L38:
 624 0044 10023A40 		.word	1077543440
 625              		.cfi_endproc
 626              	.LFE8:
 627              		.size	adc_IsEndConversion, .-adc_IsEndConversion
 628              		.section	.text.adc_GetResult16,"ax",%progbits
 629              		.align	2
 630              		.global	adc_GetResult16
 631              		.code	16
 632              		.thumb_func
 633              		.type	adc_GetResult16, %function
 634              	adc_GetResult16:
 635              	.LFB9:
 487:Generated_Source\PSoC4/adc.c **** 
 488:Generated_Source\PSoC4/adc.c **** 
 489:Generated_Source\PSoC4/adc.c **** /*******************************************************************************
 490:Generated_Source\PSoC4/adc.c **** * Function Name: adc_GetResult16
 491:Generated_Source\PSoC4/adc.c **** ********************************************************************************
 492:Generated_Source\PSoC4/adc.c **** *
 493:Generated_Source\PSoC4/adc.c **** * Summary:
 494:Generated_Source\PSoC4/adc.c **** *  Gets the data available in the SAR DATA register.
 495:Generated_Source\PSoC4/adc.c **** *
 496:Generated_Source\PSoC4/adc.c **** * Parameters:
 497:Generated_Source\PSoC4/adc.c **** *  chan: The ADC channel in which to return the result. The first channel
ARM GAS  C:\Users\Jacob\AppData\Local\Temp\cc0s3k17.s 			page 21


 498:Generated_Source\PSoC4/adc.c **** *  is 0 and the injection channel if enabled is the number of valid channels.
 499:Generated_Source\PSoC4/adc.c **** *
 500:Generated_Source\PSoC4/adc.c **** * Return:
 501:Generated_Source\PSoC4/adc.c **** *  Returns converted data as a signed 16-bit integer
 502:Generated_Source\PSoC4/adc.c **** *
 503:Generated_Source\PSoC4/adc.c **** *******************************************************************************/
 504:Generated_Source\PSoC4/adc.c **** int16 adc_GetResult16(uint32 chan)
 505:Generated_Source\PSoC4/adc.c **** {
 636              		.loc 1 505 0
 637              		.cfi_startproc
 638              		@ args = 0, pretend = 0, frame = 16
 639              		@ frame_needed = 1, uses_anonymous_args = 0
 640 0000 80B5     		push	{r7, lr}
 641              		.cfi_def_cfa_offset 8
 642              		.cfi_offset 7, -8
 643              		.cfi_offset 14, -4
 644 0002 84B0     		sub	sp, sp, #16
 645              		.cfi_def_cfa_offset 24
 646 0004 00AF     		add	r7, sp, #0
 647              		.cfi_def_cfa_register 7
 648 0006 7860     		str	r0, [r7, #4]
 506:Generated_Source\PSoC4/adc.c ****     uint32 result;
 507:Generated_Source\PSoC4/adc.c **** 
 508:Generated_Source\PSoC4/adc.c ****     /* Halt CPU in debug mode if channel is out of valid range */
 509:Generated_Source\PSoC4/adc.c ****     CYASSERT(chan < adc_TOTAL_CHANNELS_NUM);
 649              		.loc 1 509 0
 650 0008 7B68     		ldr	r3, [r7, #4]
 651 000a 012B     		cmp	r3, #1
 652 000c 02D9     		bls	.L41
 653              		.loc 1 509 0 is_stmt 0 discriminator 1
 654 000e 0020     		movs	r0, #0
 655 0010 FFF7FEFF 		bl	CyHalt
 656              	.L41:
 510:Generated_Source\PSoC4/adc.c **** 
 511:Generated_Source\PSoC4/adc.c ****     if(chan < adc_SEQUENCED_CHANNELS_NUM)
 657              		.loc 1 511 0 is_stmt 1
 658 0014 7B68     		ldr	r3, [r7, #4]
 659 0016 012B     		cmp	r3, #1
 660 0018 09D8     		bhi	.L42
 512:Generated_Source\PSoC4/adc.c ****     {
 513:Generated_Source\PSoC4/adc.c ****         result = CY_GET_REG32((reg32 *)(adc_SAR_CHAN_RESULT_IND + (uint32)(chan << 2u))) &
 661              		.loc 1 513 0
 662 001a 7B68     		ldr	r3, [r7, #4]
 663 001c 9B00     		lsls	r3, r3, #2
 664 001e 084A     		ldr	r2, .L45
 665 0020 9446     		mov	ip, r2
 666 0022 6344     		add	r3, r3, ip
 667 0024 1B68     		ldr	r3, [r3]
 668 0026 1B04     		lsls	r3, r3, #16
 669 0028 1B0C     		lsrs	r3, r3, #16
 670 002a FB60     		str	r3, [r7, #12]
 671 002c 01E0     		b	.L43
 672              	.L42:
 514:Generated_Source\PSoC4/adc.c ****                 adc_RESULT_MASK;
 515:Generated_Source\PSoC4/adc.c ****     }
 516:Generated_Source\PSoC4/adc.c ****     else
 517:Generated_Source\PSoC4/adc.c ****     {
ARM GAS  C:\Users\Jacob\AppData\Local\Temp\cc0s3k17.s 			page 22


 518:Generated_Source\PSoC4/adc.c ****         #if(adc_INJ_CHANNEL_ENABLED)
 519:Generated_Source\PSoC4/adc.c ****             result = adc_SAR_INJ_RESULT_REG & adc_RESULT_MASK;
 520:Generated_Source\PSoC4/adc.c ****         #else
 521:Generated_Source\PSoC4/adc.c ****             result = 0u;
 673              		.loc 1 521 0
 674 002e 0023     		movs	r3, #0
 675 0030 FB60     		str	r3, [r7, #12]
 676              	.L43:
 522:Generated_Source\PSoC4/adc.c ****         #endif /* adc_INJ_CHANNEL_ENABLED */
 523:Generated_Source\PSoC4/adc.c ****     }
 524:Generated_Source\PSoC4/adc.c **** 
 525:Generated_Source\PSoC4/adc.c ****     return ( (int16)result );
 677              		.loc 1 525 0
 678 0032 FB68     		ldr	r3, [r7, #12]
 679 0034 1BB2     		sxth	r3, r3
 526:Generated_Source\PSoC4/adc.c **** }
 680              		.loc 1 526 0
 681 0036 1800     		movs	r0, r3
 682 0038 BD46     		mov	sp, r7
 683 003a 04B0     		add	sp, sp, #16
 684              		@ sp needed
 685 003c 80BD     		pop	{r7, pc}
 686              	.L46:
 687 003e C046     		.align	2
 688              	.L45:
 689 0040 80013A40 		.word	1077543296
 690              		.cfi_endproc
 691              	.LFE9:
 692              		.size	adc_GetResult16, .-adc_GetResult16
 693              		.section	.text.adc_SetChanMask,"ax",%progbits
 694              		.align	2
 695              		.global	adc_SetChanMask
 696              		.code	16
 697              		.thumb_func
 698              		.type	adc_SetChanMask, %function
 699              	adc_SetChanMask:
 700              	.LFB10:
 527:Generated_Source\PSoC4/adc.c **** 
 528:Generated_Source\PSoC4/adc.c **** 
 529:Generated_Source\PSoC4/adc.c **** /*******************************************************************************
 530:Generated_Source\PSoC4/adc.c **** * Function Name: adc_SetChanMask
 531:Generated_Source\PSoC4/adc.c **** ********************************************************************************
 532:Generated_Source\PSoC4/adc.c **** *
 533:Generated_Source\PSoC4/adc.c **** * Summary:
 534:Generated_Source\PSoC4/adc.c **** *  Sets the channel enable mask.
 535:Generated_Source\PSoC4/adc.c **** *
 536:Generated_Source\PSoC4/adc.c **** * Parameters:
 537:Generated_Source\PSoC4/adc.c **** *  mask: Sets which channels that will be
 538:Generated_Source\PSoC4/adc.c **** *  scanned. Setting bits for channels that do not exist will have no
 539:Generated_Source\PSoC4/adc.c **** *  effect. For example, if only 6 channels were enabled, setting a
 540:Generated_Source\PSoC4/adc.c **** *  mask of 0x0103 would only enable the last two channels (0 and 1).
 541:Generated_Source\PSoC4/adc.c **** *  This API will not enable the injection channel.
 542:Generated_Source\PSoC4/adc.c **** *  Examples: If the component is setup to sequence through 8
 543:Generated_Source\PSoC4/adc.c **** *  channels, a mask of 0x000F would enable channels 0, 1, 2, and 3.
 544:Generated_Source\PSoC4/adc.c **** *
 545:Generated_Source\PSoC4/adc.c **** * Return:
 546:Generated_Source\PSoC4/adc.c **** *  None.
ARM GAS  C:\Users\Jacob\AppData\Local\Temp\cc0s3k17.s 			page 23


 547:Generated_Source\PSoC4/adc.c **** *
 548:Generated_Source\PSoC4/adc.c **** *******************************************************************************/
 549:Generated_Source\PSoC4/adc.c **** void adc_SetChanMask(uint32 mask)
 550:Generated_Source\PSoC4/adc.c **** {
 701              		.loc 1 550 0
 702              		.cfi_startproc
 703              		@ args = 0, pretend = 0, frame = 8
 704              		@ frame_needed = 1, uses_anonymous_args = 0
 705 0000 80B5     		push	{r7, lr}
 706              		.cfi_def_cfa_offset 8
 707              		.cfi_offset 7, -8
 708              		.cfi_offset 14, -4
 709 0002 82B0     		sub	sp, sp, #8
 710              		.cfi_def_cfa_offset 16
 711 0004 00AF     		add	r7, sp, #0
 712              		.cfi_def_cfa_register 7
 713 0006 7860     		str	r0, [r7, #4]
 551:Generated_Source\PSoC4/adc.c ****     adc_SAR_CHAN_EN_REG = mask & adc_MAX_CHANNELS_EN_MASK;
 714              		.loc 1 551 0
 715 0008 044B     		ldr	r3, .L48
 716 000a 7A68     		ldr	r2, [r7, #4]
 717 000c 0321     		movs	r1, #3
 718 000e 0A40     		ands	r2, r1
 719 0010 1A60     		str	r2, [r3]
 552:Generated_Source\PSoC4/adc.c **** }
 720              		.loc 1 552 0
 721 0012 C046     		nop
 722 0014 BD46     		mov	sp, r7
 723 0016 02B0     		add	sp, sp, #8
 724              		@ sp needed
 725 0018 80BD     		pop	{r7, pc}
 726              	.L49:
 727 001a C046     		.align	2
 728              	.L48:
 729 001c 20003A40 		.word	1077542944
 730              		.cfi_endproc
 731              	.LFE10:
 732              		.size	adc_SetChanMask, .-adc_SetChanMask
 733              		.section	.text.adc_SetLowLimit,"ax",%progbits
 734              		.align	2
 735              		.global	adc_SetLowLimit
 736              		.code	16
 737              		.thumb_func
 738              		.type	adc_SetLowLimit, %function
 739              	adc_SetLowLimit:
 740              	.LFB11:
 553:Generated_Source\PSoC4/adc.c **** 
 554:Generated_Source\PSoC4/adc.c **** #if(adc_INJ_CHANNEL_ENABLED)
 555:Generated_Source\PSoC4/adc.c **** 
 556:Generated_Source\PSoC4/adc.c **** 
 557:Generated_Source\PSoC4/adc.c ****     /*******************************************************************************
 558:Generated_Source\PSoC4/adc.c ****     * Function Name: adc_EnableInjection
 559:Generated_Source\PSoC4/adc.c ****     ********************************************************************************
 560:Generated_Source\PSoC4/adc.c ****     *
 561:Generated_Source\PSoC4/adc.c ****     * Summary:
 562:Generated_Source\PSoC4/adc.c ****     *  Enables the injection channel for the next scan only.
 563:Generated_Source\PSoC4/adc.c ****     *
ARM GAS  C:\Users\Jacob\AppData\Local\Temp\cc0s3k17.s 			page 24


 564:Generated_Source\PSoC4/adc.c ****     * Parameters:
 565:Generated_Source\PSoC4/adc.c ****     *  None.
 566:Generated_Source\PSoC4/adc.c ****     *
 567:Generated_Source\PSoC4/adc.c ****     * Return:
 568:Generated_Source\PSoC4/adc.c ****     *  None.
 569:Generated_Source\PSoC4/adc.c ****     *
 570:Generated_Source\PSoC4/adc.c ****     *******************************************************************************/
 571:Generated_Source\PSoC4/adc.c ****     void adc_EnableInjection(void)
 572:Generated_Source\PSoC4/adc.c ****     {
 573:Generated_Source\PSoC4/adc.c ****         adc_SAR_INJ_CHAN_CONFIG_REG |= adc_INJ_CHAN_EN;
 574:Generated_Source\PSoC4/adc.c ****     }
 575:Generated_Source\PSoC4/adc.c **** 
 576:Generated_Source\PSoC4/adc.c **** #endif /* adc_INJ_CHANNEL_ENABLED */
 577:Generated_Source\PSoC4/adc.c **** 
 578:Generated_Source\PSoC4/adc.c **** 
 579:Generated_Source\PSoC4/adc.c **** /*******************************************************************************
 580:Generated_Source\PSoC4/adc.c **** * Function Name: adc_SetLowLimit
 581:Generated_Source\PSoC4/adc.c **** ********************************************************************************
 582:Generated_Source\PSoC4/adc.c **** *
 583:Generated_Source\PSoC4/adc.c **** * Summary:
 584:Generated_Source\PSoC4/adc.c **** *  Sets the low limit parameter for a limit condition.
 585:Generated_Source\PSoC4/adc.c **** *
 586:Generated_Source\PSoC4/adc.c **** * Parameters:
 587:Generated_Source\PSoC4/adc.c **** *  lowLimit: The low limit for a limit condition.
 588:Generated_Source\PSoC4/adc.c **** *
 589:Generated_Source\PSoC4/adc.c **** * Return:
 590:Generated_Source\PSoC4/adc.c **** *  None.
 591:Generated_Source\PSoC4/adc.c **** *
 592:Generated_Source\PSoC4/adc.c **** *******************************************************************************/
 593:Generated_Source\PSoC4/adc.c **** void adc_SetLowLimit(uint32 lowLimit)
 594:Generated_Source\PSoC4/adc.c **** {
 741              		.loc 1 594 0
 742              		.cfi_startproc
 743              		@ args = 0, pretend = 0, frame = 8
 744              		@ frame_needed = 1, uses_anonymous_args = 0
 745 0000 80B5     		push	{r7, lr}
 746              		.cfi_def_cfa_offset 8
 747              		.cfi_offset 7, -8
 748              		.cfi_offset 14, -4
 749 0002 82B0     		sub	sp, sp, #8
 750              		.cfi_def_cfa_offset 16
 751 0004 00AF     		add	r7, sp, #0
 752              		.cfi_def_cfa_register 7
 753 0006 7860     		str	r0, [r7, #4]
 595:Generated_Source\PSoC4/adc.c ****     adc_SAR_RANGE_THRES_REG &= (uint32)(~adc_RANGE_LOW_MASK);
 754              		.loc 1 595 0
 755 0008 084B     		ldr	r3, .L51
 756 000a 084A     		ldr	r2, .L51
 757 000c 1268     		ldr	r2, [r2]
 758 000e 120C     		lsrs	r2, r2, #16
 759 0010 1204     		lsls	r2, r2, #16
 760 0012 1A60     		str	r2, [r3]
 596:Generated_Source\PSoC4/adc.c ****     adc_SAR_RANGE_THRES_REG |= lowLimit & adc_RANGE_LOW_MASK;
 761              		.loc 1 596 0
 762 0014 054B     		ldr	r3, .L51
 763 0016 054A     		ldr	r2, .L51
 764 0018 1168     		ldr	r1, [r2]
ARM GAS  C:\Users\Jacob\AppData\Local\Temp\cc0s3k17.s 			page 25


 765 001a 7A68     		ldr	r2, [r7, #4]
 766 001c 1204     		lsls	r2, r2, #16
 767 001e 120C     		lsrs	r2, r2, #16
 768 0020 0A43     		orrs	r2, r1
 769 0022 1A60     		str	r2, [r3]
 597:Generated_Source\PSoC4/adc.c **** }
 770              		.loc 1 597 0
 771 0024 C046     		nop
 772 0026 BD46     		mov	sp, r7
 773 0028 02B0     		add	sp, sp, #8
 774              		@ sp needed
 775 002a 80BD     		pop	{r7, pc}
 776              	.L52:
 777              		.align	2
 778              	.L51:
 779 002c 18003A40 		.word	1077542936
 780              		.cfi_endproc
 781              	.LFE11:
 782              		.size	adc_SetLowLimit, .-adc_SetLowLimit
 783              		.section	.text.adc_SetHighLimit,"ax",%progbits
 784              		.align	2
 785              		.global	adc_SetHighLimit
 786              		.code	16
 787              		.thumb_func
 788              		.type	adc_SetHighLimit, %function
 789              	adc_SetHighLimit:
 790              	.LFB12:
 598:Generated_Source\PSoC4/adc.c **** 
 599:Generated_Source\PSoC4/adc.c **** 
 600:Generated_Source\PSoC4/adc.c **** /*******************************************************************************
 601:Generated_Source\PSoC4/adc.c **** * Function Name: adc_SetHighLimit
 602:Generated_Source\PSoC4/adc.c **** ********************************************************************************
 603:Generated_Source\PSoC4/adc.c **** *
 604:Generated_Source\PSoC4/adc.c **** * Summary:
 605:Generated_Source\PSoC4/adc.c **** *  Sets the low limit parameter for a limit condition.
 606:Generated_Source\PSoC4/adc.c **** *
 607:Generated_Source\PSoC4/adc.c **** * Parameters:
 608:Generated_Source\PSoC4/adc.c **** *  highLimit: The high limit for a limit condition.
 609:Generated_Source\PSoC4/adc.c **** *
 610:Generated_Source\PSoC4/adc.c **** * Return:
 611:Generated_Source\PSoC4/adc.c **** *  None.
 612:Generated_Source\PSoC4/adc.c **** *
 613:Generated_Source\PSoC4/adc.c **** *******************************************************************************/
 614:Generated_Source\PSoC4/adc.c **** void adc_SetHighLimit(uint32 highLimit)
 615:Generated_Source\PSoC4/adc.c **** {
 791              		.loc 1 615 0
 792              		.cfi_startproc
 793              		@ args = 0, pretend = 0, frame = 8
 794              		@ frame_needed = 1, uses_anonymous_args = 0
 795 0000 80B5     		push	{r7, lr}
 796              		.cfi_def_cfa_offset 8
 797              		.cfi_offset 7, -8
 798              		.cfi_offset 14, -4
 799 0002 82B0     		sub	sp, sp, #8
 800              		.cfi_def_cfa_offset 16
 801 0004 00AF     		add	r7, sp, #0
 802              		.cfi_def_cfa_register 7
ARM GAS  C:\Users\Jacob\AppData\Local\Temp\cc0s3k17.s 			page 26


 803 0006 7860     		str	r0, [r7, #4]
 616:Generated_Source\PSoC4/adc.c ****     adc_SAR_RANGE_THRES_REG &= (uint32)(~adc_RANGE_HIGH_MASK);
 804              		.loc 1 616 0
 805 0008 084B     		ldr	r3, .L54
 806 000a 084A     		ldr	r2, .L54
 807 000c 1268     		ldr	r2, [r2]
 808 000e 1204     		lsls	r2, r2, #16
 809 0010 120C     		lsrs	r2, r2, #16
 810 0012 1A60     		str	r2, [r3]
 617:Generated_Source\PSoC4/adc.c ****     adc_SAR_RANGE_THRES_REG |= (uint32)(highLimit << adc_RANGE_HIGH_OFFSET);
 811              		.loc 1 617 0
 812 0014 054B     		ldr	r3, .L54
 813 0016 054A     		ldr	r2, .L54
 814 0018 1168     		ldr	r1, [r2]
 815 001a 7A68     		ldr	r2, [r7, #4]
 816 001c 1204     		lsls	r2, r2, #16
 817 001e 0A43     		orrs	r2, r1
 818 0020 1A60     		str	r2, [r3]
 618:Generated_Source\PSoC4/adc.c **** }
 819              		.loc 1 618 0
 820 0022 C046     		nop
 821 0024 BD46     		mov	sp, r7
 822 0026 02B0     		add	sp, sp, #8
 823              		@ sp needed
 824 0028 80BD     		pop	{r7, pc}
 825              	.L55:
 826 002a C046     		.align	2
 827              	.L54:
 828 002c 18003A40 		.word	1077542936
 829              		.cfi_endproc
 830              	.LFE12:
 831              		.size	adc_SetHighLimit, .-adc_SetHighLimit
 832              		.section	.text.adc_SetLimitMask,"ax",%progbits
 833              		.align	2
 834              		.global	adc_SetLimitMask
 835              		.code	16
 836              		.thumb_func
 837              		.type	adc_SetLimitMask, %function
 838              	adc_SetLimitMask:
 839              	.LFB13:
 619:Generated_Source\PSoC4/adc.c **** 
 620:Generated_Source\PSoC4/adc.c **** 
 621:Generated_Source\PSoC4/adc.c **** /*******************************************************************************
 622:Generated_Source\PSoC4/adc.c **** * Function Name: adc_SetLimitMask
 623:Generated_Source\PSoC4/adc.c **** ********************************************************************************
 624:Generated_Source\PSoC4/adc.c **** *
 625:Generated_Source\PSoC4/adc.c **** * Summary:
 626:Generated_Source\PSoC4/adc.c **** *  Sets the channel limit condition mask.
 627:Generated_Source\PSoC4/adc.c **** *
 628:Generated_Source\PSoC4/adc.c **** * Parameters:
 629:Generated_Source\PSoC4/adc.c **** *  mask: Sets which channels that may cause a
 630:Generated_Source\PSoC4/adc.c **** *  limit condition interrupt. Setting bits for channels that do not exist
 631:Generated_Source\PSoC4/adc.c **** *  will have no effect. For example, if only 6 channels were enabled,
 632:Generated_Source\PSoC4/adc.c **** *  setting a mask of 0x0103 would only enable the last two channels (0 and 1).
 633:Generated_Source\PSoC4/adc.c **** *
 634:Generated_Source\PSoC4/adc.c **** * Return:
 635:Generated_Source\PSoC4/adc.c **** *  None.
ARM GAS  C:\Users\Jacob\AppData\Local\Temp\cc0s3k17.s 			page 27


 636:Generated_Source\PSoC4/adc.c **** *
 637:Generated_Source\PSoC4/adc.c **** *******************************************************************************/
 638:Generated_Source\PSoC4/adc.c **** void adc_SetLimitMask(uint32 mask)
 639:Generated_Source\PSoC4/adc.c **** {
 840              		.loc 1 639 0
 841              		.cfi_startproc
 842              		@ args = 0, pretend = 0, frame = 8
 843              		@ frame_needed = 1, uses_anonymous_args = 0
 844 0000 80B5     		push	{r7, lr}
 845              		.cfi_def_cfa_offset 8
 846              		.cfi_offset 7, -8
 847              		.cfi_offset 14, -4
 848 0002 82B0     		sub	sp, sp, #8
 849              		.cfi_def_cfa_offset 16
 850 0004 00AF     		add	r7, sp, #0
 851              		.cfi_def_cfa_register 7
 852 0006 7860     		str	r0, [r7, #4]
 640:Generated_Source\PSoC4/adc.c ****     adc_SAR_RANGE_INTR_MASK_REG = mask & adc_MAX_CHANNELS_EN_MASK;
 853              		.loc 1 640 0
 854 0008 044B     		ldr	r3, .L57
 855 000a 7A68     		ldr	r2, [r7, #4]
 856 000c 0321     		movs	r1, #3
 857 000e 0A40     		ands	r2, r1
 858 0010 1A60     		str	r2, [r3]
 641:Generated_Source\PSoC4/adc.c **** }
 859              		.loc 1 641 0
 860 0012 C046     		nop
 861 0014 BD46     		mov	sp, r7
 862 0016 02B0     		add	sp, sp, #8
 863              		@ sp needed
 864 0018 80BD     		pop	{r7, pc}
 865              	.L58:
 866 001a C046     		.align	2
 867              	.L57:
 868 001c 38023A40 		.word	1077543480
 869              		.cfi_endproc
 870              	.LFE13:
 871              		.size	adc_SetLimitMask, .-adc_SetLimitMask
 872              		.section	.text.adc_SetSatMask,"ax",%progbits
 873              		.align	2
 874              		.global	adc_SetSatMask
 875              		.code	16
 876              		.thumb_func
 877              		.type	adc_SetSatMask, %function
 878              	adc_SetSatMask:
 879              	.LFB14:
 642:Generated_Source\PSoC4/adc.c **** 
 643:Generated_Source\PSoC4/adc.c **** 
 644:Generated_Source\PSoC4/adc.c **** /*******************************************************************************
 645:Generated_Source\PSoC4/adc.c **** * Function Name: adc_SetSatMask
 646:Generated_Source\PSoC4/adc.c **** ********************************************************************************
 647:Generated_Source\PSoC4/adc.c **** *
 648:Generated_Source\PSoC4/adc.c **** * Summary:
 649:Generated_Source\PSoC4/adc.c **** *  Sets the channel saturation event mask.
 650:Generated_Source\PSoC4/adc.c **** *
 651:Generated_Source\PSoC4/adc.c **** * Parameters:
 652:Generated_Source\PSoC4/adc.c **** *  mask: Sets which channels that may cause a
ARM GAS  C:\Users\Jacob\AppData\Local\Temp\cc0s3k17.s 			page 28


 653:Generated_Source\PSoC4/adc.c **** *  saturation event interrupt. Setting bits for channels that do not exist
 654:Generated_Source\PSoC4/adc.c **** *  will have no effect. For example, if only 8 channels were enabled,
 655:Generated_Source\PSoC4/adc.c **** *  setting a mask of 0x01C0 would only enable two channels (6 and 7).
 656:Generated_Source\PSoC4/adc.c **** *
 657:Generated_Source\PSoC4/adc.c **** * Return:
 658:Generated_Source\PSoC4/adc.c **** *  None.
 659:Generated_Source\PSoC4/adc.c **** *
 660:Generated_Source\PSoC4/adc.c **** *******************************************************************************/
 661:Generated_Source\PSoC4/adc.c **** void adc_SetSatMask(uint32 mask)
 662:Generated_Source\PSoC4/adc.c **** {
 880              		.loc 1 662 0
 881              		.cfi_startproc
 882              		@ args = 0, pretend = 0, frame = 8
 883              		@ frame_needed = 1, uses_anonymous_args = 0
 884 0000 80B5     		push	{r7, lr}
 885              		.cfi_def_cfa_offset 8
 886              		.cfi_offset 7, -8
 887              		.cfi_offset 14, -4
 888 0002 82B0     		sub	sp, sp, #8
 889              		.cfi_def_cfa_offset 16
 890 0004 00AF     		add	r7, sp, #0
 891              		.cfi_def_cfa_register 7
 892 0006 7860     		str	r0, [r7, #4]
 663:Generated_Source\PSoC4/adc.c ****     adc_SAR_SATURATE_INTR_MASK_REG = mask & adc_MAX_CHANNELS_EN_MASK;
 893              		.loc 1 663 0
 894 0008 044B     		ldr	r3, .L60
 895 000a 7A68     		ldr	r2, [r7, #4]
 896 000c 0321     		movs	r1, #3
 897 000e 0A40     		ands	r2, r1
 898 0010 1A60     		str	r2, [r3]
 664:Generated_Source\PSoC4/adc.c **** }
 899              		.loc 1 664 0
 900 0012 C046     		nop
 901 0014 BD46     		mov	sp, r7
 902 0016 02B0     		add	sp, sp, #8
 903              		@ sp needed
 904 0018 80BD     		pop	{r7, pc}
 905              	.L61:
 906 001a C046     		.align	2
 907              	.L60:
 908 001c 28023A40 		.word	1077543464
 909              		.cfi_endproc
 910              	.LFE14:
 911              		.size	adc_SetSatMask, .-adc_SetSatMask
 912              		.section	.text.adc_SetOffset,"ax",%progbits
 913              		.align	2
 914              		.global	adc_SetOffset
 915              		.code	16
 916              		.thumb_func
 917              		.type	adc_SetOffset, %function
 918              	adc_SetOffset:
 919              	.LFB15:
 665:Generated_Source\PSoC4/adc.c **** 
 666:Generated_Source\PSoC4/adc.c **** 
 667:Generated_Source\PSoC4/adc.c **** /*******************************************************************************
 668:Generated_Source\PSoC4/adc.c **** * Function Name: adc_SetOffset
 669:Generated_Source\PSoC4/adc.c **** ********************************************************************************
ARM GAS  C:\Users\Jacob\AppData\Local\Temp\cc0s3k17.s 			page 29


 670:Generated_Source\PSoC4/adc.c **** *
 671:Generated_Source\PSoC4/adc.c **** * Summary:
 672:Generated_Source\PSoC4/adc.c **** *   Description: Sets the ADC offset which is used by the functions
 673:Generated_Source\PSoC4/adc.c **** *   ADC_CountsTo_uVolts, ADC_CountsTo_mVolts and ADC_CountsTo_Volts
 674:Generated_Source\PSoC4/adc.c **** *   to substract the offset from the given reading
 675:Generated_Source\PSoC4/adc.c **** *   before calculating the voltage conversion.
 676:Generated_Source\PSoC4/adc.c **** *
 677:Generated_Source\PSoC4/adc.c **** * Parameters:
 678:Generated_Source\PSoC4/adc.c **** *  chan: ADC channel number.
 679:Generated_Source\PSoC4/adc.c **** *  offset: This value is a measured value when the
 680:Generated_Source\PSoC4/adc.c **** *          inputs are shorted or connected to the same input voltage.
 681:Generated_Source\PSoC4/adc.c **** *
 682:Generated_Source\PSoC4/adc.c **** * Return:
 683:Generated_Source\PSoC4/adc.c **** *  None.
 684:Generated_Source\PSoC4/adc.c **** *
 685:Generated_Source\PSoC4/adc.c **** * Global variables:
 686:Generated_Source\PSoC4/adc.c **** *  adc_Offset:  Modified to set the user provided offset.
 687:Generated_Source\PSoC4/adc.c **** *
 688:Generated_Source\PSoC4/adc.c **** *******************************************************************************/
 689:Generated_Source\PSoC4/adc.c **** void adc_SetOffset(uint32 chan, int16 offset)
 690:Generated_Source\PSoC4/adc.c **** {
 920              		.loc 1 690 0
 921              		.cfi_startproc
 922              		@ args = 0, pretend = 0, frame = 8
 923              		@ frame_needed = 1, uses_anonymous_args = 0
 924 0000 80B5     		push	{r7, lr}
 925              		.cfi_def_cfa_offset 8
 926              		.cfi_offset 7, -8
 927              		.cfi_offset 14, -4
 928 0002 82B0     		sub	sp, sp, #8
 929              		.cfi_def_cfa_offset 16
 930 0004 00AF     		add	r7, sp, #0
 931              		.cfi_def_cfa_register 7
 932 0006 7860     		str	r0, [r7, #4]
 933 0008 0A00     		movs	r2, r1
 934 000a BB1C     		adds	r3, r7, #2
 935 000c 1A80     		strh	r2, [r3]
 691:Generated_Source\PSoC4/adc.c ****     /* Halt CPU in debug mode if channel is out of valid range */
 692:Generated_Source\PSoC4/adc.c ****     CYASSERT(chan < adc_TOTAL_CHANNELS_NUM);
 936              		.loc 1 692 0
 937 000e 7B68     		ldr	r3, [r7, #4]
 938 0010 012B     		cmp	r3, #1
 939 0012 02D9     		bls	.L63
 940              		.loc 1 692 0 is_stmt 0 discriminator 1
 941 0014 0020     		movs	r0, #0
 942 0016 FFF7FEFF 		bl	CyHalt
 943              	.L63:
 693:Generated_Source\PSoC4/adc.c **** 
 694:Generated_Source\PSoC4/adc.c ****     adc_offset[chan] = offset;
 944              		.loc 1 694 0 is_stmt 1
 945 001a 054B     		ldr	r3, .L64
 946 001c 7A68     		ldr	r2, [r7, #4]
 947 001e 5200     		lsls	r2, r2, #1
 948 0020 B91C     		adds	r1, r7, #2
 949 0022 0988     		ldrh	r1, [r1]
 950 0024 D152     		strh	r1, [r2, r3]
 695:Generated_Source\PSoC4/adc.c **** }
ARM GAS  C:\Users\Jacob\AppData\Local\Temp\cc0s3k17.s 			page 30


 951              		.loc 1 695 0
 952 0026 C046     		nop
 953 0028 BD46     		mov	sp, r7
 954 002a 02B0     		add	sp, sp, #8
 955              		@ sp needed
 956 002c 80BD     		pop	{r7, pc}
 957              	.L65:
 958 002e C046     		.align	2
 959              	.L64:
 960 0030 00000000 		.word	adc_offset
 961              		.cfi_endproc
 962              	.LFE15:
 963              		.size	adc_SetOffset, .-adc_SetOffset
 964              		.section	.text.adc_SetGain,"ax",%progbits
 965              		.align	2
 966              		.global	adc_SetGain
 967              		.code	16
 968              		.thumb_func
 969              		.type	adc_SetGain, %function
 970              	adc_SetGain:
 971              	.LFB16:
 696:Generated_Source\PSoC4/adc.c **** 
 697:Generated_Source\PSoC4/adc.c **** 
 698:Generated_Source\PSoC4/adc.c **** /*******************************************************************************
 699:Generated_Source\PSoC4/adc.c **** * Function Name: adc_SetGain
 700:Generated_Source\PSoC4/adc.c **** ********************************************************************************
 701:Generated_Source\PSoC4/adc.c **** *
 702:Generated_Source\PSoC4/adc.c **** * Summary:
 703:Generated_Source\PSoC4/adc.c **** *  Description: Sets the ADC gain in counts per 10 volt for the voltage
 704:Generated_Source\PSoC4/adc.c **** *  conversion functions below. This value is set by default by the
 705:Generated_Source\PSoC4/adc.c **** *  reference and input range settings. It should only be used to further
 706:Generated_Source\PSoC4/adc.c **** *  calibrate the ADC with a known input or if an external reference is
 707:Generated_Source\PSoC4/adc.c **** *  used. Affects the ADC_CountsTo_uVolts, ADC_CountsTo_mVolts
 708:Generated_Source\PSoC4/adc.c **** *  and ADC_CountsTo_Volts functions by supplying the correct
 709:Generated_Source\PSoC4/adc.c **** *  conversion between ADC counts and voltage.
 710:Generated_Source\PSoC4/adc.c **** *
 711:Generated_Source\PSoC4/adc.c **** * Parameters:
 712:Generated_Source\PSoC4/adc.c **** *  chan: ADC channel number.
 713:Generated_Source\PSoC4/adc.c **** *  adcGain: ADC gain in counts per 10 volts.
 714:Generated_Source\PSoC4/adc.c **** *
 715:Generated_Source\PSoC4/adc.c **** * Return:
 716:Generated_Source\PSoC4/adc.c **** *  None.
 717:Generated_Source\PSoC4/adc.c **** *
 718:Generated_Source\PSoC4/adc.c **** * Global variables:
 719:Generated_Source\PSoC4/adc.c **** *  adc_CountsPer10Volt:  modified to set the ADC gain in counts
 720:Generated_Source\PSoC4/adc.c **** *   per 10 volt.
 721:Generated_Source\PSoC4/adc.c **** *
 722:Generated_Source\PSoC4/adc.c **** *******************************************************************************/
 723:Generated_Source\PSoC4/adc.c **** void adc_SetGain(uint32 chan, int32 adcGain)
 724:Generated_Source\PSoC4/adc.c **** {
 972              		.loc 1 724 0
 973              		.cfi_startproc
 974              		@ args = 0, pretend = 0, frame = 8
 975              		@ frame_needed = 1, uses_anonymous_args = 0
 976 0000 80B5     		push	{r7, lr}
 977              		.cfi_def_cfa_offset 8
 978              		.cfi_offset 7, -8
ARM GAS  C:\Users\Jacob\AppData\Local\Temp\cc0s3k17.s 			page 31


 979              		.cfi_offset 14, -4
 980 0002 82B0     		sub	sp, sp, #8
 981              		.cfi_def_cfa_offset 16
 982 0004 00AF     		add	r7, sp, #0
 983              		.cfi_def_cfa_register 7
 984 0006 7860     		str	r0, [r7, #4]
 985 0008 3960     		str	r1, [r7]
 725:Generated_Source\PSoC4/adc.c ****     /* Halt CPU in debug mode if channel is out of valid range */
 726:Generated_Source\PSoC4/adc.c ****     CYASSERT(chan < adc_TOTAL_CHANNELS_NUM);
 986              		.loc 1 726 0
 987 000a 7B68     		ldr	r3, [r7, #4]
 988 000c 012B     		cmp	r3, #1
 989 000e 02D9     		bls	.L67
 990              		.loc 1 726 0 is_stmt 0 discriminator 1
 991 0010 0020     		movs	r0, #0
 992 0012 FFF7FEFF 		bl	CyHalt
 993              	.L67:
 727:Generated_Source\PSoC4/adc.c **** 
 728:Generated_Source\PSoC4/adc.c ****     adc_countsPer10Volt[chan] = adcGain;
 994              		.loc 1 728 0 is_stmt 1
 995 0016 044B     		ldr	r3, .L68
 996 0018 7A68     		ldr	r2, [r7, #4]
 997 001a 9200     		lsls	r2, r2, #2
 998 001c 3968     		ldr	r1, [r7]
 999 001e D150     		str	r1, [r2, r3]
 729:Generated_Source\PSoC4/adc.c **** }
 1000              		.loc 1 729 0
 1001 0020 C046     		nop
 1002 0022 BD46     		mov	sp, r7
 1003 0024 02B0     		add	sp, sp, #8
 1004              		@ sp needed
 1005 0026 80BD     		pop	{r7, pc}
 1006              	.L69:
 1007              		.align	2
 1008              	.L68:
 1009 0028 00000000 		.word	adc_countsPer10Volt
 1010              		.cfi_endproc
 1011              	.LFE16:
 1012              		.size	adc_SetGain, .-adc_SetGain
 1013              		.section	.text.adc_CountsTo_mVolts,"ax",%progbits
 1014              		.align	2
 1015              		.global	adc_CountsTo_mVolts
 1016              		.code	16
 1017              		.thumb_func
 1018              		.type	adc_CountsTo_mVolts, %function
 1019              	adc_CountsTo_mVolts:
 1020              	.LFB17:
 730:Generated_Source\PSoC4/adc.c **** 
 731:Generated_Source\PSoC4/adc.c **** 
 732:Generated_Source\PSoC4/adc.c **** #if(adc_DEFAULT_JUSTIFICATION_SEL == adc__RIGHT)
 733:Generated_Source\PSoC4/adc.c **** 
 734:Generated_Source\PSoC4/adc.c **** 
 735:Generated_Source\PSoC4/adc.c ****     /*******************************************************************************
 736:Generated_Source\PSoC4/adc.c ****     * Function Name: adc_CountsTo_mVolts
 737:Generated_Source\PSoC4/adc.c ****     ********************************************************************************
 738:Generated_Source\PSoC4/adc.c ****     *
 739:Generated_Source\PSoC4/adc.c ****     * Summary:
ARM GAS  C:\Users\Jacob\AppData\Local\Temp\cc0s3k17.s 			page 32


 740:Generated_Source\PSoC4/adc.c ****     *  This function converts ADC counts to mVolts
 741:Generated_Source\PSoC4/adc.c ****     *  This function is not available when left data format justification selected.
 742:Generated_Source\PSoC4/adc.c ****     *
 743:Generated_Source\PSoC4/adc.c ****     * Parameters:
 744:Generated_Source\PSoC4/adc.c ****     *  chan: The ADC channel number.
 745:Generated_Source\PSoC4/adc.c ****     *  adcCounts: Result from the ADC conversion
 746:Generated_Source\PSoC4/adc.c ****     *
 747:Generated_Source\PSoC4/adc.c ****     * Return:
 748:Generated_Source\PSoC4/adc.c ****     *  Results in mVolts
 749:Generated_Source\PSoC4/adc.c ****     *
 750:Generated_Source\PSoC4/adc.c ****     * Global variables:
 751:Generated_Source\PSoC4/adc.c ****     *  adc_countsPer10Volt:  used to convert ADC counts to mVolts.
 752:Generated_Source\PSoC4/adc.c ****     *  adc_Offset:  Used as the offset while converting ADC counts
 753:Generated_Source\PSoC4/adc.c ****     *   to mVolts.
 754:Generated_Source\PSoC4/adc.c ****     *
 755:Generated_Source\PSoC4/adc.c ****     *******************************************************************************/
 756:Generated_Source\PSoC4/adc.c ****     int16 adc_CountsTo_mVolts(uint32 chan, int16 adcCounts)
 757:Generated_Source\PSoC4/adc.c ****     {
 1021              		.loc 1 757 0
 1022              		.cfi_startproc
 1023              		@ args = 0, pretend = 0, frame = 16
 1024              		@ frame_needed = 1, uses_anonymous_args = 0
 1025 0000 80B5     		push	{r7, lr}
 1026              		.cfi_def_cfa_offset 8
 1027              		.cfi_offset 7, -8
 1028              		.cfi_offset 14, -4
 1029 0002 84B0     		sub	sp, sp, #16
 1030              		.cfi_def_cfa_offset 24
 1031 0004 00AF     		add	r7, sp, #0
 1032              		.cfi_def_cfa_register 7
 1033 0006 7860     		str	r0, [r7, #4]
 1034 0008 0A00     		movs	r2, r1
 1035 000a BB1C     		adds	r3, r7, #2
 1036 000c 1A80     		strh	r2, [r3]
 758:Generated_Source\PSoC4/adc.c ****         int16 mVolts;
 759:Generated_Source\PSoC4/adc.c **** 
 760:Generated_Source\PSoC4/adc.c ****         /* Halt CPU in debug mode if channel is out of valid range */
 761:Generated_Source\PSoC4/adc.c ****         CYASSERT(chan < adc_TOTAL_CHANNELS_NUM);
 1037              		.loc 1 761 0
 1038 000e 7B68     		ldr	r3, [r7, #4]
 1039 0010 012B     		cmp	r3, #1
 1040 0012 02D9     		bls	.L71
 1041              		.loc 1 761 0 is_stmt 0 discriminator 1
 1042 0014 0020     		movs	r0, #0
 1043 0016 FFF7FEFF 		bl	CyHalt
 1044              	.L71:
 762:Generated_Source\PSoC4/adc.c **** 
 763:Generated_Source\PSoC4/adc.c ****         /* Divide the adcCount when accumulate averaging mode selected */
 764:Generated_Source\PSoC4/adc.c ****         #if(adc_DEFAULT_AVG_MODE == adc__ACCUMULATE)
 765:Generated_Source\PSoC4/adc.c ****             if((adc_channelsConfig[chan] & adc_AVERAGING_EN) != 0u)
 766:Generated_Source\PSoC4/adc.c ****             {
 767:Generated_Source\PSoC4/adc.c ****                 adcCounts /= adc_DEFAULT_AVG_SAMPLES_DIV;
 768:Generated_Source\PSoC4/adc.c ****             }
 769:Generated_Source\PSoC4/adc.c ****         #endif /* adc_DEFAULT_AVG_MODE == adc__ACCUMULATE */
 770:Generated_Source\PSoC4/adc.c **** 
 771:Generated_Source\PSoC4/adc.c ****         /* Subtract ADC offset */
 772:Generated_Source\PSoC4/adc.c ****         adcCounts -= adc_offset[chan];
ARM GAS  C:\Users\Jacob\AppData\Local\Temp\cc0s3k17.s 			page 33


 1045              		.loc 1 772 0 is_stmt 1
 1046 001a 1E4B     		ldr	r3, .L77
 1047 001c 7A68     		ldr	r2, [r7, #4]
 1048 001e 5200     		lsls	r2, r2, #1
 1049 0020 D35A     		ldrh	r3, [r2, r3]
 1050 0022 19B2     		sxth	r1, r3
 1051 0024 BB1C     		adds	r3, r7, #2
 1052 0026 1A88     		ldrh	r2, [r3]
 1053 0028 8BB2     		uxth	r3, r1
 1054 002a D31A     		subs	r3, r2, r3
 1055 002c 9AB2     		uxth	r2, r3
 1056 002e BB1C     		adds	r3, r7, #2
 1057 0030 1A80     		strh	r2, [r3]
 773:Generated_Source\PSoC4/adc.c **** 
 774:Generated_Source\PSoC4/adc.c ****         mVolts = (int16)((((int32)adcCounts * adc_10MV_COUNTS) + ( (adcCounts > 0) ?
 1058              		.loc 1 774 0
 1059 0032 BB1C     		adds	r3, r7, #2
 1060 0034 0022     		movs	r2, #0
 1061 0036 9B5E     		ldrsh	r3, [r3, r2]
 1062 0038 174A     		ldr	r2, .L77+4
 1063 003a 5A43     		muls	r2, r3
 775:Generated_Source\PSoC4/adc.c ****                  (adc_countsPer10Volt[chan] / 2) : (-(adc_countsPer10Volt[chan] / 2)) ))
 1064              		.loc 1 775 0
 1065 003c BB1C     		adds	r3, r7, #2
 1066 003e 0021     		movs	r1, #0
 1067 0040 5B5E     		ldrsh	r3, [r3, r1]
 1068 0042 002B     		cmp	r3, #0
 1069 0044 08DD     		ble	.L72
 1070              		.loc 1 775 0 is_stmt 0 discriminator 1
 1071 0046 154B     		ldr	r3, .L77+8
 1072 0048 7968     		ldr	r1, [r7, #4]
 1073 004a 8900     		lsls	r1, r1, #2
 1074 004c CB58     		ldr	r3, [r1, r3]
 1075 004e 002B     		cmp	r3, #0
 1076 0050 00DA     		bge	.L73
 1077 0052 0133     		adds	r3, r3, #1
 1078              	.L73:
 1079 0054 5B10     		asrs	r3, r3, #1
 1080 0056 08E0     		b	.L74
 1081              	.L72:
 1082              		.loc 1 775 0 discriminator 2
 1083 0058 104B     		ldr	r3, .L77+8
 1084 005a 7968     		ldr	r1, [r7, #4]
 1085 005c 8900     		lsls	r1, r1, #2
 1086 005e CB58     		ldr	r3, [r1, r3]
 1087 0060 002B     		cmp	r3, #0
 1088 0062 00DA     		bge	.L75
 1089 0064 0133     		adds	r3, r3, #1
 1090              	.L75:
 1091 0066 5B10     		asrs	r3, r3, #1
 1092 0068 5B42     		rsbs	r3, r3, #0
 1093              	.L74:
 774:Generated_Source\PSoC4/adc.c ****                  (adc_countsPer10Volt[chan] / 2) : (-(adc_countsPer10Volt[chan] / 2)) ))
 1094              		.loc 1 774 0 is_stmt 1
 1095 006a D018     		adds	r0, r2, r3
 776:Generated_Source\PSoC4/adc.c ****                  / adc_countsPer10Volt[chan]);
 1096              		.loc 1 776 0
ARM GAS  C:\Users\Jacob\AppData\Local\Temp\cc0s3k17.s 			page 34


 1097 006c 0B4B     		ldr	r3, .L77+8
 1098 006e 7A68     		ldr	r2, [r7, #4]
 1099 0070 9200     		lsls	r2, r2, #2
 1100 0072 D358     		ldr	r3, [r2, r3]
 1101 0074 1900     		movs	r1, r3
 1102 0076 FFF7FEFF 		bl	__aeabi_idiv
 1103 007a 0300     		movs	r3, r0
 1104 007c 1A00     		movs	r2, r3
 774:Generated_Source\PSoC4/adc.c ****                  (adc_countsPer10Volt[chan] / 2) : (-(adc_countsPer10Volt[chan] / 2)) ))
 1105              		.loc 1 774 0
 1106 007e 0E23     		movs	r3, #14
 1107 0080 FB18     		adds	r3, r7, r3
 1108 0082 1A80     		strh	r2, [r3]
 777:Generated_Source\PSoC4/adc.c **** 
 778:Generated_Source\PSoC4/adc.c ****         return( mVolts );
 1109              		.loc 1 778 0
 1110 0084 0E23     		movs	r3, #14
 1111 0086 FB18     		adds	r3, r7, r3
 1112 0088 0022     		movs	r2, #0
 1113 008a 9B5E     		ldrsh	r3, [r3, r2]
 779:Generated_Source\PSoC4/adc.c ****     }
 1114              		.loc 1 779 0
 1115 008c 1800     		movs	r0, r3
 1116 008e BD46     		mov	sp, r7
 1117 0090 04B0     		add	sp, sp, #16
 1118              		@ sp needed
 1119 0092 80BD     		pop	{r7, pc}
 1120              	.L78:
 1121              		.align	2
 1122              	.L77:
 1123 0094 00000000 		.word	adc_offset
 1124 0098 10270000 		.word	10000
 1125 009c 00000000 		.word	adc_countsPer10Volt
 1126              		.cfi_endproc
 1127              	.LFE17:
 1128              		.size	adc_CountsTo_mVolts, .-adc_CountsTo_mVolts
 1129              		.global	__aeabi_lmul
 1130              		.global	__aeabi_ldivmod
 1131              		.section	.text.adc_CountsTo_uVolts,"ax",%progbits
 1132              		.align	2
 1133              		.global	adc_CountsTo_uVolts
 1134              		.code	16
 1135              		.thumb_func
 1136              		.type	adc_CountsTo_uVolts, %function
 1137              	adc_CountsTo_uVolts:
 1138              	.LFB18:
 780:Generated_Source\PSoC4/adc.c **** 
 781:Generated_Source\PSoC4/adc.c **** 
 782:Generated_Source\PSoC4/adc.c ****     /*******************************************************************************
 783:Generated_Source\PSoC4/adc.c ****     * Function Name: adc_CountsTo_uVolts
 784:Generated_Source\PSoC4/adc.c ****     ********************************************************************************
 785:Generated_Source\PSoC4/adc.c ****     *
 786:Generated_Source\PSoC4/adc.c ****     * Summary:
 787:Generated_Source\PSoC4/adc.c ****     *  This function converts ADC counts to micro Volts
 788:Generated_Source\PSoC4/adc.c ****     *  This function is not available when left data format justification selected.
 789:Generated_Source\PSoC4/adc.c ****     *
 790:Generated_Source\PSoC4/adc.c ****     * Parameters:
ARM GAS  C:\Users\Jacob\AppData\Local\Temp\cc0s3k17.s 			page 35


 791:Generated_Source\PSoC4/adc.c ****     *  chan: The ADC channel number.
 792:Generated_Source\PSoC4/adc.c ****     *  adcCounts: Result from the ADC conversion
 793:Generated_Source\PSoC4/adc.c ****     *
 794:Generated_Source\PSoC4/adc.c ****     * Return:
 795:Generated_Source\PSoC4/adc.c ****     *  Results in uVolts
 796:Generated_Source\PSoC4/adc.c ****     *
 797:Generated_Source\PSoC4/adc.c ****     * Global variables:
 798:Generated_Source\PSoC4/adc.c ****     *  adc_countsPer10Volt:  used to convert ADC counts to uVolts.
 799:Generated_Source\PSoC4/adc.c ****     *  adc_Offset:  Used as the offset while converting ADC counts
 800:Generated_Source\PSoC4/adc.c ****     *   to mVolts.
 801:Generated_Source\PSoC4/adc.c ****     *
 802:Generated_Source\PSoC4/adc.c ****     * Theory:
 803:Generated_Source\PSoC4/adc.c ****     *  Care must be taken to not exceed the maximum value for a 31 bit signed
 804:Generated_Source\PSoC4/adc.c ****     *  number in the conversion to uVolts and at the same time not loose
 805:Generated_Source\PSoC4/adc.c ****     *  resolution.
 806:Generated_Source\PSoC4/adc.c ****     *  To convert adcCounts to microVolts it is required to be multiplied
 807:Generated_Source\PSoC4/adc.c ****     *  on 10 million and later divide on gain in counts per 10V.
 808:Generated_Source\PSoC4/adc.c ****     *
 809:Generated_Source\PSoC4/adc.c ****     *******************************************************************************/
 810:Generated_Source\PSoC4/adc.c ****     int32 adc_CountsTo_uVolts(uint32 chan, int16 adcCounts)
 811:Generated_Source\PSoC4/adc.c ****     {
 1139              		.loc 1 811 0
 1140              		.cfi_startproc
 1141              		@ args = 0, pretend = 0, frame = 24
 1142              		@ frame_needed = 1, uses_anonymous_args = 0
 1143 0000 B0B5     		push	{r4, r5, r7, lr}
 1144              		.cfi_def_cfa_offset 16
 1145              		.cfi_offset 4, -16
 1146              		.cfi_offset 5, -12
 1147              		.cfi_offset 7, -8
 1148              		.cfi_offset 14, -4
 1149 0002 86B0     		sub	sp, sp, #24
 1150              		.cfi_def_cfa_offset 40
 1151 0004 00AF     		add	r7, sp, #0
 1152              		.cfi_def_cfa_register 7
 1153 0006 F860     		str	r0, [r7, #12]
 1154 0008 0A00     		movs	r2, r1
 1155 000a 0A23     		movs	r3, #10
 1156 000c FB18     		adds	r3, r7, r3
 1157 000e 1A80     		strh	r2, [r3]
 812:Generated_Source\PSoC4/adc.c ****         int64 uVolts;
 813:Generated_Source\PSoC4/adc.c **** 
 814:Generated_Source\PSoC4/adc.c ****         /* Halt CPU in debug mode if channel is out of valid range */
 815:Generated_Source\PSoC4/adc.c ****         CYASSERT(chan < adc_TOTAL_CHANNELS_NUM);
 1158              		.loc 1 815 0
 1159 0010 FB68     		ldr	r3, [r7, #12]
 1160 0012 012B     		cmp	r3, #1
 1161 0014 02D9     		bls	.L80
 1162              		.loc 1 815 0 is_stmt 0 discriminator 1
 1163 0016 0020     		movs	r0, #0
 1164 0018 FFF7FEFF 		bl	CyHalt
 1165              	.L80:
 816:Generated_Source\PSoC4/adc.c **** 
 817:Generated_Source\PSoC4/adc.c ****         /* Divide the adcCount when accumulate averaging mode selected */
 818:Generated_Source\PSoC4/adc.c ****         #if(adc_DEFAULT_AVG_MODE == adc__ACCUMULATE)
 819:Generated_Source\PSoC4/adc.c ****             if((adc_channelsConfig[chan] & adc_AVERAGING_EN) != 0u)
 820:Generated_Source\PSoC4/adc.c ****             {
ARM GAS  C:\Users\Jacob\AppData\Local\Temp\cc0s3k17.s 			page 36


 821:Generated_Source\PSoC4/adc.c ****                 adcCounts /= adc_DEFAULT_AVG_SAMPLES_DIV;
 822:Generated_Source\PSoC4/adc.c ****             }
 823:Generated_Source\PSoC4/adc.c ****         #endif /* adc_DEFAULT_AVG_MODE == adc__ACCUMULATE */
 824:Generated_Source\PSoC4/adc.c **** 
 825:Generated_Source\PSoC4/adc.c ****         /* Subtract ADC offset */
 826:Generated_Source\PSoC4/adc.c ****         adcCounts -= adc_offset[chan];
 1166              		.loc 1 826 0 is_stmt 1
 1167 001c 194B     		ldr	r3, .L82
 1168 001e FA68     		ldr	r2, [r7, #12]
 1169 0020 5200     		lsls	r2, r2, #1
 1170 0022 D35A     		ldrh	r3, [r2, r3]
 1171 0024 19B2     		sxth	r1, r3
 1172 0026 0A23     		movs	r3, #10
 1173 0028 FB18     		adds	r3, r7, r3
 1174 002a 1A88     		ldrh	r2, [r3]
 1175 002c 8BB2     		uxth	r3, r1
 1176 002e D31A     		subs	r3, r2, r3
 1177 0030 9AB2     		uxth	r2, r3
 1178 0032 0A23     		movs	r3, #10
 1179 0034 FB18     		adds	r3, r7, r3
 1180 0036 1A80     		strh	r2, [r3]
 827:Generated_Source\PSoC4/adc.c **** 
 828:Generated_Source\PSoC4/adc.c ****         uVolts = ((int64)adcCounts * adc_10UV_COUNTS) / adc_countsPer10Volt[chan];
 1181              		.loc 1 828 0
 1182 0038 0A23     		movs	r3, #10
 1183 003a FB18     		adds	r3, r7, r3
 1184 003c 1B88     		ldrh	r3, [r3]
 1185 003e 1BB2     		sxth	r3, r3
 1186 0040 3B60     		str	r3, [r7]
 1187 0042 DB17     		asrs	r3, r3, #31
 1188 0044 7B60     		str	r3, [r7, #4]
 1189 0046 104A     		ldr	r2, .L82+4
 1190 0048 0023     		movs	r3, #0
 1191 004a 3868     		ldr	r0, [r7]
 1192 004c 7968     		ldr	r1, [r7, #4]
 1193 004e FFF7FEFF 		bl	__aeabi_lmul
 1194 0052 0200     		movs	r2, r0
 1195 0054 0B00     		movs	r3, r1
 1196 0056 1000     		movs	r0, r2
 1197 0058 1900     		movs	r1, r3
 1198 005a 0C4B     		ldr	r3, .L82+8
 1199 005c FA68     		ldr	r2, [r7, #12]
 1200 005e 9200     		lsls	r2, r2, #2
 1201 0060 D358     		ldr	r3, [r2, r3]
 1202 0062 1C00     		movs	r4, r3
 1203 0064 DB17     		asrs	r3, r3, #31
 1204 0066 1D00     		movs	r5, r3
 1205 0068 2200     		movs	r2, r4
 1206 006a 2B00     		movs	r3, r5
 1207 006c FFF7FEFF 		bl	__aeabi_ldivmod
 1208 0070 0300     		movs	r3, r0
 1209 0072 0C00     		movs	r4, r1
 1210 0074 3B61     		str	r3, [r7, #16]
 1211 0076 7C61     		str	r4, [r7, #20]
 829:Generated_Source\PSoC4/adc.c **** 
 830:Generated_Source\PSoC4/adc.c ****         return( (int32)uVolts );
 1212              		.loc 1 830 0
ARM GAS  C:\Users\Jacob\AppData\Local\Temp\cc0s3k17.s 			page 37


 1213 0078 3B69     		ldr	r3, [r7, #16]
 831:Generated_Source\PSoC4/adc.c ****     }
 1214              		.loc 1 831 0
 1215 007a 1800     		movs	r0, r3
 1216 007c BD46     		mov	sp, r7
 1217 007e 06B0     		add	sp, sp, #24
 1218              		@ sp needed
 1219 0080 B0BD     		pop	{r4, r5, r7, pc}
 1220              	.L83:
 1221 0082 C046     		.align	2
 1222              	.L82:
 1223 0084 00000000 		.word	adc_offset
 1224 0088 80969800 		.word	10000000
 1225 008c 00000000 		.word	adc_countsPer10Volt
 1226              		.cfi_endproc
 1227              	.LFE18:
 1228              		.size	adc_CountsTo_uVolts, .-adc_CountsTo_uVolts
 1229              		.global	__aeabi_i2f
 1230              		.global	__aeabi_fmul
 1231              		.global	__aeabi_fdiv
 1232              		.section	.text.adc_CountsTo_Volts,"ax",%progbits
 1233              		.align	2
 1234              		.global	adc_CountsTo_Volts
 1235              		.code	16
 1236              		.thumb_func
 1237              		.type	adc_CountsTo_Volts, %function
 1238              	adc_CountsTo_Volts:
 1239              	.LFB19:
 832:Generated_Source\PSoC4/adc.c **** 
 833:Generated_Source\PSoC4/adc.c **** 
 834:Generated_Source\PSoC4/adc.c ****     /*******************************************************************************
 835:Generated_Source\PSoC4/adc.c ****     * Function Name: adc_CountsTo_Volts
 836:Generated_Source\PSoC4/adc.c ****     ********************************************************************************
 837:Generated_Source\PSoC4/adc.c ****     *
 838:Generated_Source\PSoC4/adc.c ****     * Summary:
 839:Generated_Source\PSoC4/adc.c ****     *  Converts the ADC output to Volts as a floating point number.
 840:Generated_Source\PSoC4/adc.c ****     *  This function is not available when left data format justification selected.
 841:Generated_Source\PSoC4/adc.c ****     *
 842:Generated_Source\PSoC4/adc.c ****     * Parameters:
 843:Generated_Source\PSoC4/adc.c ****     *  chan: The ADC channel number.
 844:Generated_Source\PSoC4/adc.c ****     *  Result from the ADC conversion
 845:Generated_Source\PSoC4/adc.c ****     *
 846:Generated_Source\PSoC4/adc.c ****     * Return:
 847:Generated_Source\PSoC4/adc.c ****     *  Results in Volts
 848:Generated_Source\PSoC4/adc.c ****     *
 849:Generated_Source\PSoC4/adc.c ****     * Global variables:
 850:Generated_Source\PSoC4/adc.c ****     *  adc_countsPer10Volt:  used to convert ADC counts to Volts.
 851:Generated_Source\PSoC4/adc.c ****     *  adc_Offset:  Used as the offset while converting ADC counts
 852:Generated_Source\PSoC4/adc.c ****     *   to mVolts.
 853:Generated_Source\PSoC4/adc.c ****     *
 854:Generated_Source\PSoC4/adc.c ****     *******************************************************************************/
 855:Generated_Source\PSoC4/adc.c ****     float32 adc_CountsTo_Volts(uint32 chan, int16 adcCounts)
 856:Generated_Source\PSoC4/adc.c ****     {
 1240              		.loc 1 856 0
 1241              		.cfi_startproc
 1242              		@ args = 0, pretend = 0, frame = 16
 1243              		@ frame_needed = 1, uses_anonymous_args = 0
ARM GAS  C:\Users\Jacob\AppData\Local\Temp\cc0s3k17.s 			page 38


 1244 0000 90B5     		push	{r4, r7, lr}
 1245              		.cfi_def_cfa_offset 12
 1246              		.cfi_offset 4, -12
 1247              		.cfi_offset 7, -8
 1248              		.cfi_offset 14, -4
 1249 0002 85B0     		sub	sp, sp, #20
 1250              		.cfi_def_cfa_offset 32
 1251 0004 00AF     		add	r7, sp, #0
 1252              		.cfi_def_cfa_register 7
 1253 0006 7860     		str	r0, [r7, #4]
 1254 0008 0A00     		movs	r2, r1
 1255 000a BB1C     		adds	r3, r7, #2
 1256 000c 1A80     		strh	r2, [r3]
 857:Generated_Source\PSoC4/adc.c ****         float32 volts;
 858:Generated_Source\PSoC4/adc.c **** 
 859:Generated_Source\PSoC4/adc.c ****         /* Halt CPU in debug mode if channel is out of valid range */
 860:Generated_Source\PSoC4/adc.c ****         CYASSERT(chan < adc_TOTAL_CHANNELS_NUM);
 1257              		.loc 1 860 0
 1258 000e 7B68     		ldr	r3, [r7, #4]
 1259 0010 012B     		cmp	r3, #1
 1260 0012 02D9     		bls	.L85
 1261              		.loc 1 860 0 is_stmt 0 discriminator 1
 1262 0014 0020     		movs	r0, #0
 1263 0016 FFF7FEFF 		bl	CyHalt
 1264              	.L85:
 861:Generated_Source\PSoC4/adc.c **** 
 862:Generated_Source\PSoC4/adc.c ****         /* Divide the adcCount when accumulate averaging mode selected */
 863:Generated_Source\PSoC4/adc.c ****         #if(adc_DEFAULT_AVG_MODE == adc__ACCUMULATE)
 864:Generated_Source\PSoC4/adc.c ****             if((adc_channelsConfig[chan] & adc_AVERAGING_EN) != 0u)
 865:Generated_Source\PSoC4/adc.c ****             {
 866:Generated_Source\PSoC4/adc.c ****                 adcCounts /= adc_DEFAULT_AVG_SAMPLES_DIV;
 867:Generated_Source\PSoC4/adc.c ****             }
 868:Generated_Source\PSoC4/adc.c ****         #endif /* adc_DEFAULT_AVG_MODE == adc__ACCUMULATE */
 869:Generated_Source\PSoC4/adc.c **** 
 870:Generated_Source\PSoC4/adc.c ****         /* Subtract ADC offset */
 871:Generated_Source\PSoC4/adc.c ****         adcCounts -= adc_offset[chan];
 1265              		.loc 1 871 0 is_stmt 1
 1266 001a 164B     		ldr	r3, .L87
 1267 001c 7A68     		ldr	r2, [r7, #4]
 1268 001e 5200     		lsls	r2, r2, #1
 1269 0020 D35A     		ldrh	r3, [r2, r3]
 1270 0022 19B2     		sxth	r1, r3
 1271 0024 BB1C     		adds	r3, r7, #2
 1272 0026 1A88     		ldrh	r2, [r3]
 1273 0028 8BB2     		uxth	r3, r1
 1274 002a D31A     		subs	r3, r2, r3
 1275 002c 9AB2     		uxth	r2, r3
 1276 002e BB1C     		adds	r3, r7, #2
 1277 0030 1A80     		strh	r2, [r3]
 872:Generated_Source\PSoC4/adc.c **** 
 873:Generated_Source\PSoC4/adc.c ****         volts = ((float32)adcCounts * adc_10V_COUNTS) / (float32)adc_countsPer10Volt[chan];
 1278              		.loc 1 873 0
 1279 0032 BB1C     		adds	r3, r7, #2
 1280 0034 0022     		movs	r2, #0
 1281 0036 9B5E     		ldrsh	r3, [r3, r2]
 1282 0038 1800     		movs	r0, r3
 1283 003a FFF7FEFF 		bl	__aeabi_i2f
ARM GAS  C:\Users\Jacob\AppData\Local\Temp\cc0s3k17.s 			page 39


 1284 003e 031C     		adds	r3, r0, #0
 1285 0040 0D49     		ldr	r1, .L87+4
 1286 0042 181C     		adds	r0, r3, #0
 1287 0044 FFF7FEFF 		bl	__aeabi_fmul
 1288 0048 031C     		adds	r3, r0, #0
 1289 004a 1C1C     		adds	r4, r3, #0
 1290 004c 0B4B     		ldr	r3, .L87+8
 1291 004e 7A68     		ldr	r2, [r7, #4]
 1292 0050 9200     		lsls	r2, r2, #2
 1293 0052 D358     		ldr	r3, [r2, r3]
 1294 0054 1800     		movs	r0, r3
 1295 0056 FFF7FEFF 		bl	__aeabi_i2f
 1296 005a 031C     		adds	r3, r0, #0
 1297 005c 191C     		adds	r1, r3, #0
 1298 005e 201C     		adds	r0, r4, #0
 1299 0060 FFF7FEFF 		bl	__aeabi_fdiv
 1300 0064 031C     		adds	r3, r0, #0
 1301 0066 FB60     		str	r3, [r7, #12]
 874:Generated_Source\PSoC4/adc.c **** 
 875:Generated_Source\PSoC4/adc.c ****         return( volts );
 1302              		.loc 1 875 0
 1303 0068 FB68     		ldr	r3, [r7, #12]
 876:Generated_Source\PSoC4/adc.c ****     }
 1304              		.loc 1 876 0
 1305 006a 181C     		adds	r0, r3, #0
 1306 006c BD46     		mov	sp, r7
 1307 006e 05B0     		add	sp, sp, #20
 1308              		@ sp needed
 1309 0070 90BD     		pop	{r4, r7, pc}
 1310              	.L88:
 1311 0072 C046     		.align	2
 1312              	.L87:
 1313 0074 00000000 		.word	adc_offset
 1314 0078 00002041 		.word	1092616192
 1315 007c 00000000 		.word	adc_countsPer10Volt
 1316              		.cfi_endproc
 1317              	.LFE19:
 1318              		.size	adc_CountsTo_Volts, .-adc_CountsTo_Volts
 1319              		.section	.rodata
 1320              		.align	2
 1321              		.type	adc_InputsPlacement.4920, %object
 1322              		.size	adc_InputsPlacement.4920, 2
 1323              	adc_InputsPlacement.4920:
 1324 0008 72       		.byte	114
 1325 0009 73       		.byte	115
 1326              		.text
 1327              	.Letext0:
 1328              		.file 2 "Generated_Source\\PSoC4\\cytypes.h"