ARM GAS  C:\Users\Jacob\AppData\Local\Temp\ccAyAbem.s 			page 1


   1              		.syntax unified
   2              		.cpu cortex-m0
   3              		.fpu softvfp
   4              		.eabi_attribute 20, 1
   5              		.eabi_attribute 21, 1
   6              		.eabi_attribute 23, 3
   7              		.eabi_attribute 24, 1
   8              		.eabi_attribute 25, 1
   9              		.eabi_attribute 26, 1
  10              		.eabi_attribute 30, 6
  11              		.eabi_attribute 34, 0
  12              		.eabi_attribute 18, 4
  13              		.thumb
  14              		.syntax unified
  15              		.file	"main.c"
  16              		.text
  17              	.Ltext0:
  18              		.cfi_sections	.debug_frame
  19              		.comm	deviceConnected,1,1
  20              		.comm	buffer,180,4
  21              		.section	.text.DisplayMessage,"ax",%progbits
  22              		.align	2
  23              		.global	DisplayMessage
  24              		.code	16
  25              		.thumb_func
  26              		.type	DisplayMessage, %function
  27              	DisplayMessage:
  28              	.LFB36:
  29              		.file 1 "main.c"
   1:main.c        **** /* ========================================
   2:main.c        ****  *
   3:main.c        ****  * Copyright YOUR COMPANY, THE YEAR
   4:main.c        ****  * All Rights Reserved
   5:main.c        ****  * UNPUBLISHED, LICENSED SOFTWARE.
   6:main.c        ****  *
   7:main.c        ****  * CONFIDENTIAL AND PROPRIETARY INFORMATION
   8:main.c        ****  * WHICH IS THE PROPERTY OF your company.
   9:main.c        ****  *
  10:main.c        ****  * ========================================
  11:main.c        **** */
  12:main.c        **** #include <main.h>
  13:main.c        **** 
  14:main.c        **** char buffer[180]; 
  15:main.c        **** 
  16:main.c        **** void DisplayMessage(char *message, uint8 length)
  17:main.c        **** {
  30              		.loc 1 17 0
  31              		.cfi_startproc
  32              		@ args = 0, pretend = 0, frame = 16
  33              		@ frame_needed = 1, uses_anonymous_args = 0
  34 0000 80B5     		push	{r7, lr}
  35              		.cfi_def_cfa_offset 8
  36              		.cfi_offset 7, -8
  37              		.cfi_offset 14, -4
  38 0002 84B0     		sub	sp, sp, #16
  39              		.cfi_def_cfa_offset 24
  40 0004 00AF     		add	r7, sp, #0
ARM GAS  C:\Users\Jacob\AppData\Local\Temp\ccAyAbem.s 			page 2


  41              		.cfi_def_cfa_register 7
  42 0006 7860     		str	r0, [r7, #4]
  43 0008 0A00     		movs	r2, r1
  44 000a FB1C     		adds	r3, r7, #3
  45 000c 1A70     		strb	r2, [r3]
  18:main.c        ****     uint8 i;
  19:main.c        ****     
  20:main.c        ****     //Timer_CLK_Stop();
  21:main.c        ****     //pos = 0;
  22:main.c        ****     
  23:main.c        ****     stpncpy(buffer, message, length);
  46              		.loc 1 23 0
  47 000e FB1C     		adds	r3, r7, #3
  48 0010 1A78     		ldrb	r2, [r3]
  49 0012 7968     		ldr	r1, [r7, #4]
  50 0014 0F4B     		ldr	r3, .L4
  51 0016 1800     		movs	r0, r3
  52 0018 FFF7FEFF 		bl	stpncpy
  24:main.c        ****     for (i = length; i<180; i++)
  53              		.loc 1 24 0
  54 001c 0F23     		movs	r3, #15
  55 001e FB18     		adds	r3, r7, r3
  56 0020 FA1C     		adds	r2, r7, #3
  57 0022 1278     		ldrb	r2, [r2]
  58 0024 1A70     		strb	r2, [r3]
  59 0026 0CE0     		b	.L2
  60              	.L3:
  25:main.c        ****     {
  26:main.c        ****         buffer[i] = 0;
  61              		.loc 1 26 0 discriminator 3
  62 0028 0F23     		movs	r3, #15
  63 002a FB18     		adds	r3, r7, r3
  64 002c 1B78     		ldrb	r3, [r3]
  65 002e 094A     		ldr	r2, .L4
  66 0030 0021     		movs	r1, #0
  67 0032 D154     		strb	r1, [r2, r3]
  24:main.c        ****     for (i = length; i<180; i++)
  68              		.loc 1 24 0 discriminator 3
  69 0034 0F23     		movs	r3, #15
  70 0036 FB18     		adds	r3, r7, r3
  71 0038 1A78     		ldrb	r2, [r3]
  72 003a 0F23     		movs	r3, #15
  73 003c FB18     		adds	r3, r7, r3
  74 003e 0132     		adds	r2, r2, #1
  75 0040 1A70     		strb	r2, [r3]
  76              	.L2:
  24:main.c        ****     for (i = length; i<180; i++)
  77              		.loc 1 24 0 is_stmt 0 discriminator 1
  78 0042 0F23     		movs	r3, #15
  79 0044 FB18     		adds	r3, r7, r3
  80 0046 1B78     		ldrb	r3, [r3]
  81 0048 B32B     		cmp	r3, #179
  82 004a EDD9     		bls	.L3
  27:main.c        ****     }
  28:main.c        ****     
  29:main.c        ****     //Timer_CLK_Start();
  30:main.c        **** }
ARM GAS  C:\Users\Jacob\AppData\Local\Temp\ccAyAbem.s 			page 3


  83              		.loc 1 30 0 is_stmt 1
  84 004c C046     		nop
  85 004e BD46     		mov	sp, r7
  86 0050 04B0     		add	sp, sp, #16
  87              		@ sp needed
  88 0052 80BD     		pop	{r7, pc}
  89              	.L5:
  90              		.align	2
  91              	.L4:
  92 0054 00000000 		.word	buffer
  93              		.cfi_endproc
  94              	.LFE36:
  95              		.size	DisplayMessage, .-DisplayMessage
  96              		.section	.rodata
  97              		.align	2
  98              	.LC3:
  99 0000 466C6578 		.ascii	"Flex Sensor 1: %d Flex Sensor 2: %d\012\000"
  99      2053656E 
  99      736F7220 
  99      313A2025 
  99      6420466C 
 100 0025 000000   		.align	2
 101              	.LC1:
 102 0028 466C6578 		.ascii	"Flex Sensor 1: 2016\012 Flex Sensor 2: 2017\000"
 102      2053656E 
 102      736F7220 
 102      313A2032 
 102      3031360A 
 103              		.section	.text.testFlex,"ax",%progbits
 104              		.align	2
 105              		.global	testFlex
 106              		.code	16
 107              		.thumb_func
 108              		.type	testFlex, %function
 109              	testFlex:
 110              	.LFB37:
  31:main.c        **** void testFlex(){
 111              		.loc 1 31 0
 112              		.cfi_startproc
 113              		@ args = 0, pretend = 0, frame = 56
 114              		@ frame_needed = 1, uses_anonymous_args = 0
 115 0000 90B5     		push	{r4, r7, lr}
 116              		.cfi_def_cfa_offset 12
 117              		.cfi_offset 4, -12
 118              		.cfi_offset 7, -8
 119              		.cfi_offset 14, -4
 120 0002 8FB0     		sub	sp, sp, #60
 121              		.cfi_def_cfa_offset 72
 122 0004 00AF     		add	r7, sp, #0
 123              		.cfi_def_cfa_register 7
  32:main.c        ****     int analog1, analog2;
  33:main.c        ****     char buffer[] = "Flex Sensor 1: 2016\n Flex Sensor 2: 2017";
 124              		.loc 1 33 0
 125 0006 3B00     		movs	r3, r7
 126 0008 194A     		ldr	r2, .L9
 127 000a 13CA     		ldmia	r2!, {r0, r1, r4}
 128 000c 13C3     		stmia	r3!, {r0, r1, r4}
ARM GAS  C:\Users\Jacob\AppData\Local\Temp\ccAyAbem.s 			page 4


 129 000e 13CA     		ldmia	r2!, {r0, r1, r4}
 130 0010 13C3     		stmia	r3!, {r0, r1, r4}
 131 0012 13CA     		ldmia	r2!, {r0, r1, r4}
 132 0014 13C3     		stmia	r3!, {r0, r1, r4}
 133 0016 1168     		ldr	r1, [r2]
 134 0018 1960     		str	r1, [r3]
 135 001a 1279     		ldrb	r2, [r2, #4]
 136 001c 1A71     		strb	r2, [r3, #4]
  34:main.c        ****     adc_Start();
 137              		.loc 1 34 0
 138 001e FFF7FEFF 		bl	adc_Start
  35:main.c        ****     adc_StartConvert();
 139              		.loc 1 35 0
 140 0022 FFF7FEFF 		bl	adc_StartConvert
  36:main.c        ****     UART_Start();
 141              		.loc 1 36 0
 142 0026 FFF7FEFF 		bl	UART_Start
 143              	.LBB2:
  37:main.c        ****     for(int i=0;i<100;i++){
 144              		.loc 1 37 0
 145 002a 0023     		movs	r3, #0
 146 002c 7B63     		str	r3, [r7, #52]
 147 002e 18E0     		b	.L7
 148              	.L8:
  38:main.c        ****         adc_IsEndConversion(adc_WAIT_FOR_RESULT);
 149              		.loc 1 38 0 discriminator 3
 150 0030 0220     		movs	r0, #2
 151 0032 FFF7FEFF 		bl	adc_IsEndConversion
  39:main.c        ****         analog1 = adc_GetResult16(0);
 152              		.loc 1 39 0 discriminator 3
 153 0036 0020     		movs	r0, #0
 154 0038 FFF7FEFF 		bl	adc_GetResult16
 155 003c 0300     		movs	r3, r0
 156 003e 3B63     		str	r3, [r7, #48]
  40:main.c        ****         analog2 = adc_GetResult16(1);
 157              		.loc 1 40 0 discriminator 3
 158 0040 0120     		movs	r0, #1
 159 0042 FFF7FEFF 		bl	adc_GetResult16
 160 0046 0300     		movs	r3, r0
 161 0048 FB62     		str	r3, [r7, #44]
  41:main.c        ****         sprintf(buffer, "Flex Sensor 1: %d Flex Sensor 2: %d\n", analog1, analog2);
 162              		.loc 1 41 0 discriminator 3
 163 004a FB6A     		ldr	r3, [r7, #44]
 164 004c 3A6B     		ldr	r2, [r7, #48]
 165 004e 0949     		ldr	r1, .L9+4
 166 0050 3800     		movs	r0, r7
 167 0052 FFF7FEFF 		bl	sprintf
  42:main.c        ****         //print
  43:main.c        ****         CyDelay(100);
 168              		.loc 1 43 0 discriminator 3
 169 0056 6420     		movs	r0, #100
 170 0058 FFF7FEFF 		bl	CyDelay
  37:main.c        ****         adc_IsEndConversion(adc_WAIT_FOR_RESULT);
 171              		.loc 1 37 0 discriminator 3
 172 005c 7B6B     		ldr	r3, [r7, #52]
 173 005e 0133     		adds	r3, r3, #1
 174 0060 7B63     		str	r3, [r7, #52]
ARM GAS  C:\Users\Jacob\AppData\Local\Temp\ccAyAbem.s 			page 5


 175              	.L7:
  37:main.c        ****         adc_IsEndConversion(adc_WAIT_FOR_RESULT);
 176              		.loc 1 37 0 is_stmt 0 discriminator 1
 177 0062 7B6B     		ldr	r3, [r7, #52]
 178 0064 632B     		cmp	r3, #99
 179 0066 E3DD     		ble	.L8
 180              	.LBE2:
  44:main.c        ****     }
  45:main.c        **** }
 181              		.loc 1 45 0 is_stmt 1
 182 0068 C046     		nop
 183 006a BD46     		mov	sp, r7
 184 006c 0FB0     		add	sp, sp, #60
 185              		@ sp needed
 186 006e 90BD     		pop	{r4, r7, pc}
 187              	.L10:
 188              		.align	2
 189              	.L9:
 190 0070 28000000 		.word	.LC1
 191 0074 00000000 		.word	.LC3
 192              		.cfi_endproc
 193              	.LFE37:
 194              		.size	testFlex, .-testFlex
 195              		.section	.text.testMotor,"ax",%progbits
 196              		.align	2
 197              		.global	testMotor
 198              		.code	16
 199              		.thumb_func
 200              		.type	testMotor, %function
 201              	testMotor:
 202              	.LFB38:
  46:main.c        **** 
  47:main.c        **** void testMotor(){
 203              		.loc 1 47 0
 204              		.cfi_startproc
 205              		@ args = 0, pretend = 0, frame = 0
 206              		@ frame_needed = 1, uses_anonymous_args = 0
 207 0000 80B5     		push	{r7, lr}
 208              		.cfi_def_cfa_offset 8
 209              		.cfi_offset 7, -8
 210              		.cfi_offset 14, -4
 211 0002 00AF     		add	r7, sp, #0
 212              		.cfi_def_cfa_register 7
  48:main.c        ****     motorA_Write(0);
 213              		.loc 1 48 0
 214 0004 0020     		movs	r0, #0
 215 0006 FFF7FEFF 		bl	motorA_Write
  49:main.c        ****     motorB_Write(1);
 216              		.loc 1 49 0
 217 000a 0120     		movs	r0, #1
 218 000c FFF7FEFF 		bl	motorB_Write
  50:main.c        ****     CyDelay(2000);
 219              		.loc 1 50 0
 220 0010 FA23     		movs	r3, #250
 221 0012 DB00     		lsls	r3, r3, #3
 222 0014 1800     		movs	r0, r3
 223 0016 FFF7FEFF 		bl	CyDelay
ARM GAS  C:\Users\Jacob\AppData\Local\Temp\ccAyAbem.s 			page 6


  51:main.c        ****     motorA_Write(1);
 224              		.loc 1 51 0
 225 001a 0120     		movs	r0, #1
 226 001c FFF7FEFF 		bl	motorA_Write
  52:main.c        ****     motorB_Write(0);
 227              		.loc 1 52 0
 228 0020 0020     		movs	r0, #0
 229 0022 FFF7FEFF 		bl	motorB_Write
  53:main.c        ****     CyDelay(2000);
 230              		.loc 1 53 0
 231 0026 FA23     		movs	r3, #250
 232 0028 DB00     		lsls	r3, r3, #3
 233 002a 1800     		movs	r0, r3
 234 002c FFF7FEFF 		bl	CyDelay
  54:main.c        ****     motorA_Write(0);
 235              		.loc 1 54 0
 236 0030 0020     		movs	r0, #0
 237 0032 FFF7FEFF 		bl	motorA_Write
  55:main.c        **** }
 238              		.loc 1 55 0
 239 0036 C046     		nop
 240 0038 BD46     		mov	sp, r7
 241              		@ sp needed
 242 003a 80BD     		pop	{r7, pc}
 243              		.cfi_endproc
 244              	.LFE38:
 245              		.size	testMotor, .-testMotor
 246              		.section	.text.testBuzzer,"ax",%progbits
 247              		.align	2
 248              		.global	testBuzzer
 249              		.code	16
 250              		.thumb_func
 251              		.type	testBuzzer, %function
 252              	testBuzzer:
 253              	.LFB39:
  56:main.c        **** 
  57:main.c        **** void testBuzzer(){
 254              		.loc 1 57 0
 255              		.cfi_startproc
 256              		@ args = 0, pretend = 0, frame = 0
 257              		@ frame_needed = 1, uses_anonymous_args = 0
 258 0000 80B5     		push	{r7, lr}
 259              		.cfi_def_cfa_offset 8
 260              		.cfi_offset 7, -8
 261              		.cfi_offset 14, -4
 262 0002 00AF     		add	r7, sp, #0
 263              		.cfi_def_cfa_register 7
  58:main.c        ****     pwmBuzzer_WriteCompare(50);
 264              		.loc 1 58 0
 265 0004 3220     		movs	r0, #50
 266 0006 FFF7FEFF 		bl	pwmBuzzer_WriteCompare
  59:main.c        ****     CyDelay(3000);
 267              		.loc 1 59 0
 268 000a 074B     		ldr	r3, .L13
 269 000c 1800     		movs	r0, r3
 270 000e FFF7FEFF 		bl	CyDelay
  60:main.c        ****     pwmBuzzer_WriteCompare(0);
ARM GAS  C:\Users\Jacob\AppData\Local\Temp\ccAyAbem.s 			page 7


 271              		.loc 1 60 0
 272 0012 0020     		movs	r0, #0
 273 0014 FFF7FEFF 		bl	pwmBuzzer_WriteCompare
  61:main.c        ****     CyDelay(3000);
 274              		.loc 1 61 0
 275 0018 034B     		ldr	r3, .L13
 276 001a 1800     		movs	r0, r3
 277 001c FFF7FEFF 		bl	CyDelay
  62:main.c        **** }
 278              		.loc 1 62 0
 279 0020 C046     		nop
 280 0022 BD46     		mov	sp, r7
 281              		@ sp needed
 282 0024 80BD     		pop	{r7, pc}
 283              	.L14:
 284 0026 C046     		.align	2
 285              	.L13:
 286 0028 B80B0000 		.word	3000
 287              		.cfi_endproc
 288              	.LFE39:
 289              		.size	testBuzzer, .-testBuzzer
 290              		.section	.text.initializeSubsystems,"ax",%progbits
 291              		.align	2
 292              		.global	initializeSubsystems
 293              		.code	16
 294              		.thumb_func
 295              		.type	initializeSubsystems, %function
 296              	initializeSubsystems:
 297              	.LFB40:
  63:main.c        **** 
  64:main.c        **** void initializeSubsystems(){
 298              		.loc 1 64 0
 299              		.cfi_startproc
 300              		@ args = 0, pretend = 0, frame = 0
 301              		@ frame_needed = 1, uses_anonymous_args = 0
 302 0000 80B5     		push	{r7, lr}
 303              		.cfi_def_cfa_offset 8
 304              		.cfi_offset 7, -8
 305              		.cfi_offset 14, -4
 306 0002 00AF     		add	r7, sp, #0
 307              		.cfi_def_cfa_register 7
  65:main.c        ****     pwmBuzzer_Start();
 308              		.loc 1 65 0
 309 0004 FFF7FEFF 		bl	pwmBuzzer_Start
  66:main.c        ****     pwmBuzzer_WriteCompare(0);
 310              		.loc 1 66 0
 311 0008 0020     		movs	r0, #0
 312 000a FFF7FEFF 		bl	pwmBuzzer_WriteCompare
  67:main.c        ****     adc_Start();
 313              		.loc 1 67 0
 314 000e FFF7FEFF 		bl	adc_Start
  68:main.c        ****     adc_StartConvert();
 315              		.loc 1 68 0
 316 0012 FFF7FEFF 		bl	adc_StartConvert
  69:main.c        ****     uart2_Start();
 317              		.loc 1 69 0
 318 0016 FFF7FEFF 		bl	uart2_Start
ARM GAS  C:\Users\Jacob\AppData\Local\Temp\ccAyAbem.s 			page 8


  70:main.c        ****     CyBle_Start(StackEventHandler);
 319              		.loc 1 70 0
 320 001a 034B     		ldr	r3, .L16
 321 001c 1800     		movs	r0, r3
 322 001e FFF7FEFF 		bl	CyBle_Start
  71:main.c        **** }
 323              		.loc 1 71 0
 324 0022 C046     		nop
 325 0024 BD46     		mov	sp, r7
 326              		@ sp needed
 327 0026 80BD     		pop	{r7, pc}
 328              	.L17:
 329              		.align	2
 330              	.L16:
 331 0028 00000000 		.word	StackEventHandler
 332              		.cfi_endproc
 333              	.LFE40:
 334              		.size	initializeSubsystems, .-initializeSubsystems
 335              		.section	.text.flexGet,"ax",%progbits
 336              		.align	2
 337              		.global	flexGet
 338              		.code	16
 339              		.thumb_func
 340              		.type	flexGet, %function
 341              	flexGet:
 342              	.LFB41:
  72:main.c        **** 
  73:main.c        **** int flexGet(int num){
 343              		.loc 1 73 0
 344              		.cfi_startproc
 345              		@ args = 0, pretend = 0, frame = 8
 346              		@ frame_needed = 1, uses_anonymous_args = 0
 347 0000 80B5     		push	{r7, lr}
 348              		.cfi_def_cfa_offset 8
 349              		.cfi_offset 7, -8
 350              		.cfi_offset 14, -4
 351 0002 82B0     		sub	sp, sp, #8
 352              		.cfi_def_cfa_offset 16
 353 0004 00AF     		add	r7, sp, #0
 354              		.cfi_def_cfa_register 7
 355 0006 7860     		str	r0, [r7, #4]
  74:main.c        ****     adc_IsEndConversion(adc_WAIT_FOR_RESULT);
 356              		.loc 1 74 0
 357 0008 0220     		movs	r0, #2
 358 000a FFF7FEFF 		bl	adc_IsEndConversion
  75:main.c        ****     return adc_GetResult16(num);
 359              		.loc 1 75 0
 360 000e 7B68     		ldr	r3, [r7, #4]
 361 0010 1800     		movs	r0, r3
 362 0012 FFF7FEFF 		bl	adc_GetResult16
 363 0016 0300     		movs	r3, r0
  76:main.c        **** }
 364              		.loc 1 76 0
 365 0018 1800     		movs	r0, r3
 366 001a BD46     		mov	sp, r7
 367 001c 02B0     		add	sp, sp, #8
 368              		@ sp needed
ARM GAS  C:\Users\Jacob\AppData\Local\Temp\ccAyAbem.s 			page 9


 369 001e 80BD     		pop	{r7, pc}
 370              		.cfi_endproc
 371              	.LFE41:
 372              		.size	flexGet, .-flexGet
 373              		.section	.text.buzzerSet,"ax",%progbits
 374              		.align	2
 375              		.global	buzzerSet
 376              		.code	16
 377              		.thumb_func
 378              		.type	buzzerSet, %function
 379              	buzzerSet:
 380              	.LFB42:
  77:main.c        **** void buzzerSet(int compare){
 381              		.loc 1 77 0
 382              		.cfi_startproc
 383              		@ args = 0, pretend = 0, frame = 8
 384              		@ frame_needed = 1, uses_anonymous_args = 0
 385 0000 80B5     		push	{r7, lr}
 386              		.cfi_def_cfa_offset 8
 387              		.cfi_offset 7, -8
 388              		.cfi_offset 14, -4
 389 0002 82B0     		sub	sp, sp, #8
 390              		.cfi_def_cfa_offset 16
 391 0004 00AF     		add	r7, sp, #0
 392              		.cfi_def_cfa_register 7
 393 0006 7860     		str	r0, [r7, #4]
  78:main.c        ****     pwmBuzzer_WriteCompare(compare);
 394              		.loc 1 78 0
 395 0008 7B68     		ldr	r3, [r7, #4]
 396 000a DBB2     		uxtb	r3, r3
 397 000c 1800     		movs	r0, r3
 398 000e FFF7FEFF 		bl	pwmBuzzer_WriteCompare
  79:main.c        **** }
 399              		.loc 1 79 0
 400 0012 C046     		nop
 401 0014 BD46     		mov	sp, r7
 402 0016 02B0     		add	sp, sp, #8
 403              		@ sp needed
 404 0018 80BD     		pop	{r7, pc}
 405              		.cfi_endproc
 406              	.LFE42:
 407              		.size	buzzerSet, .-buzzerSet
 408              		.comm	flexA,4,4
 409              		.comm	flexB,4,4
 410 001a C046     		.section	.text.updateFlexSensors,"ax",%progbits
 411              		.align	2
 412              		.global	updateFlexSensors
 413              		.code	16
 414              		.thumb_func
 415              		.type	updateFlexSensors, %function
 416              	updateFlexSensors:
 417              	.LFB43:
  80:main.c        **** 
  81:main.c        **** int flexA, flexB;
  82:main.c        **** void updateFlexSensors(){
 418              		.loc 1 82 0
 419              		.cfi_startproc
ARM GAS  C:\Users\Jacob\AppData\Local\Temp\ccAyAbem.s 			page 10


 420              		@ args = 0, pretend = 0, frame = 0
 421              		@ frame_needed = 1, uses_anonymous_args = 0
 422 0000 80B5     		push	{r7, lr}
 423              		.cfi_def_cfa_offset 8
 424              		.cfi_offset 7, -8
 425              		.cfi_offset 14, -4
 426 0002 00AF     		add	r7, sp, #0
 427              		.cfi_def_cfa_register 7
  83:main.c        ****     flexA = flexGet(0)-500;
 428              		.loc 1 83 0
 429 0004 0020     		movs	r0, #0
 430 0006 FFF7FEFF 		bl	flexGet
 431 000a 0300     		movs	r3, r0
 432 000c F53B     		subs	r3, r3, #245
 433 000e FF3B     		subs	r3, r3, #255
 434 0010 1A00     		movs	r2, r3
 435 0012 064B     		ldr	r3, .L22
 436 0014 1A60     		str	r2, [r3]
  84:main.c        ****     flexB = flexGet(1)-650;
 437              		.loc 1 84 0
 438 0016 0120     		movs	r0, #1
 439 0018 FFF7FEFF 		bl	flexGet
 440 001c 0300     		movs	r3, r0
 441 001e 044A     		ldr	r2, .L22+4
 442 0020 9A18     		adds	r2, r3, r2
 443 0022 044B     		ldr	r3, .L22+8
 444 0024 1A60     		str	r2, [r3]
  85:main.c        **** }
 445              		.loc 1 85 0
 446 0026 C046     		nop
 447 0028 BD46     		mov	sp, r7
 448              		@ sp needed
 449 002a 80BD     		pop	{r7, pc}
 450              	.L23:
 451              		.align	2
 452              	.L22:
 453 002c 00000000 		.word	flexA
 454 0030 76FDFFFF 		.word	-650
 455 0034 00000000 		.word	flexB
 456              		.cfi_endproc
 457              	.LFE43:
 458              		.size	updateFlexSensors, .-updateFlexSensors
 459              		.section	.text.activateAlarm,"ax",%progbits
 460              		.align	2
 461              		.global	activateAlarm
 462              		.code	16
 463              		.thumb_func
 464              		.type	activateAlarm, %function
 465              	activateAlarm:
 466              	.LFB44:
  86:main.c        **** void activateAlarm(int on){
 467              		.loc 1 86 0
 468              		.cfi_startproc
 469              		@ args = 0, pretend = 0, frame = 8
 470              		@ frame_needed = 1, uses_anonymous_args = 0
 471 0000 80B5     		push	{r7, lr}
 472              		.cfi_def_cfa_offset 8
ARM GAS  C:\Users\Jacob\AppData\Local\Temp\ccAyAbem.s 			page 11


 473              		.cfi_offset 7, -8
 474              		.cfi_offset 14, -4
 475 0002 82B0     		sub	sp, sp, #8
 476              		.cfi_def_cfa_offset 16
 477 0004 00AF     		add	r7, sp, #0
 478              		.cfi_def_cfa_register 7
 479 0006 7860     		str	r0, [r7, #4]
  87:main.c        ****     motorA_Write(on);
 480              		.loc 1 87 0
 481 0008 7B68     		ldr	r3, [r7, #4]
 482 000a DBB2     		uxtb	r3, r3
 483 000c 1800     		movs	r0, r3
 484 000e FFF7FEFF 		bl	motorA_Write
  88:main.c        ****     motorB_Write(on);
 485              		.loc 1 88 0
 486 0012 7B68     		ldr	r3, [r7, #4]
 487 0014 DBB2     		uxtb	r3, r3
 488 0016 1800     		movs	r0, r3
 489 0018 FFF7FEFF 		bl	motorB_Write
  89:main.c        ****     pwmBuzzer_WriteCompare(50*on);
 490              		.loc 1 89 0
 491 001c 7B68     		ldr	r3, [r7, #4]
 492 001e DBB2     		uxtb	r3, r3
 493 0020 3222     		movs	r2, #50
 494 0022 5343     		muls	r3, r2
 495 0024 DBB2     		uxtb	r3, r3
 496 0026 1800     		movs	r0, r3
 497 0028 FFF7FEFF 		bl	pwmBuzzer_WriteCompare
  90:main.c        **** }
 498              		.loc 1 90 0
 499 002c C046     		nop
 500 002e BD46     		mov	sp, r7
 501 0030 02B0     		add	sp, sp, #8
 502              		@ sp needed
 503 0032 80BD     		pop	{r7, pc}
 504              		.cfi_endproc
 505              	.LFE44:
 506              		.size	activateAlarm, .-activateAlarm
 507              		.section	.rodata
 508 0051 000000   		.align	2
 509              	.LC8:
 510 0054 57616974 		.ascii	"Waiting            \000"
 510      696E6720 
 510      20202020 
 510      20202020 
 510      20202000 
 511              		.align	2
 512              	.LC12:
 513 0068 536C6565 		.ascii	"Sleeping            \000"
 513      70696E67 
 513      20202020 
 513      20202020 
 513      20202020 
 514 007d 000000   		.align	2
 515              	.LC14:
 516 0080 57616B65 		.ascii	"Wakeup!             \000"
 516      75702120 
ARM GAS  C:\Users\Jacob\AppData\Local\Temp\ccAyAbem.s 			page 12


 516      20202020 
 516      20202020 
 516      20202020 
 517 0095 000000   		.align	2
 518              	.LC16:
 519 0098 596F7520 		.ascii	"You slept peacefully\000"
 519      736C6570 
 519      74207065 
 519      61636566 
 519      756C6C79 
 520 00ad 000000   		.align	2
 521              	.LC18:
 522 00b0 596F7520 		.ascii	"You slept restlessly\000"
 522      736C6570 
 522      74207265 
 522      73746C65 
 522      73736C79 
 523              		.section	.text.main,"ax",%progbits
 524              		.align	2
 525              		.global	main
 526              		.code	16
 527              		.thumb_func
 528              		.type	main, %function
 529              	main:
 530              	.LFB45:
  91:main.c        **** 
  92:main.c        **** int main()
  93:main.c        **** {
 531              		.loc 1 93 0
 532              		.cfi_startproc
 533              		@ args = 0, pretend = 0, frame = 64
 534              		@ frame_needed = 1, uses_anonymous_args = 0
 535 0000 90B5     		push	{r4, r7, lr}
 536              		.cfi_def_cfa_offset 12
 537              		.cfi_offset 4, -12
 538              		.cfi_offset 7, -8
 539              		.cfi_offset 14, -4
 540 0002 91B0     		sub	sp, sp, #68
 541              		.cfi_def_cfa_offset 80
 542 0004 00AF     		add	r7, sp, #0
 543              		.cfi_def_cfa_register 7
  94:main.c        ****     /* Place your initialization/startup code here (e.g. MyInst_Start()) */
  95:main.c        ****     //StandardDisplayInit();
  96:main.c        ****     
  97:main.c        ****     CyGlobalIntEnable;
 544              		.loc 1 97 0
 545              		.syntax divided
 546              	@ 97 "main.c" 1
 547 0006 62B6     		CPSIE   i
 548              	@ 0 "" 2
  98:main.c        ****     char text[32];
  99:main.c        ****     int threshold = 500;
 549              		.loc 1 99 0
 550              		.thumb
 551              		.syntax unified
 552 0008 FA23     		movs	r3, #250
 553 000a 5B00     		lsls	r3, r3, #1
ARM GAS  C:\Users\Jacob\AppData\Local\Temp\ccAyAbem.s 			page 13


 554 000c 7B62     		str	r3, [r7, #36]
 100:main.c        ****     
 101:main.c        ****     initializeSubsystems();
 555              		.loc 1 101 0
 556 000e FFF7FEFF 		bl	initializeSubsystems
 102:main.c        ****     sprintf(text, "Waiting            ");
 557              		.loc 1 102 0
 558 0012 3B1D     		adds	r3, r7, #4
 559 0014 674A     		ldr	r2, .L45
 560 0016 13CA     		ldmia	r2!, {r0, r1, r4}
 561 0018 13C3     		stmia	r3!, {r0, r1, r4}
 562 001a 03CA     		ldmia	r2!, {r0, r1}
 563 001c 03C3     		stmia	r3!, {r0, r1}
 103:main.c        ****     DisplayMessage(text, sizeof(text));
 564              		.loc 1 103 0
 565 001e 3B1D     		adds	r3, r7, #4
 566 0020 2021     		movs	r1, #32
 567 0022 1800     		movs	r0, r3
 568 0024 FFF7FEFF 		bl	DisplayMessage
 569              	.L44:
 570              	.LBB3:
 571              	.LBB4:
 104:main.c        ****     
 105:main.c        ****     while(1)
 106:main.c        ****     {   
 107:main.c        ****         for(int i=0; i< 100100; i++){
 572              		.loc 1 107 0
 573 0028 0023     		movs	r3, #0
 574 002a FB63     		str	r3, [r7, #60]
 575 002c 04E0     		b	.L26
 576              	.L27:
 108:main.c        ****             CyBle_ProcessEvents();
 577              		.loc 1 108 0 discriminator 3
 578 002e FFF7FEFF 		bl	CyBle_ProcessEvents
 107:main.c        ****             CyBle_ProcessEvents();
 579              		.loc 1 107 0 discriminator 3
 580 0032 FB6B     		ldr	r3, [r7, #60]
 581 0034 0133     		adds	r3, r3, #1
 582 0036 FB63     		str	r3, [r7, #60]
 583              	.L26:
 107:main.c        ****             CyBle_ProcessEvents();
 584              		.loc 1 107 0 is_stmt 0 discriminator 1
 585 0038 FB6B     		ldr	r3, [r7, #60]
 586 003a 5F4A     		ldr	r2, .L45+4
 587 003c 9342     		cmp	r3, r2
 588 003e F6DD     		ble	.L27
 589              	.LBE4:
 109:main.c        ****         }
 110:main.c        ****         //waiting for sleeper
 111:main.c        ****         updateFlexSensors();
 590              		.loc 1 111 0 is_stmt 1
 591 0040 FFF7FEFF 		bl	updateFlexSensors
 112:main.c        ****         while(flexA > threshold && flexB > threshold){
 592              		.loc 1 112 0
 593 0044 15E0     		b	.L28
 594              	.L32:
 113:main.c        ****             CyDelay(100);
ARM GAS  C:\Users\Jacob\AppData\Local\Temp\ccAyAbem.s 			page 14


 595              		.loc 1 113 0
 596 0046 6420     		movs	r0, #100
 597 0048 FFF7FEFF 		bl	CyDelay
 114:main.c        ****             updateFlexSensors();
 598              		.loc 1 114 0
 599 004c FFF7FEFF 		bl	updateFlexSensors
 115:main.c        ****             //sprintf(text, "Waiting ");
 116:main.c        ****             DisplayMessage(text, sizeof(text));
 600              		.loc 1 116 0
 601 0050 3B1D     		adds	r3, r7, #4
 602 0052 2021     		movs	r1, #32
 603 0054 1800     		movs	r0, r3
 604 0056 FFF7FEFF 		bl	DisplayMessage
 605              	.LBB5:
 117:main.c        ****             for(int i=0; i< 100100; i++){
 606              		.loc 1 117 0
 607 005a 0023     		movs	r3, #0
 608 005c BB63     		str	r3, [r7, #56]
 609 005e 04E0     		b	.L29
 610              	.L30:
 118:main.c        ****                 CyBle_ProcessEvents();
 611              		.loc 1 118 0 discriminator 3
 612 0060 FFF7FEFF 		bl	CyBle_ProcessEvents
 117:main.c        ****             for(int i=0; i< 100100; i++){
 613              		.loc 1 117 0 discriminator 3
 614 0064 BB6B     		ldr	r3, [r7, #56]
 615 0066 0133     		adds	r3, r3, #1
 616 0068 BB63     		str	r3, [r7, #56]
 617              	.L29:
 117:main.c        ****             for(int i=0; i< 100100; i++){
 618              		.loc 1 117 0 is_stmt 0 discriminator 1
 619 006a BB6B     		ldr	r3, [r7, #56]
 620 006c 524A     		ldr	r2, .L45+4
 621 006e 9342     		cmp	r3, r2
 622 0070 F6DD     		ble	.L30
 623              	.L28:
 624              	.LBE5:
 112:main.c        ****             CyDelay(100);
 625              		.loc 1 112 0 is_stmt 1
 626 0072 524B     		ldr	r3, .L45+8
 627 0074 1A68     		ldr	r2, [r3]
 628 0076 7B6A     		ldr	r3, [r7, #36]
 629 0078 9A42     		cmp	r2, r3
 630 007a 04DD     		ble	.L31
 112:main.c        ****             CyDelay(100);
 631              		.loc 1 112 0 is_stmt 0 discriminator 1
 632 007c 504B     		ldr	r3, .L45+12
 633 007e 1A68     		ldr	r2, [r3]
 634 0080 7B6A     		ldr	r3, [r7, #36]
 635 0082 9A42     		cmp	r2, r3
 636 0084 DFDC     		bgt	.L32
 637              	.L31:
 119:main.c        ****             }
 120:main.c        ****         }
 121:main.c        ****         sprintf(text, "Sleeping            ");
 638              		.loc 1 121 0 is_stmt 1
 639 0086 3B1D     		adds	r3, r7, #4
ARM GAS  C:\Users\Jacob\AppData\Local\Temp\ccAyAbem.s 			page 15


 640 0088 4E4A     		ldr	r2, .L45+16
 641 008a 13CA     		ldmia	r2!, {r0, r1, r4}
 642 008c 13C3     		stmia	r3!, {r0, r1, r4}
 643 008e 03CA     		ldmia	r2!, {r0, r1}
 644 0090 03C3     		stmia	r3!, {r0, r1}
 645 0092 1278     		ldrb	r2, [r2]
 646 0094 1A70     		strb	r2, [r3]
 122:main.c        ****         DisplayMessage(text, sizeof(text));
 647              		.loc 1 122 0
 648 0096 3B1D     		adds	r3, r7, #4
 649 0098 2021     		movs	r1, #32
 650 009a 1800     		movs	r0, r3
 651 009c FFF7FEFF 		bl	DisplayMessage
 123:main.c        ****         CyBle_ProcessEvents();
 652              		.loc 1 123 0
 653 00a0 FFF7FEFF 		bl	CyBle_ProcessEvents
 124:main.c        ****         //sleeping
 125:main.c        ****         int k=0;
 654              		.loc 1 125 0
 655 00a4 0023     		movs	r3, #0
 656 00a6 7B63     		str	r3, [r7, #52]
 657              	.LBB6:
 126:main.c        ****         for(int i=0; i < 10000; i+=100){
 658              		.loc 1 126 0
 659 00a8 0023     		movs	r3, #0
 660 00aa 3B63     		str	r3, [r7, #48]
 661 00ac 18E0     		b	.L33
 662              	.L35:
 127:main.c        ****             updateFlexSensors();
 663              		.loc 1 127 0
 664 00ae FFF7FEFF 		bl	updateFlexSensors
 128:main.c        ****             if(flexA > 500 && flexB > 500)
 665              		.loc 1 128 0
 666 00b2 424B     		ldr	r3, .L45+8
 667 00b4 1A68     		ldr	r2, [r3]
 668 00b6 FA23     		movs	r3, #250
 669 00b8 5B00     		lsls	r3, r3, #1
 670 00ba 9A42     		cmp	r2, r3
 671 00bc 08DD     		ble	.L34
 672              		.loc 1 128 0 is_stmt 0 discriminator 1
 673 00be 404B     		ldr	r3, .L45+12
 674 00c0 1A68     		ldr	r2, [r3]
 675 00c2 FA23     		movs	r3, #250
 676 00c4 5B00     		lsls	r3, r3, #1
 677 00c6 9A42     		cmp	r2, r3
 678 00c8 02DD     		ble	.L34
 129:main.c        ****                 k++;
 679              		.loc 1 129 0 is_stmt 1
 680 00ca 7B6B     		ldr	r3, [r7, #52]
 681 00cc 0133     		adds	r3, r3, #1
 682 00ce 7B63     		str	r3, [r7, #52]
 683              	.L34:
 130:main.c        ****             CyBle_ProcessEvents();
 684              		.loc 1 130 0 discriminator 2
 685 00d0 FFF7FEFF 		bl	CyBle_ProcessEvents
 131:main.c        ****             CyDelay(100);
 686              		.loc 1 131 0 discriminator 2
ARM GAS  C:\Users\Jacob\AppData\Local\Temp\ccAyAbem.s 			page 16


 687 00d4 6420     		movs	r0, #100
 688 00d6 FFF7FEFF 		bl	CyDelay
 126:main.c        ****             updateFlexSensors();
 689              		.loc 1 126 0 discriminator 2
 690 00da 3B6B     		ldr	r3, [r7, #48]
 691 00dc 6433     		adds	r3, r3, #100
 692 00de 3B63     		str	r3, [r7, #48]
 693              	.L33:
 126:main.c        ****             updateFlexSensors();
 694              		.loc 1 126 0 is_stmt 0 discriminator 1
 695 00e0 3B6B     		ldr	r3, [r7, #48]
 696 00e2 394A     		ldr	r2, .L45+20
 697 00e4 9342     		cmp	r3, r2
 698 00e6 E2DD     		ble	.L35
 699              	.LBE6:
 132:main.c        ****         }
 133:main.c        ****         activateAlarm(1);
 700              		.loc 1 133 0 is_stmt 1
 701 00e8 0120     		movs	r0, #1
 702 00ea FFF7FEFF 		bl	activateAlarm
 134:main.c        ****         updateFlexSensors();
 703              		.loc 1 134 0
 704 00ee FFF7FEFF 		bl	updateFlexSensors
 135:main.c        ****         sprintf(text, "Wakeup!             ");
 705              		.loc 1 135 0
 706 00f2 3B1D     		adds	r3, r7, #4
 707 00f4 354A     		ldr	r2, .L45+24
 708 00f6 13CA     		ldmia	r2!, {r0, r1, r4}
 709 00f8 13C3     		stmia	r3!, {r0, r1, r4}
 710 00fa 03CA     		ldmia	r2!, {r0, r1}
 711 00fc 03C3     		stmia	r3!, {r0, r1}
 712 00fe 1278     		ldrb	r2, [r2]
 713 0100 1A70     		strb	r2, [r3]
 136:main.c        ****         DisplayMessage(text, sizeof(text));
 714              		.loc 1 136 0
 715 0102 3B1D     		adds	r3, r7, #4
 716 0104 2021     		movs	r1, #32
 717 0106 1800     		movs	r0, r3
 718 0108 FFF7FEFF 		bl	DisplayMessage
 137:main.c        ****         CyBle_ProcessEvents();
 719              		.loc 1 137 0
 720 010c FFF7FEFF 		bl	CyBle_ProcessEvents
 138:main.c        ****         //waiting to wakeup
 139:main.c        ****         int j =0;
 721              		.loc 1 139 0
 722 0110 0023     		movs	r3, #0
 723 0112 FB62     		str	r3, [r7, #44]
 140:main.c        ****         while(j<50){
 724              		.loc 1 140 0
 725 0114 1EE0     		b	.L36
 726              	.L39:
 141:main.c        ****             updateFlexSensors();
 727              		.loc 1 141 0
 728 0116 FFF7FEFF 		bl	updateFlexSensors
 142:main.c        ****             if(flexA > 500 && flexB > 500){
 729              		.loc 1 142 0
 730 011a 284B     		ldr	r3, .L45+8
ARM GAS  C:\Users\Jacob\AppData\Local\Temp\ccAyAbem.s 			page 17


 731 011c 1A68     		ldr	r2, [r3]
 732 011e FA23     		movs	r3, #250
 733 0120 5B00     		lsls	r3, r3, #1
 734 0122 9A42     		cmp	r2, r3
 735 0124 0CDD     		ble	.L37
 736              		.loc 1 142 0 is_stmt 0 discriminator 1
 737 0126 264B     		ldr	r3, .L45+12
 738 0128 1A68     		ldr	r2, [r3]
 739 012a FA23     		movs	r3, #250
 740 012c 5B00     		lsls	r3, r3, #1
 741 012e 9A42     		cmp	r2, r3
 742 0130 06DD     		ble	.L37
 143:main.c        ****                 activateAlarm(0);
 743              		.loc 1 143 0 is_stmt 1
 744 0132 0020     		movs	r0, #0
 745 0134 FFF7FEFF 		bl	activateAlarm
 144:main.c        ****                 j++;
 746              		.loc 1 144 0
 747 0138 FB6A     		ldr	r3, [r7, #44]
 748 013a 0133     		adds	r3, r3, #1
 749 013c FB62     		str	r3, [r7, #44]
 750 013e 04E0     		b	.L38
 751              	.L37:
 145:main.c        ****             }
 146:main.c        ****             else{
 147:main.c        ****                 activateAlarm(1);
 752              		.loc 1 147 0
 753 0140 0120     		movs	r0, #1
 754 0142 FFF7FEFF 		bl	activateAlarm
 148:main.c        ****                 j=0;
 755              		.loc 1 148 0
 756 0146 0023     		movs	r3, #0
 757 0148 FB62     		str	r3, [r7, #44]
 758              	.L38:
 149:main.c        ****             }
 150:main.c        ****             CyBle_ProcessEvents();
 759              		.loc 1 150 0
 760 014a FFF7FEFF 		bl	CyBle_ProcessEvents
 151:main.c        ****             CyDelay(100);
 761              		.loc 1 151 0
 762 014e 6420     		movs	r0, #100
 763 0150 FFF7FEFF 		bl	CyDelay
 764              	.L36:
 140:main.c        ****             updateFlexSensors();
 765              		.loc 1 140 0
 766 0154 FB6A     		ldr	r3, [r7, #44]
 767 0156 312B     		cmp	r3, #49
 768 0158 DDDD     		ble	.L39
 152:main.c        ****         }
 153:main.c        ****         activateAlarm(0);
 769              		.loc 1 153 0
 770 015a 0020     		movs	r0, #0
 771 015c FFF7FEFF 		bl	activateAlarm
 154:main.c        ****         
 155:main.c        ****         if(k<3)
 772              		.loc 1 155 0
 773 0160 7B6B     		ldr	r3, [r7, #52]
ARM GAS  C:\Users\Jacob\AppData\Local\Temp\ccAyAbem.s 			page 18


 774 0162 022B     		cmp	r3, #2
 775 0164 08DC     		bgt	.L40
 156:main.c        ****             sprintf(text, "You slept peacefully");
 776              		.loc 1 156 0
 777 0166 3B1D     		adds	r3, r7, #4
 778 0168 194A     		ldr	r2, .L45+28
 779 016a 13CA     		ldmia	r2!, {r0, r1, r4}
 780 016c 13C3     		stmia	r3!, {r0, r1, r4}
 781 016e 03CA     		ldmia	r2!, {r0, r1}
 782 0170 03C3     		stmia	r3!, {r0, r1}
 783 0172 1278     		ldrb	r2, [r2]
 784 0174 1A70     		strb	r2, [r3]
 785 0176 07E0     		b	.L41
 786              	.L40:
 157:main.c        ****         else 
 158:main.c        ****             sprintf(text, "You slept restlessly");
 787              		.loc 1 158 0
 788 0178 3B1D     		adds	r3, r7, #4
 789 017a 164A     		ldr	r2, .L45+32
 790 017c 13CA     		ldmia	r2!, {r0, r1, r4}
 791 017e 13C3     		stmia	r3!, {r0, r1, r4}
 792 0180 03CA     		ldmia	r2!, {r0, r1}
 793 0182 03C3     		stmia	r3!, {r0, r1}
 794 0184 1278     		ldrb	r2, [r2]
 795 0186 1A70     		strb	r2, [r3]
 796              	.L41:
 159:main.c        ****         DisplayMessage(text, sizeof(text));
 797              		.loc 1 159 0
 798 0188 3B1D     		adds	r3, r7, #4
 799 018a 2021     		movs	r1, #32
 800 018c 1800     		movs	r0, r3
 801 018e FFF7FEFF 		bl	DisplayMessage
 802              	.LBB7:
 160:main.c        ****         
 161:main.c        ****         for(int i=0; i< 500; i++){
 803              		.loc 1 161 0
 804 0192 0023     		movs	r3, #0
 805 0194 BB62     		str	r3, [r7, #40]
 806 0196 07E0     		b	.L42
 807              	.L43:
 162:main.c        ****             CyBle_ProcessEvents();
 808              		.loc 1 162 0 discriminator 3
 809 0198 FFF7FEFF 		bl	CyBle_ProcessEvents
 163:main.c        ****             CyDelay(10);
 810              		.loc 1 163 0 discriminator 3
 811 019c 0A20     		movs	r0, #10
 812 019e FFF7FEFF 		bl	CyDelay
 161:main.c        ****             CyBle_ProcessEvents();
 813              		.loc 1 161 0 discriminator 3
 814 01a2 BB6A     		ldr	r3, [r7, #40]
 815 01a4 0133     		adds	r3, r3, #1
 816 01a6 BB62     		str	r3, [r7, #40]
 817              	.L42:
 161:main.c        ****             CyBle_ProcessEvents();
 818              		.loc 1 161 0 is_stmt 0 discriminator 1
 819 01a8 BA6A     		ldr	r2, [r7, #40]
 820 01aa F423     		movs	r3, #244
ARM GAS  C:\Users\Jacob\AppData\Local\Temp\ccAyAbem.s 			page 19


 821 01ac FF33     		adds	r3, r3, #255
 822 01ae 9A42     		cmp	r2, r3
 823 01b0 F2DD     		ble	.L43
 824              	.LBE7:
 825              	.LBE3:
 164:main.c        ****         }
 165:main.c        ****     }
 826              		.loc 1 165 0 is_stmt 1
 827 01b2 39E7     		b	.L44
 828              	.L46:
 829              		.align	2
 830              	.L45:
 831 01b4 54000000 		.word	.LC8
 832 01b8 03870100 		.word	100099
 833 01bc 00000000 		.word	flexA
 834 01c0 00000000 		.word	flexB
 835 01c4 68000000 		.word	.LC12
 836 01c8 0F270000 		.word	9999
 837 01cc 80000000 		.word	.LC14
 838 01d0 98000000 		.word	.LC16
 839 01d4 B0000000 		.word	.LC18
 840              		.cfi_endproc
 841              	.LFE45:
 842              		.size	main, .-main
 843              		.text
 844              	.Letext0:
 845              		.file 2 "./main.h"
 846              		.file 3 "Generated_Source\\PSoC4/cytypes.h"
 847              		.file 4 "Generated_Source\\PSoC4/BLE_Stack.h"