ARM GAS  C:\Users\Jacob\AppData\Local\Temp\ccKVY4Eg.s 			page 1


   1              		.syntax unified
   2              		.cpu cortex-m0
   3              		.fpu softvfp
   4              		.eabi_attribute 20, 1
   5              		.eabi_attribute 21, 1
   6              		.eabi_attribute 23, 3
   7              		.eabi_attribute 24, 1
   8              		.eabi_attribute 25, 1
   9              		.eabi_attribute 26, 1
  10              		.eabi_attribute 30, 1
  11              		.eabi_attribute 34, 0
  12              		.eabi_attribute 18, 4
  13              		.thumb
  14              		.syntax unified
  15              		.file	"main.c"
  16              		.text
  17              	.Ltext0:
  18              		.cfi_sections	.debug_frame
  19              		.global	__aeabi_d2iz
  20              		.section	.text.main,"ax",%progbits
  21              		.align	2
  22              		.global	main
  23              		.code	16
  24              		.thumb_func
  25              		.type	main, %function
  26              	main:
  27              	.LFB36:
  28              		.file 1 "main.c"
   1:main.c        **** /******************************************************************************
   2:main.c        **** * Project Name		: USB-UART-EGR
   3:main.c        **** * File Name			: main.c
   4:main.c        **** * Version 			: 1.1 (Updated by Dr. Jordan)
   5:main.c        **** * Device Used		: CY8C4245AXI-483
   6:main.c        **** * Software Used		: PSoC Creator 3.0 SP1
   7:main.c        **** * Compiler    		: ARMGCC 4.4.1
   8:main.c        **** * Related Hardware	: CY8CKIT-042 PSoC 4 Pioneer Kit 
   9:main.c        **** *
  10:main.c        **** *
  11:main.c        **** ******************************************************************************
  12:main.c        **** *                           THEORY OF OPERATION
  13:main.c        **** * This project demonstrates UART communication over the kit USB-UART Bridge. 
  14:main.c        **** * The project uses the SCB based UART component which stores the users input in an
  15:main.c        **** * array. when the user press the return key the PSoC will send what has be in the 
  16:main.c        **** * array, then clears the array and sets the pointer back to o.
  17:main.c        **** * 
  18:main.c        **** * UART is configured with
  19:main.c        **** * UART Basic
  20:main.c        **** * 	Mode: Standard
  21:main.c        **** * 	Direction: TX+RX
  22:main.c        **** * 	Baud rate (kbps): 9600
  23:main.c        **** * 	Data bits: 8 bits
  24:main.c        **** * 	Parity: None
  25:main.c        **** * 	Stop bits: 1 bit
  26:main.c        **** * 	Physical connections needed:
  27:main.c        **** * 	Jumper between P0[5] and PSoC 5LP Header J8 P12[6]
  28:main.c        **** * UART Advanced
  29:main.c        **** * 	RX buffer size: 8
ARM GAS  C:\Users\Jacob\AppData\Local\Temp\ccKVY4Eg.s 			page 2


  30:main.c        **** * 	TX buffer size: 8
  31:main.c        **** * 	Interrupt: None
  32:main.c        **** *
  33:main.c        **** * Physical Connetion
  34:main.c        **** * Connect jumper wire from the UART RX (P0[4]) of PSoC 4 to J8_10 (P12[7]) of PSoC 5LP
  35:main.c        **** * Connect jumper wire from the UART TX (P0[5]) of PSoC 4 to J8_9 (P12[6]) of PSoC 5LP
  36:main.c        **** * ******************************************************************************/ 
  37:main.c        **** #include <project.h>
  38:main.c        **** #include <stdio.h>
  39:main.c        **** #include <stdlib.h>     // contains strtod(), which converts an ASCII string to a double
  40:main.c        **** #include <string.h>
  41:main.c        **** #include <stdbool.h>
  42:main.c        **** #include <ctype.h>
  43:main.c        **** 
  44:main.c        **** int main()
  45:main.c        **** {
  29              		.loc 1 45 0
  30              		.cfi_startproc
  31              		@ args = 0, pretend = 0, frame = 200
  32              		@ frame_needed = 0, uses_anonymous_args = 0
  33 0000 F0B5     		push	{r4, r5, r6, r7, lr}
  34              		.cfi_def_cfa_offset 20
  35              		.cfi_offset 4, -20
  36              		.cfi_offset 5, -16
  37              		.cfi_offset 6, -12
  38              		.cfi_offset 7, -8
  39              		.cfi_offset 14, -4
  40 0002 4746     		mov	r7, r8
  41 0004 80B4     		push	{r7}
  42              		.cfi_def_cfa_offset 24
  43              		.cfi_offset 8, -24
  44 0006 B2B0     		sub	sp, sp, #200
  45              		.cfi_def_cfa_offset 224
  46              	.LVL0:
  46:main.c        ****     char rxbuffer1[100];                 // UART receive buffer
  47:main.c        ****     int rxindex1;                        // UART receive buffer index
  48:main.c        ****     char rxbuffer2[100];                 // UART receive buffer
  49:main.c        ****     int rxindex2;  
  50:main.c        ****     
  51:main.c        ****     double number;                      // floating-point number
  52:main.c        ****        int numRows=0;
  53:main.c        ****    int numCols=0;
  54:main.c        ****     
  55:main.c        ****    int i=1;
  56:main.c        ****    int j =1;
  57:main.c        ****    char c='A';
  58:main.c        ****     
  59:main.c        ****     
  60:main.c        ****     uint8 ch1;                           // variable to hold received character
  61:main.c        ****     uint8 ch2;
  62:main.c        ****     
  63:main.c        ****     // initialize and clear rxbuffer
  64:main.c        ****     for( rxindex1 = 0; rxindex1 < 100; rxindex1++ ) {
  47              		.loc 1 64 0
  48 0008 0023     		movs	r3, #0
  49 000a 03E0     		b	.L2
  50              	.LVL1:
ARM GAS  C:\Users\Jacob\AppData\Local\Temp\ccKVY4Eg.s 			page 3


  51              	.L3:
  65:main.c        ****         rxbuffer1[rxindex1] = 0u;
  52              		.loc 1 65 0 discriminator 3
  53 000c 0021     		movs	r1, #0
  54 000e 19AA     		add	r2, sp, #100
  55 0010 D154     		strb	r1, [r2, r3]
  64:main.c        ****         rxbuffer1[rxindex1] = 0u;
  56              		.loc 1 64 0 discriminator 3
  57 0012 0133     		adds	r3, r3, #1
  58              	.LVL2:
  59              	.L2:
  64:main.c        ****         rxbuffer1[rxindex1] = 0u;
  60              		.loc 1 64 0 is_stmt 0 discriminator 1
  61 0014 632B     		cmp	r3, #99
  62 0016 F9DD     		ble	.L3
  63 0018 0023     		movs	r3, #0
  64              	.LVL3:
  65 001a 03E0     		b	.L4
  66              	.LVL4:
  67              	.L5:
  66:main.c        ****     }
  67:main.c        ****     rxindex1 = 0;                        // initialize rxindex
  68:main.c        ****         // initialize and clear rxbuffer
  69:main.c        ****     for( rxindex2 = 0; rxindex2 < 100; rxindex2++ ) {
  70:main.c        ****         rxbuffer2[rxindex2] = 0u;
  68              		.loc 1 70 0 is_stmt 1 discriminator 3
  69 001c 0022     		movs	r2, #0
  70 001e 6946     		mov	r1, sp
  71 0020 CA54     		strb	r2, [r1, r3]
  69:main.c        ****         rxbuffer2[rxindex2] = 0u;
  72              		.loc 1 69 0 discriminator 3
  73 0022 0133     		adds	r3, r3, #1
  74              	.LVL5:
  75              	.L4:
  69:main.c        ****         rxbuffer2[rxindex2] = 0u;
  76              		.loc 1 69 0 is_stmt 0 discriminator 1
  77 0024 632B     		cmp	r3, #99
  78 0026 F9DD     		ble	.L5
  79              	.LVL6:
  71:main.c        ****     }
  72:main.c        ****     rxindex2 = 0; 
  73:main.c        ****    
  74:main.c        ****     uart_Start();  // start UART
  80              		.loc 1 74 0 is_stmt 1
  81 0028 FFF7FEFF 		bl	uart_Start
  82              	.LVL7:
  75:main.c        ****     
  76:main.c        ****     // printf( "COM OPEN!\n" );
  77:main.c        **** 	uart_PutString( "COM OPEN!\n" );// display initialization string
  83              		.loc 1 77 0
  84 002c 2B48     		ldr	r0, .L16
  85 002e FFF7FEFF 		bl	uart_PutString
  86              	.LVL8:
  78:main.c        **** 	
  79:main.c        ****     // printf( "Type a number: " );
  80:main.c        ****     uart_PutString( "Type a number: " );
  87              		.loc 1 80 0
ARM GAS  C:\Users\Jacob\AppData\Local\Temp\ccKVY4Eg.s 			page 4


  88 0032 2B48     		ldr	r0, .L16+4
  89 0034 FFF7FEFF 		bl	uart_PutString
  90              	.LVL9:
  67:main.c        ****         // initialize and clear rxbuffer
  91              		.loc 1 67 0
  92 0038 0026     		movs	r6, #0
  81:main.c        ****     
  82:main.c        ****     // read string until the user presses return
  83:main.c        ****     // scanf( "%s", rxbuffer );
  84:main.c        ****     while( ch1 != '\r' ) {
  93              		.loc 1 84 0
  94 003a 09E0     		b	.L6
  95              	.LVL10:
  96              	.L8:
  85:main.c        ****         ch1 = uart_GetChar();        // get the next character
  97              		.loc 1 85 0
  98 003c FFF7FEFF 		bl	uart_GetChar
  99              	.LVL11:
 100 0040 0500     		movs	r5, r0
 101              	.LVL12:
  86:main.c        ****         
  87:main.c        ****         if( ch1 != '\r' && ch1 != 0u ) {  // if the character is not a return or null
 102              		.loc 1 87 0
 103 0042 0D28     		cmp	r0, #13
 104 0044 04D0     		beq	.L6
 105              		.loc 1 87 0 is_stmt 0 discriminator 1
 106 0046 0028     		cmp	r0, #0
 107 0048 02D0     		beq	.L6
  88:main.c        ****             rxbuffer1[rxindex1] = ch1;     // store it in the rxbuffer string
 108              		.loc 1 88 0 is_stmt 1
 109 004a 19AB     		add	r3, sp, #100
 110 004c 9855     		strb	r0, [r3, r6]
  89:main.c        ****             rxindex1++;                  // increment the rxbuffer index
 111              		.loc 1 89 0
 112 004e 0136     		adds	r6, r6, #1
 113              	.LVL13:
 114              	.L6:
  84:main.c        ****         ch1 = uart_GetChar();        // get the next character
 115              		.loc 1 84 0
 116 0050 0D2D     		cmp	r5, #13
 117 0052 F3D1     		bne	.L8
  90:main.c        ****         }
  91:main.c        ****     }
  92:main.c        **** 
  93:main.c        ****     uart_PutString( "Type a number: " );
 118              		.loc 1 93 0
 119 0054 2248     		ldr	r0, .L16+4
 120 0056 FFF7FEFF 		bl	uart_PutString
 121              	.LVL14:
  72:main.c        ****    
 122              		.loc 1 72 0
 123 005a 0025     		movs	r5, #0
 124              	.LVL15:
  94:main.c        ****        
  95:main.c        ****     while( ch2 != '\r' ) {
 125              		.loc 1 95 0
 126 005c 09E0     		b	.L9
ARM GAS  C:\Users\Jacob\AppData\Local\Temp\ccKVY4Eg.s 			page 5


 127              	.LVL16:
 128              	.L11:
  96:main.c        ****         ch2 = uart_GetChar();        // get the next character
 129              		.loc 1 96 0
 130 005e FFF7FEFF 		bl	uart_GetChar
 131              	.LVL17:
 132 0062 0400     		movs	r4, r0
 133              	.LVL18:
  97:main.c        ****         
  98:main.c        ****         if( ch2 != '\r' && ch2 != 0u ) {  // if the character is not a return or null
 134              		.loc 1 98 0
 135 0064 0D28     		cmp	r0, #13
 136 0066 04D0     		beq	.L9
 137              		.loc 1 98 0 is_stmt 0 discriminator 1
 138 0068 0028     		cmp	r0, #0
 139 006a 02D0     		beq	.L9
  99:main.c        ****             rxbuffer2[rxindex2] = ch2;     // store it in the rxbuffer string
 140              		.loc 1 99 0 is_stmt 1
 141 006c 6B46     		mov	r3, sp
 142 006e 5855     		strb	r0, [r3, r5]
 100:main.c        ****             rxindex2++;                  // increment the rxbuffer index
 143              		.loc 1 100 0
 144 0070 0135     		adds	r5, r5, #1
 145              	.LVL19:
 146              	.L9:
  95:main.c        ****         ch2 = uart_GetChar();        // get the next character
 147              		.loc 1 95 0
 148 0072 0D2C     		cmp	r4, #13
 149 0074 F3D1     		bne	.L11
 101:main.c        ****         }
 102:main.c        ****     }
 103:main.c        ****     uart_PutChar('\n');
 150              		.loc 1 103 0
 151 0076 0A20     		movs	r0, #10
 152 0078 FFF7FEFF 		bl	uart_PutChar
 153              	.LVL20:
 104:main.c        ****     
 105:main.c        ****     numRows = strtod(rxbuffer1,0);
 154              		.loc 1 105 0
 155 007c 0021     		movs	r1, #0
 156 007e 19A8     		add	r0, sp, #100
 157 0080 FFF7FEFF 		bl	strtod
 158              	.LVL21:
 159 0084 FFF7FEFF 		bl	__aeabi_d2iz
 160              	.LVL22:
 161 0088 8046     		mov	r8, r0
 162              	.LVL23:
 106:main.c        ****     numCols = strtod(rxbuffer2, 0);
 163              		.loc 1 106 0
 164 008a 0021     		movs	r1, #0
 165 008c 6846     		mov	r0, sp
 166              	.LVL24:
 167 008e FFF7FEFF 		bl	strtod
 168              	.LVL25:
 169 0092 FFF7FEFF 		bl	__aeabi_d2iz
 170              	.LVL26:
 171 0096 0700     		movs	r7, r0
ARM GAS  C:\Users\Jacob\AppData\Local\Temp\ccKVY4Eg.s 			page 6


 172              	.LVL27:
  55:main.c        ****    int j =1;
 173              		.loc 1 55 0
 174 0098 0126     		movs	r6, #1
 175              	.LVL28:
 107:main.c        ****     
 108:main.c        ****     // output the float as a string and store it in rxbuffer
 109:main.c        ****     // NOTE: In order to properly output doubles, you must enable them in the compiler
 110:main.c        ****     // See http://www.cypress.com/?id=4&rID=87354 for more details
 111:main.c        **** 
 112:main.c        ****    while(i <= numRows){
 176              		.loc 1 112 0
 177 009a 11E0     		b	.L12
 178              	.LVL29:
 179              	.L13:
 113:main.c        ****       while(j <= numCols){
 114:main.c        ****          sprintf( rxbuffer1, "%d%c ", i, c );
 180              		.loc 1 114 0
 181 009c 2300     		movs	r3, r4
 182 009e 3200     		movs	r2, r6
 183 00a0 1049     		ldr	r1, .L16+8
 184 00a2 19A8     		add	r0, sp, #100
 185 00a4 FFF7FEFF 		bl	sprintf
 186              	.LVL30:
 115:main.c        ****          uart_PutString(rxbuffer1);
 187              		.loc 1 115 0
 188 00a8 19A8     		add	r0, sp, #100
 189 00aa FFF7FEFF 		bl	uart_PutString
 190              	.LVL31:
 116:main.c        ****          j++;
 191              		.loc 1 116 0
 192 00ae 0135     		adds	r5, r5, #1
 193              	.LVL32:
 117:main.c        ****          ++c;
 194              		.loc 1 117 0
 195 00b0 0134     		adds	r4, r4, #1
 196              	.LVL33:
 197 00b2 E4B2     		uxtb	r4, r4
 198              	.LVL34:
 199 00b4 01E0     		b	.L14
 200              	.LVL35:
 201              	.L15:
 202 00b6 4124     		movs	r4, #65
 203 00b8 0125     		movs	r5, #1
 204              	.LVL36:
 205              	.L14:
 113:main.c        ****          sprintf( rxbuffer1, "%d%c ", i, c );
 206              		.loc 1 113 0
 207 00ba BD42     		cmp	r5, r7
 208 00bc EEDD     		ble	.L13
 118:main.c        ****       }
 119:main.c        ****       i++;
 209              		.loc 1 119 0
 210 00be 0136     		adds	r6, r6, #1
 211              	.LVL37:
 212              	.L12:
 112:main.c        ****       while(j <= numCols){
ARM GAS  C:\Users\Jacob\AppData\Local\Temp\ccKVY4Eg.s 			page 7


 213              		.loc 1 112 0
 214 00c0 4645     		cmp	r6, r8
 215 00c2 F8DD     		ble	.L15
 120:main.c        ****       j=1;
 121:main.c        ****       c='A';
 122:main.c        ****    }
 123:main.c        ****     //sprintf( rxbuffer, "%d%c ", i, c );
 124:main.c        ****     
 125:main.c        ****     // output the new string to the UART
 126:main.c        ****     // printf( "\n%s\n", rxbuffer );
 127:main.c        ****     uart_PutChar('\n');
 216              		.loc 1 127 0
 217 00c4 0A20     		movs	r0, #10
 218 00c6 FFF7FEFF 		bl	uart_PutChar
 219              	.LVL38:
 128:main.c        ****     uart_PutChar('\n');
 220              		.loc 1 128 0
 221 00ca 0A20     		movs	r0, #10
 222 00cc FFF7FEFF 		bl	uart_PutChar
 223              	.LVL39:
 129:main.c        ****     
 130:main.c        ****     return 0;
 131:main.c        **** }
 224              		.loc 1 131 0
 225 00d0 0020     		movs	r0, #0
 226 00d2 32B0     		add	sp, sp, #200
 227              		@ sp needed
 228              	.LVL40:
 229              	.LVL41:
 230              	.LVL42:
 231 00d4 04BC     		pop	{r2}
 232 00d6 9046     		mov	r8, r2
 233 00d8 F0BD     		pop	{r4, r5, r6, r7, pc}
 234              	.L17:
 235 00da C046     		.align	2
 236              	.L16:
 237 00dc 00000000 		.word	.LC0
 238 00e0 0C000000 		.word	.LC2
 239 00e4 1C000000 		.word	.LC4
 240              		.cfi_endproc
 241              	.LFE36:
 242              		.size	main, .-main
 243              		.section	.rodata.str1.4,"aMS",%progbits,1
 244              		.align	2
 245              	.LC0:
 246 0000 434F4D20 		.ascii	"COM OPEN!\012\000"
 246      4F50454E 
 246      210A00
 247 000b 00       		.space	1
 248              	.LC2:
 249 000c 54797065 		.ascii	"Type a number: \000"
 249      2061206E 
 249      756D6265 
 249      723A2000 
 250              	.LC4:
 251 001c 25642563 		.ascii	"%d%c \000"
 251      2000
ARM GAS  C:\Users\Jacob\AppData\Local\Temp\ccKVY4Eg.s 			page 8


 252              		.text
 253              	.Letext0:
 254              		.file 2 "Generated_Source\\PSoC4/uart.h"
 255              		.file 3 "c:\\program files (x86)\\cypress\\psoc creator\\4.1\\psoc creator\\import\\gnu\\arm\\5.4.
 256              		.file 4 "c:\\program files (x86)\\cypress\\psoc creator\\4.1\\psoc creator\\import\\gnu\\arm\\5.4.
 257              		.file 5 "Generated_Source\\PSoC4/cytypes.h"