ARM GAS  C:\Users\Jacob\AppData\Local\Temp\ccFn1uj1.s 			page 1


   1              		.syntax unified
   2              		.cpu cortex-m0
   3              		.fpu softvfp
   4              		.eabi_attribute 20, 1
   5              		.eabi_attribute 21, 1
   6              		.eabi_attribute 23, 3
   7              		.eabi_attribute 24, 1
   8              		.eabi_attribute 25, 1
   9              		.eabi_attribute 26, 1
  10              		.eabi_attribute 30, 1
  11              		.eabi_attribute 34, 0
  12              		.eabi_attribute 18, 4
  13              		.thumb
  14              		.syntax unified
  15              		.file	"BLE_1.c"
  16              		.text
  17              	.Ltext0:
  18              		.cfi_sections	.debug_frame
  19              		.section	.text.CyBle_ChangeAdLocalName,"ax",%progbits
  20              		.align	2
  21              		.code	16
  22              		.thumb_func
  23              		.type	CyBle_ChangeAdLocalName, %function
  24              	CyBle_ChangeAdLocalName:
  25              	.LFB9:
  26              		.file 1 "Generated_Source\\PSoC4\\BLE_1.c"
   1:Generated_Source\PSoC4/BLE_1.c **** /***************************************************************************//**
   2:Generated_Source\PSoC4/BLE_1.c **** * \file CYBLE.c
   3:Generated_Source\PSoC4/BLE_1.c **** * \version 3.30
   4:Generated_Source\PSoC4/BLE_1.c **** * 
   5:Generated_Source\PSoC4/BLE_1.c **** * \brief
   6:Generated_Source\PSoC4/BLE_1.c **** *  This file contains the source code for the Common APIs of the BLE Component.
   7:Generated_Source\PSoC4/BLE_1.c **** * 
   8:Generated_Source\PSoC4/BLE_1.c **** ********************************************************************************
   9:Generated_Source\PSoC4/BLE_1.c **** * \copyright
  10:Generated_Source\PSoC4/BLE_1.c **** * Copyright 2014-2016, Cypress Semiconductor Corporation.  All rights reserved.
  11:Generated_Source\PSoC4/BLE_1.c **** * You may use this file only in accordance with the license, terms, conditions,
  12:Generated_Source\PSoC4/BLE_1.c **** * disclaimers, and limitations in the end user license agreement accompanying
  13:Generated_Source\PSoC4/BLE_1.c **** * the software package with which this file was provided.
  14:Generated_Source\PSoC4/BLE_1.c **** *******************************************************************************/
  15:Generated_Source\PSoC4/BLE_1.c **** 
  16:Generated_Source\PSoC4/BLE_1.c **** #include "BLE_1_eventHandler.h"
  17:Generated_Source\PSoC4/BLE_1.c **** #include "BLE_1_HAL_PVT.h"
  18:Generated_Source\PSoC4/BLE_1.c **** #include <stdlib.h>
  19:Generated_Source\PSoC4/BLE_1.c **** 
  20:Generated_Source\PSoC4/BLE_1.c **** 
  21:Generated_Source\PSoC4/BLE_1.c **** /***************************************
  22:Generated_Source\PSoC4/BLE_1.c **** * Function Prototypes
  23:Generated_Source\PSoC4/BLE_1.c **** ***************************************/
  24:Generated_Source\PSoC4/BLE_1.c **** 
  25:Generated_Source\PSoC4/BLE_1.c **** #if(CYBLE_GATT_ROLE_SERVER)
  26:Generated_Source\PSoC4/BLE_1.c ****     #if(CYBLE_GAP_ROLE_PERIPHERAL)
  27:Generated_Source\PSoC4/BLE_1.c ****         static void CyBle_ChangeAdLocalName(const char8 name[], uint8 dest);
  28:Generated_Source\PSoC4/BLE_1.c ****     #endif /* (CYBLE_GAP_ROLE_PERIPHERAL) */
  29:Generated_Source\PSoC4/BLE_1.c **** #endif /* (CYBLE_GATT_ROLE_SERVER) */
  30:Generated_Source\PSoC4/BLE_1.c ****     
  31:Generated_Source\PSoC4/BLE_1.c **** 
ARM GAS  C:\Users\Jacob\AppData\Local\Temp\ccFn1uj1.s 			page 2


  32:Generated_Source\PSoC4/BLE_1.c **** /***************************************
  33:Generated_Source\PSoC4/BLE_1.c **** * Global Variables
  34:Generated_Source\PSoC4/BLE_1.c **** ***************************************/
  35:Generated_Source\PSoC4/BLE_1.c **** 
  36:Generated_Source\PSoC4/BLE_1.c **** /* Indicates whether the BLE has been initialized. The variable is initialized to
  37:Generated_Source\PSoC4/BLE_1.c ****    0 and set to 1 the first time CyBle_Start() is called. This allows the component
  38:Generated_Source\PSoC4/BLE_1.c ****    to restart without reinitialization after the first call to the CyBle_Start() 
  39:Generated_Source\PSoC4/BLE_1.c ****    routine. If reinitialization of the component is required, the variable should 
  40:Generated_Source\PSoC4/BLE_1.c ****    be set to 0 before the CyBle_Start() routine is called. Alternatively, the BLE
  41:Generated_Source\PSoC4/BLE_1.c ****    can be reinitialized by calling the CyBle_Init() function.
  42:Generated_Source\PSoC4/BLE_1.c **** */
  43:Generated_Source\PSoC4/BLE_1.c **** uint8  cyBle_initVar = 0u;
  44:Generated_Source\PSoC4/BLE_1.c **** 
  45:Generated_Source\PSoC4/BLE_1.c **** /* Allocate RAM memory for stack. This buffer could be reused by application when 
  46:Generated_Source\PSoC4/BLE_1.c ****    BLE component is stopped. For export mode buffer is allocated in heap.
  47:Generated_Source\PSoC4/BLE_1.c **** */
  48:Generated_Source\PSoC4/BLE_1.c **** #if(CYBLE_SHARING_MODE_EXPORT)
  49:Generated_Source\PSoC4/BLE_1.c ****     
  50:Generated_Source\PSoC4/BLE_1.c **** uint8 *cyBle_stackMemoryRam = NULL;
  51:Generated_Source\PSoC4/BLE_1.c **** 
  52:Generated_Source\PSoC4/BLE_1.c **** #else
  53:Generated_Source\PSoC4/BLE_1.c **** 
  54:Generated_Source\PSoC4/BLE_1.c **** CYBLE_CYALIGNED_BEGIN CY_NOINIT uint8 cyBle_stackMemoryRam[CYBLE_STACK_RAM_SIZE] CYBLE_CYALIGNED_EN
  55:Generated_Source\PSoC4/BLE_1.c **** 
  56:Generated_Source\PSoC4/BLE_1.c **** #endif  /* CYBLE_SHARING_MODE_EXPORT */
  57:Generated_Source\PSoC4/BLE_1.c **** 
  58:Generated_Source\PSoC4/BLE_1.c **** #if(CYBLE_GAP_ROLE_PERIPHERAL || CYBLE_GAP_ROLE_BROADCASTER)
  59:Generated_Source\PSoC4/BLE_1.c **** 
  60:Generated_Source\PSoC4/BLE_1.c **** CYBLE_GAPP_DISC_PARAM_T cyBle_discoveryParam =
  61:Generated_Source\PSoC4/BLE_1.c **** {
  62:Generated_Source\PSoC4/BLE_1.c ****     0x0020u,    /* uint16 advertising_interval_min */
  63:Generated_Source\PSoC4/BLE_1.c ****     0x0030u,    /* uint16 advertising_interval_max */
  64:Generated_Source\PSoC4/BLE_1.c ****     CYBLE_GAPP_CONNECTABLE_UNDIRECTED_ADV, /* uint8 advertising_type */
  65:Generated_Source\PSoC4/BLE_1.c ****     0x00u,      /* uint8 own_addr_type */
  66:Generated_Source\PSoC4/BLE_1.c ****     0x00u,      /* uint8 direct_addr_type */
  67:Generated_Source\PSoC4/BLE_1.c ****     {0x00u, 0x00u, 0x00u, 0x50u, 0xA0u, 0x00u}, /* uint8* direct_addr */
  68:Generated_Source\PSoC4/BLE_1.c ****     0x07u,      /* uint8 advertising_channel_map */
  69:Generated_Source\PSoC4/BLE_1.c ****     0x00u,      /* uint8 advertising_filter_policy */
  70:Generated_Source\PSoC4/BLE_1.c **** };
  71:Generated_Source\PSoC4/BLE_1.c **** 
  72:Generated_Source\PSoC4/BLE_1.c **** CYBLE_GAPP_DISC_DATA_T cyBle_discoveryData =
  73:Generated_Source\PSoC4/BLE_1.c **** {
  74:Generated_Source\PSoC4/BLE_1.c ****     { 0x02u, 0x01u, 0x06u, 0x03u, 0x09u, 0x48u, 0x52u,
  75:Generated_Source\PSoC4/BLE_1.c ****     0x05u, 0x03u, 0x0Du, 0x18u, 0x0Au, 0x18u, 0x00u, 0x00u,
  76:Generated_Source\PSoC4/BLE_1.c ****     0x00u, 0x00u, 0x00u, 0x00u, 0x00u, 0x00u, 0x00u, 0x00u,
  77:Generated_Source\PSoC4/BLE_1.c ****     0x00u, 0x00u, 0x00u, 0x00u, 0x00u, 0x00u, 0x00u, 0x00u }, /* uint8 advertising_data[CYBLE_MAX_A
  78:Generated_Source\PSoC4/BLE_1.c ****     0x0Du,      /* uint8 adv_data_length */
  79:Generated_Source\PSoC4/BLE_1.c **** };
  80:Generated_Source\PSoC4/BLE_1.c **** 
  81:Generated_Source\PSoC4/BLE_1.c **** CYBLE_GAPP_SCAN_RSP_DATA_T cyBle_scanRspData =
  82:Generated_Source\PSoC4/BLE_1.c **** {
  83:Generated_Source\PSoC4/BLE_1.c ****     { 0x03u, 0x09u, 0x48u, 0x52u, 0x00u, 0x00u, 0x00u,
  84:Generated_Source\PSoC4/BLE_1.c ****     0x00u, 0x00u, 0x00u, 0x00u, 0x00u, 0x00u, 0x00u, 0x00u,
  85:Generated_Source\PSoC4/BLE_1.c ****     0x00u, 0x00u, 0x00u, 0x00u, 0x00u, 0x00u, 0x00u, 0x00u,
  86:Generated_Source\PSoC4/BLE_1.c ****     0x00u, 0x00u, 0x00u, 0x00u, 0x00u, 0x00u, 0x00u, 0x00u }, /* uint8 scan_rsp_data[CYBLE_MAX_SCAN
  87:Generated_Source\PSoC4/BLE_1.c ****     0x04u,      /* uint8 scan_rsp_data_length */
  88:Generated_Source\PSoC4/BLE_1.c **** };
ARM GAS  C:\Users\Jacob\AppData\Local\Temp\ccFn1uj1.s 			page 3


  89:Generated_Source\PSoC4/BLE_1.c **** 
  90:Generated_Source\PSoC4/BLE_1.c **** /* This variable of type CYBLE_GAPP_DISC_MODE_INFO_T is present only when 
  91:Generated_Source\PSoC4/BLE_1.c ****    the BLE component is configured for Peripheral GAP role or Central and 
  92:Generated_Source\PSoC4/BLE_1.c ****    Peripheral GAP role. It contains the Advertisement settings and also the 
  93:Generated_Source\PSoC4/BLE_1.c ****    Advertisement and Scan response data parameters entered in the customizer.
  94:Generated_Source\PSoC4/BLE_1.c ****    This variable can be used by advanced users to change Advertisement settings,
  95:Generated_Source\PSoC4/BLE_1.c ****    Advertisement or Scan response data in runtime. 
  96:Generated_Source\PSoC4/BLE_1.c **** */
  97:Generated_Source\PSoC4/BLE_1.c **** CYBLE_GAPP_DISC_MODE_INFO_T cyBle_discoveryModeInfo =
  98:Generated_Source\PSoC4/BLE_1.c **** {
  99:Generated_Source\PSoC4/BLE_1.c ****     0x02u,      /* uint8 discMode */
 100:Generated_Source\PSoC4/BLE_1.c ****     &cyBle_discoveryParam,
 101:Generated_Source\PSoC4/BLE_1.c ****     &cyBle_discoveryData,
 102:Generated_Source\PSoC4/BLE_1.c ****     &cyBle_scanRspData,
 103:Generated_Source\PSoC4/BLE_1.c ****     0x001Eu,    /* uint16 advTo */
 104:Generated_Source\PSoC4/BLE_1.c **** };
 105:Generated_Source\PSoC4/BLE_1.c **** 
 106:Generated_Source\PSoC4/BLE_1.c **** 
 107:Generated_Source\PSoC4/BLE_1.c **** #endif /* CYBLE_GAP_ROLE_PERIPHERAL || CYBLE_GAP_ROLE_BROADCASTER */
 108:Generated_Source\PSoC4/BLE_1.c **** 
 109:Generated_Source\PSoC4/BLE_1.c **** #if(CYBLE_GAP_ROLE_CENTRAL)
 110:Generated_Source\PSoC4/BLE_1.c ****     
 111:Generated_Source\PSoC4/BLE_1.c **** CYBLE_GAPC_CONN_PARAM_T cyBle_connectionParameters;
 112:Generated_Source\PSoC4/BLE_1.c **** 
 113:Generated_Source\PSoC4/BLE_1.c **** /* Connecting timeout is set to 30 seconds in CyBle_Init function. 
 114:Generated_Source\PSoC4/BLE_1.c ****    Not zero value starts timer in CyBle_GapcConnectDevice API.
 115:Generated_Source\PSoC4/BLE_1.c **** */
 116:Generated_Source\PSoC4/BLE_1.c **** uint16 cyBle_connectingTimeout;
 117:Generated_Source\PSoC4/BLE_1.c ****     
 118:Generated_Source\PSoC4/BLE_1.c **** #endif /* CYBLE_GAP_ROLE_CENTRAL */
 119:Generated_Source\PSoC4/BLE_1.c **** 
 120:Generated_Source\PSoC4/BLE_1.c **** #if(CYBLE_GAP_ROLE_CENTRAL || CYBLE_GAP_ROLE_OBSERVER)
 121:Generated_Source\PSoC4/BLE_1.c ****     
 122:Generated_Source\PSoC4/BLE_1.c **** 
 123:Generated_Source\PSoC4/BLE_1.c ****     
 124:Generated_Source\PSoC4/BLE_1.c **** #endif /* CYBLE_GAP_ROLE_CENTRAL || CYBLE_GAP_ROLE_OBSERVER */
 125:Generated_Source\PSoC4/BLE_1.c **** 
 126:Generated_Source\PSoC4/BLE_1.c **** #if((CYBLE_GAP_ROLE_PERIPHERAL || CYBLE_GAP_ROLE_CENTRAL) && (CYBLE_BONDING_REQUIREMENT == CYBLE_BO
 127:Generated_Source\PSoC4/BLE_1.c **** 
 128:Generated_Source\PSoC4/BLE_1.c **** uint8 cyBle_peerBonding;
 129:Generated_Source\PSoC4/BLE_1.c **** uint8 cyBle_pendingFlashWrite;
 130:Generated_Source\PSoC4/BLE_1.c ****     
 131:Generated_Source\PSoC4/BLE_1.c **** #if(CYBLE_GATT_DB_CCCD_COUNT != 0u)
 132:Generated_Source\PSoC4/BLE_1.c ****     static uint8 cyBle_pendingFlashClearCccdHandle;
 133:Generated_Source\PSoC4/BLE_1.c **** #endif /* CYBLE_GATT_DB_CCCD_COUNT != 0u */
 134:Generated_Source\PSoC4/BLE_1.c ****     
 135:Generated_Source\PSoC4/BLE_1.c **** #endif  /* (CYBLE_BONDING_REQUIREMENT == CYBLE_BONDING_YES) */
 136:Generated_Source\PSoC4/BLE_1.c **** 
 137:Generated_Source\PSoC4/BLE_1.c **** CYBLE_CALLBACK_T CyBle_ApplCallback;
 138:Generated_Source\PSoC4/BLE_1.c **** CYBLE_GAP_BD_ADDR_T cyBle_deviceAddress = {{0x00u, 0x00u, 0x00u, 0x50u, 0xA0u, 0x00u}, 0x00u };
 139:Generated_Source\PSoC4/BLE_1.c **** CYBLE_GAP_BD_ADDR_T * cyBle_sflashDeviceAddress = CYBLE_SFLASH_DEVICE_ADDRESS_PTR;
 140:Generated_Source\PSoC4/BLE_1.c **** 
 141:Generated_Source\PSoC4/BLE_1.c **** 
 142:Generated_Source\PSoC4/BLE_1.c **** /******************************************************************************
 143:Generated_Source\PSoC4/BLE_1.c **** * Function Name: CyBle_Init
 144:Generated_Source\PSoC4/BLE_1.c **** ***************************************************************************//**
 145:Generated_Source\PSoC4/BLE_1.c **** *
ARM GAS  C:\Users\Jacob\AppData\Local\Temp\ccFn1uj1.s 			page 4


 146:Generated_Source\PSoC4/BLE_1.c **** *   Initializes the component with the parameters set in the customizer.
 147:Generated_Source\PSoC4/BLE_1.c **** * 
 148:Generated_Source\PSoC4/BLE_1.c **** *  \return
 149:Generated_Source\PSoC4/BLE_1.c **** *   None
 150:Generated_Source\PSoC4/BLE_1.c **** * 
 151:Generated_Source\PSoC4/BLE_1.c **** ******************************************************************************/
 152:Generated_Source\PSoC4/BLE_1.c **** void CyBle_Init(void)
 153:Generated_Source\PSoC4/BLE_1.c **** {
 154:Generated_Source\PSoC4/BLE_1.c ****     cyBle_eventHandlerFlag = 0u;
 155:Generated_Source\PSoC4/BLE_1.c ****     cyBle_busyStatus = CYBLE_STACK_STATE_FREE;
 156:Generated_Source\PSoC4/BLE_1.c **** 
 157:Generated_Source\PSoC4/BLE_1.c ****     #if(CYBLE_GAP_ROLE_PERIPHERAL || CYBLE_GAP_ROLE_BROADCASTER) 
 158:Generated_Source\PSoC4/BLE_1.c ****         cyBle_advertisingIntervalType = CYBLE_ADVERTISING_FAST; 
 159:Generated_Source\PSoC4/BLE_1.c ****     #endif /* (CYBLE_GAP_ROLE_PERIPHERAL || CYBLE_GAP_ROLE_BROADCASTER)  */
 160:Generated_Source\PSoC4/BLE_1.c ****     #if(CYBLE_GAP_ROLE_CENTRAL || CYBLE_GAP_ROLE_OBSERVER)
 161:Generated_Source\PSoC4/BLE_1.c ****         cyBle_scanningIntervalType = CYBLE_SCANNING_FAST; 
 162:Generated_Source\PSoC4/BLE_1.c ****     #endif /* (CYBLE_GAP_ROLE_CENTRAL || CYBLE_GAP_ROLE_OBSERVER) */
 163:Generated_Source\PSoC4/BLE_1.c ****         
 164:Generated_Source\PSoC4/BLE_1.c ****     /* Init default connection parameters. 
 165:Generated_Source\PSoC4/BLE_1.c ****        Application may change it before initiating a connection */
 166:Generated_Source\PSoC4/BLE_1.c ****     #if(CYBLE_GAP_ROLE_CENTRAL)
 167:Generated_Source\PSoC4/BLE_1.c ****         cyBle_connectionParameters.scanIntv = cyBle_discoveryInfo.scanIntv;
 168:Generated_Source\PSoC4/BLE_1.c ****         cyBle_connectionParameters.scanWindow = cyBle_discoveryInfo.scanWindow;
 169:Generated_Source\PSoC4/BLE_1.c ****         cyBle_connectionParameters.ownAddrType = cyBle_discoveryInfo.ownAddrType;
 170:Generated_Source\PSoC4/BLE_1.c ****         cyBle_connectionParameters.initiatorFilterPolicy = cyBle_discoveryInfo.scanFilterPolicy;
 171:Generated_Source\PSoC4/BLE_1.c ****         cyBle_connectionParameters.connIntvMin = CYBLE_GAPC_CONNECTION_INTERVAL_MIN;
 172:Generated_Source\PSoC4/BLE_1.c ****         cyBle_connectionParameters.connIntvMax = CYBLE_GAPC_CONNECTION_INTERVAL_MAX;
 173:Generated_Source\PSoC4/BLE_1.c ****         cyBle_connectionParameters.connLatency = CYBLE_GAPC_CONNECTION_SLAVE_LATENCY;
 174:Generated_Source\PSoC4/BLE_1.c ****         cyBle_connectionParameters.supervisionTO = CYBLE_GAPC_CONNECTION_TIME_OUT;
 175:Generated_Source\PSoC4/BLE_1.c ****         cyBle_connectionParameters.minCeLength = 0x0000u;
 176:Generated_Source\PSoC4/BLE_1.c ****         cyBle_connectionParameters.maxCeLength = 0xFFFFu;
 177:Generated_Source\PSoC4/BLE_1.c ****         
 178:Generated_Source\PSoC4/BLE_1.c ****         cyBle_connectingTimeout = CYBLE_GAPC_CONNECTING_TIMEOUT;
 179:Generated_Source\PSoC4/BLE_1.c ****     #endif /* CYBLE_GAP_ROLE_CENTRAL */
 180:Generated_Source\PSoC4/BLE_1.c **** 
 181:Generated_Source\PSoC4/BLE_1.c ****     CyBle_ServiceInit();
 182:Generated_Source\PSoC4/BLE_1.c **** 
 183:Generated_Source\PSoC4/BLE_1.c ****     #if((CYBLE_GAP_ROLE_PERIPHERAL || CYBLE_GAP_ROLE_CENTRAL) && (CYBLE_BONDING_REQUIREMENT == CYBL
 184:Generated_Source\PSoC4/BLE_1.c ****         cyBle_pendingFlashWrite = 0u;
 185:Generated_Source\PSoC4/BLE_1.c ****         cyBle_peerBonding = CYBLE_GAP_BONDING_NONE;
 186:Generated_Source\PSoC4/BLE_1.c ****     #endif  /* (CYBLE_BONDING_REQUIREMENT == CYBLE_BONDING_YES) */
 187:Generated_Source\PSoC4/BLE_1.c **** 
 188:Generated_Source\PSoC4/BLE_1.c **** }
 189:Generated_Source\PSoC4/BLE_1.c **** 
 190:Generated_Source\PSoC4/BLE_1.c **** 
 191:Generated_Source\PSoC4/BLE_1.c **** /******************************************************************************
 192:Generated_Source\PSoC4/BLE_1.c **** * Function Name: CyBle_ServiceInit
 193:Generated_Source\PSoC4/BLE_1.c **** ***************************************************************************//**
 194:Generated_Source\PSoC4/BLE_1.c **** * 
 195:Generated_Source\PSoC4/BLE_1.c **** *  Initializes all included services.
 196:Generated_Source\PSoC4/BLE_1.c **** * 
 197:Generated_Source\PSoC4/BLE_1.c **** * \return
 198:Generated_Source\PSoC4/BLE_1.c **** *  None
 199:Generated_Source\PSoC4/BLE_1.c **** * 
 200:Generated_Source\PSoC4/BLE_1.c **** ******************************************************************************/
 201:Generated_Source\PSoC4/BLE_1.c **** void CyBle_ServiceInit(void)
 202:Generated_Source\PSoC4/BLE_1.c **** {
ARM GAS  C:\Users\Jacob\AppData\Local\Temp\ccFn1uj1.s 			page 5


 203:Generated_Source\PSoC4/BLE_1.c ****     #if(CYBLE_GATT_ROLE_CLIENT)
 204:Generated_Source\PSoC4/BLE_1.c ****         /* Check service range before clearing to support partial discovery */
 205:Generated_Source\PSoC4/BLE_1.c ****         if(cyBle_serverInfo[CYBLE_SRVI_GAP].range.startHandle == CYBLE_GATT_INVALID_ATTR_HANDLE_VAL
 206:Generated_Source\PSoC4/BLE_1.c ****         {
 207:Generated_Source\PSoC4/BLE_1.c ****             (void)memset(&cyBle_gapc, 0, sizeof(cyBle_gapc));
 208:Generated_Source\PSoC4/BLE_1.c ****         }
 209:Generated_Source\PSoC4/BLE_1.c ****         if(cyBle_serverInfo[CYBLE_SRVI_GATT].range.startHandle == CYBLE_GATT_INVALID_ATTR_HANDLE_VA
 210:Generated_Source\PSoC4/BLE_1.c ****         {
 211:Generated_Source\PSoC4/BLE_1.c ****             (void)memset(&cyBle_gattc, 0, sizeof(cyBle_gattc));
 212:Generated_Source\PSoC4/BLE_1.c ****         }
 213:Generated_Source\PSoC4/BLE_1.c ****     #endif /* CYBLE_GATT_ROLE_CLIENT */
 214:Generated_Source\PSoC4/BLE_1.c **** 
 215:Generated_Source\PSoC4/BLE_1.c ****    	#ifdef CYBLE_AIOS
 216:Generated_Source\PSoC4/BLE_1.c ****         CyBle_AiosInit();
 217:Generated_Source\PSoC4/BLE_1.c ****     #endif /* CYBLE_AIOS */
 218:Generated_Source\PSoC4/BLE_1.c **** 
 219:Generated_Source\PSoC4/BLE_1.c **** 	#ifdef CYBLE_ANCS
 220:Generated_Source\PSoC4/BLE_1.c ****         CyBle_AncsInit();
 221:Generated_Source\PSoC4/BLE_1.c ****     #endif /* CYBLE_ANCS */
 222:Generated_Source\PSoC4/BLE_1.c **** 	
 223:Generated_Source\PSoC4/BLE_1.c ****     #ifdef CYBLE_ANS
 224:Generated_Source\PSoC4/BLE_1.c ****         CyBle_AnsInit();
 225:Generated_Source\PSoC4/BLE_1.c ****     #endif /* CYBLE_ANS */
 226:Generated_Source\PSoC4/BLE_1.c ****     
 227:Generated_Source\PSoC4/BLE_1.c ****     #ifdef CYBLE_BAS
 228:Generated_Source\PSoC4/BLE_1.c ****         CyBle_BasInit();
 229:Generated_Source\PSoC4/BLE_1.c ****     #endif /* CYBLE_BAS */
 230:Generated_Source\PSoC4/BLE_1.c ****     
 231:Generated_Source\PSoC4/BLE_1.c ****     #ifdef CYBLE_BCS
 232:Generated_Source\PSoC4/BLE_1.c ****         CyBle_BcsInit();
 233:Generated_Source\PSoC4/BLE_1.c ****     #endif /* CYBLE_BCS */
 234:Generated_Source\PSoC4/BLE_1.c **** 
 235:Generated_Source\PSoC4/BLE_1.c ****     #ifdef CYBLE_BLS
 236:Generated_Source\PSoC4/BLE_1.c ****         CyBle_BlsInit();
 237:Generated_Source\PSoC4/BLE_1.c ****     #endif /* CYBLE_BLS */
 238:Generated_Source\PSoC4/BLE_1.c ****     
 239:Generated_Source\PSoC4/BLE_1.c ****     #ifdef CYBLE_BMS
 240:Generated_Source\PSoC4/BLE_1.c ****         CyBle_BmsInit();
 241:Generated_Source\PSoC4/BLE_1.c ****     #endif /* CYBLE_BMS */
 242:Generated_Source\PSoC4/BLE_1.c ****     
 243:Generated_Source\PSoC4/BLE_1.c ****     #ifdef CYBLE_CGMS
 244:Generated_Source\PSoC4/BLE_1.c ****         CyBle_CgmsInit();
 245:Generated_Source\PSoC4/BLE_1.c ****     #endif /* CYBLE_CGMS */
 246:Generated_Source\PSoC4/BLE_1.c **** 
 247:Generated_Source\PSoC4/BLE_1.c ****     #ifdef CYBLE_CPS
 248:Generated_Source\PSoC4/BLE_1.c ****         CyBle_CpsInit();
 249:Generated_Source\PSoC4/BLE_1.c ****     #endif /* CYBLE_CPS */
 250:Generated_Source\PSoC4/BLE_1.c **** 
 251:Generated_Source\PSoC4/BLE_1.c ****     #ifdef CYBLE_CSCS
 252:Generated_Source\PSoC4/BLE_1.c ****         CyBle_CscsInit();
 253:Generated_Source\PSoC4/BLE_1.c ****     #endif /* CYBLE_CSCS */
 254:Generated_Source\PSoC4/BLE_1.c ****     
 255:Generated_Source\PSoC4/BLE_1.c ****     #ifdef CYBLE_CTS
 256:Generated_Source\PSoC4/BLE_1.c ****         CyBle_CtsInit();
 257:Generated_Source\PSoC4/BLE_1.c ****     #endif /* CYBLE_CTS */
 258:Generated_Source\PSoC4/BLE_1.c **** 
 259:Generated_Source\PSoC4/BLE_1.c ****     #ifdef CYBLE_CUSTOM
ARM GAS  C:\Users\Jacob\AppData\Local\Temp\ccFn1uj1.s 			page 6


 260:Generated_Source\PSoC4/BLE_1.c ****         CyBle_CustomInit();
 261:Generated_Source\PSoC4/BLE_1.c ****     #endif /* CYBLE_CUSTOM */
 262:Generated_Source\PSoC4/BLE_1.c **** 
 263:Generated_Source\PSoC4/BLE_1.c ****     #ifdef CYBLE_DIS
 264:Generated_Source\PSoC4/BLE_1.c ****         CyBle_DisInit();
 265:Generated_Source\PSoC4/BLE_1.c ****     #endif /* CYBLE_DIS */
 266:Generated_Source\PSoC4/BLE_1.c **** 
 267:Generated_Source\PSoC4/BLE_1.c ****     #ifdef CYBLE_ESS
 268:Generated_Source\PSoC4/BLE_1.c ****         CyBle_EssInit();
 269:Generated_Source\PSoC4/BLE_1.c ****     #endif /* CYBLE_ESS */
 270:Generated_Source\PSoC4/BLE_1.c ****     
 271:Generated_Source\PSoC4/BLE_1.c ****     #ifdef CYBLE_GLS
 272:Generated_Source\PSoC4/BLE_1.c ****         CyBle_GlsInit();
 273:Generated_Source\PSoC4/BLE_1.c ****     #endif /* CYBLE_GLS */
 274:Generated_Source\PSoC4/BLE_1.c ****     
 275:Generated_Source\PSoC4/BLE_1.c ****     #ifdef CYBLE_HIDS
 276:Generated_Source\PSoC4/BLE_1.c ****         CyBle_HidsInit();
 277:Generated_Source\PSoC4/BLE_1.c ****     #endif /* CYBLE_HIDS */
 278:Generated_Source\PSoC4/BLE_1.c **** 
 279:Generated_Source\PSoC4/BLE_1.c ****     #ifdef CYBLE_HPS
 280:Generated_Source\PSoC4/BLE_1.c ****         CyBle_HpsInit();
 281:Generated_Source\PSoC4/BLE_1.c ****     #endif /* CYBLE_HPS */
 282:Generated_Source\PSoC4/BLE_1.c **** 
 283:Generated_Source\PSoC4/BLE_1.c ****     #ifdef CYBLE_HRS
 284:Generated_Source\PSoC4/BLE_1.c ****         CyBle_HrsInit();
 285:Generated_Source\PSoC4/BLE_1.c ****     #endif /* CYBLE_HRS */
 286:Generated_Source\PSoC4/BLE_1.c ****     
 287:Generated_Source\PSoC4/BLE_1.c ****     #ifdef CYBLE_HTS
 288:Generated_Source\PSoC4/BLE_1.c ****         CyBle_HtsInit();
 289:Generated_Source\PSoC4/BLE_1.c ****     #endif /* CYBLE_RSCS */
 290:Generated_Source\PSoC4/BLE_1.c **** 
 291:Generated_Source\PSoC4/BLE_1.c ****     #ifdef CYBLE_IAS
 292:Generated_Source\PSoC4/BLE_1.c ****         CyBle_IasInit();
 293:Generated_Source\PSoC4/BLE_1.c ****     #endif /* CYBLE_IAS */
 294:Generated_Source\PSoC4/BLE_1.c **** 
 295:Generated_Source\PSoC4/BLE_1.c ****     #ifdef CYBLE_IPS
 296:Generated_Source\PSoC4/BLE_1.c ****         CyBle_IpsInit();
 297:Generated_Source\PSoC4/BLE_1.c ****     #endif /* CYBLE_IPS */
 298:Generated_Source\PSoC4/BLE_1.c ****     
 299:Generated_Source\PSoC4/BLE_1.c ****     #ifdef CYBLE_LLS
 300:Generated_Source\PSoC4/BLE_1.c ****         CyBle_LlsInit();
 301:Generated_Source\PSoC4/BLE_1.c ****     #endif /* CYBLE_LLS */
 302:Generated_Source\PSoC4/BLE_1.c **** 
 303:Generated_Source\PSoC4/BLE_1.c ****     #ifdef CYBLE_LNS
 304:Generated_Source\PSoC4/BLE_1.c ****         CyBle_LnsInit();
 305:Generated_Source\PSoC4/BLE_1.c ****     #endif /* CYBLE_LNS */
 306:Generated_Source\PSoC4/BLE_1.c ****     
 307:Generated_Source\PSoC4/BLE_1.c ****     #ifdef CYBLE_NDCS
 308:Generated_Source\PSoC4/BLE_1.c ****         CyBle_NdcsInit();
 309:Generated_Source\PSoC4/BLE_1.c ****     #endif /* CYBLE_NDCS */
 310:Generated_Source\PSoC4/BLE_1.c ****     
 311:Generated_Source\PSoC4/BLE_1.c ****     #ifdef CYBLE_PASS
 312:Generated_Source\PSoC4/BLE_1.c ****         CyBle_PassInit();
 313:Generated_Source\PSoC4/BLE_1.c ****     #endif /* CYBLE_PASS */
 314:Generated_Source\PSoC4/BLE_1.c ****     
 315:Generated_Source\PSoC4/BLE_1.c ****     #ifdef CYBLE_PLXS
 316:Generated_Source\PSoC4/BLE_1.c ****         CyBle_PlxsInit();
ARM GAS  C:\Users\Jacob\AppData\Local\Temp\ccFn1uj1.s 			page 7


 317:Generated_Source\PSoC4/BLE_1.c ****     #endif /* CYBLE_PLXS */
 318:Generated_Source\PSoC4/BLE_1.c ****     
 319:Generated_Source\PSoC4/BLE_1.c ****     #ifdef CYBLE_RSCS
 320:Generated_Source\PSoC4/BLE_1.c ****         CyBle_RscsInit();
 321:Generated_Source\PSoC4/BLE_1.c ****     #endif /* CYBLE_RSCS */
 322:Generated_Source\PSoC4/BLE_1.c **** 
 323:Generated_Source\PSoC4/BLE_1.c ****     #ifdef CYBLE_RTUS
 324:Generated_Source\PSoC4/BLE_1.c ****         CyBle_RtusInit();
 325:Generated_Source\PSoC4/BLE_1.c ****     #endif /* CYBLE_RTUS */
 326:Generated_Source\PSoC4/BLE_1.c **** 
 327:Generated_Source\PSoC4/BLE_1.c ****     #ifdef CYBLE_SCPS
 328:Generated_Source\PSoC4/BLE_1.c ****         CyBle_ScpsInit();
 329:Generated_Source\PSoC4/BLE_1.c ****     #endif /* CYBLE_SCPS */
 330:Generated_Source\PSoC4/BLE_1.c ****     
 331:Generated_Source\PSoC4/BLE_1.c ****     #ifdef CYBLE_TPS
 332:Generated_Source\PSoC4/BLE_1.c ****         CyBle_TpsInit();
 333:Generated_Source\PSoC4/BLE_1.c ****     #endif /* CYBLE_TPS */
 334:Generated_Source\PSoC4/BLE_1.c ****     
 335:Generated_Source\PSoC4/BLE_1.c ****     #ifdef CYBLE_UDS
 336:Generated_Source\PSoC4/BLE_1.c ****         CyBle_UdsInit();
 337:Generated_Source\PSoC4/BLE_1.c ****     #endif /* CYBLE_UDS */
 338:Generated_Source\PSoC4/BLE_1.c **** 
 339:Generated_Source\PSoC4/BLE_1.c ****     #ifdef CYBLE_WPTS
 340:Generated_Source\PSoC4/BLE_1.c ****         CyBle_WptsInit();
 341:Generated_Source\PSoC4/BLE_1.c ****     #endif /* CYBLE_WPTS */
 342:Generated_Source\PSoC4/BLE_1.c **** 
 343:Generated_Source\PSoC4/BLE_1.c ****     #ifdef CYBLE_WSS
 344:Generated_Source\PSoC4/BLE_1.c ****         CyBle_WssInit();
 345:Generated_Source\PSoC4/BLE_1.c ****     #endif /* CYBLE_WSS */
 346:Generated_Source\PSoC4/BLE_1.c **** }
 347:Generated_Source\PSoC4/BLE_1.c **** 
 348:Generated_Source\PSoC4/BLE_1.c **** 
 349:Generated_Source\PSoC4/BLE_1.c **** /******************************************************************************
 350:Generated_Source\PSoC4/BLE_1.c **** * Function Name: CyBle_Start
 351:Generated_Source\PSoC4/BLE_1.c **** ***************************************************************************//**
 352:Generated_Source\PSoC4/BLE_1.c **** * 
 353:Generated_Source\PSoC4/BLE_1.c **** *  This function initializes the BLE Stack, which consists of the BLE Stack 
 354:Generated_Source\PSoC4/BLE_1.c **** *  Manager, BLE Controller, and BLE Host modules. It takes care of initializing
 355:Generated_Source\PSoC4/BLE_1.c **** *  the Profile layer, schedulers, Timer and other platform related
 356:Generated_Source\PSoC4/BLE_1.c **** *  resources required for the BLE component. It also registers the callback 
 357:Generated_Source\PSoC4/BLE_1.c **** *  function for BLE events that will be registered in the BLE stack.
 358:Generated_Source\PSoC4/BLE_1.c **** * 
 359:Generated_Source\PSoC4/BLE_1.c **** *  Note that this function does not reset the BLE Stack.
 360:Generated_Source\PSoC4/BLE_1.c **** * 
 361:Generated_Source\PSoC4/BLE_1.c **** *  For HCI-Mode of operation, this function will not initialize the BLE Host 
 362:Generated_Source\PSoC4/BLE_1.c **** *  module.
 363:Generated_Source\PSoC4/BLE_1.c **** * 
 364:Generated_Source\PSoC4/BLE_1.c **** *  Calling this function results in the generation of CYBLE_EVT_STACK_ON event
 365:Generated_Source\PSoC4/BLE_1.c **** *  on successful initialization of the BLE Stack.
 366:Generated_Source\PSoC4/BLE_1.c **** * 
 367:Generated_Source\PSoC4/BLE_1.c **** *  \param callbackFunc: Event callback function to receive events from BLE stack.
 368:Generated_Source\PSoC4/BLE_1.c **** *   CYBLE_CALLBACK_T is a function pointer type.
 369:Generated_Source\PSoC4/BLE_1.c **** * 
 370:Generated_Source\PSoC4/BLE_1.c **** * \return
 371:Generated_Source\PSoC4/BLE_1.c **** *  CYBLE_API_RESULT_T : Return value indicates if the function succeeded or 
 372:Generated_Source\PSoC4/BLE_1.c **** *  failed. Following are the possible error codes.
 373:Generated_Source\PSoC4/BLE_1.c **** * 
ARM GAS  C:\Users\Jacob\AppData\Local\Temp\ccFn1uj1.s 			page 8


 374:Generated_Source\PSoC4/BLE_1.c **** *   <table>
 375:Generated_Source\PSoC4/BLE_1.c **** *  	  <tr>
 376:Generated_Source\PSoC4/BLE_1.c **** *       <th>Error codes</th>
 377:Generated_Source\PSoC4/BLE_1.c **** *       <th>Description</th>
 378:Generated_Source\PSoC4/BLE_1.c **** *     </tr>
 379:Generated_Source\PSoC4/BLE_1.c **** *     <tr>
 380:Generated_Source\PSoC4/BLE_1.c **** *       <td>CYBLE_ERROR_OK</td>
 381:Generated_Source\PSoC4/BLE_1.c **** *       <td>On successful operation.</td>
 382:Generated_Source\PSoC4/BLE_1.c **** *     </tr>
 383:Generated_Source\PSoC4/BLE_1.c **** *     <tr>
 384:Generated_Source\PSoC4/BLE_1.c **** *       <td>CYBLE_ERROR_INVALID_PARAMETER</td>
 385:Generated_Source\PSoC4/BLE_1.c **** *       <td>On passing a NULL pointer to the function. 
 386:Generated_Source\PSoC4/BLE_1.c **** *		</td>
 387:Generated_Source\PSoC4/BLE_1.c **** *     </tr>
 388:Generated_Source\PSoC4/BLE_1.c **** *     <tr>
 389:Generated_Source\PSoC4/BLE_1.c **** *       <td>CYBLE_ERROR_REPEATED_ATTEMPTS</td>
 390:Generated_Source\PSoC4/BLE_1.c **** *       <td>On invoking this function more than once without calling CyBle_Shutdown() 
 391:Generated_Source\PSoC4/BLE_1.c **** *           function between calls to this function.</td>
 392:Generated_Source\PSoC4/BLE_1.c **** *     </tr>
 393:Generated_Source\PSoC4/BLE_1.c **** *     <tr>
 394:Generated_Source\PSoC4/BLE_1.c **** *       <td>CYBLE_ERROR_MEMORY_ALLOCATION_FAILED</td>
 395:Generated_Source\PSoC4/BLE_1.c **** *       <td>There is insufficient memory available.</td>
 396:Generated_Source\PSoC4/BLE_1.c **** *     </tr>
 397:Generated_Source\PSoC4/BLE_1.c **** *   </table>
 398:Generated_Source\PSoC4/BLE_1.c **** * 
 399:Generated_Source\PSoC4/BLE_1.c **** *  \globalvars
 400:Generated_Source\PSoC4/BLE_1.c **** *   The CyBle_initVar variable is used to indicate initial
 401:Generated_Source\PSoC4/BLE_1.c **** *   configuration of this component. The variable is initialized to zero (0u)
 402:Generated_Source\PSoC4/BLE_1.c **** *   and set to one (1u) the first time CyBle_Start() is called. This
 403:Generated_Source\PSoC4/BLE_1.c **** *   allows for component initialization without re-initialization in all
 404:Generated_Source\PSoC4/BLE_1.c **** *   subsequent calls to the CyBle_Start() routine.
 405:Generated_Source\PSoC4/BLE_1.c **** * 
 406:Generated_Source\PSoC4/BLE_1.c **** ******************************************************************************/
 407:Generated_Source\PSoC4/BLE_1.c **** CYBLE_API_RESULT_T CyBle_Start(CYBLE_CALLBACK_T callbackFunc)
 408:Generated_Source\PSoC4/BLE_1.c **** {
 409:Generated_Source\PSoC4/BLE_1.c ****     CYBLE_API_RESULT_T apiResult = CYBLE_ERROR_OK;
 410:Generated_Source\PSoC4/BLE_1.c ****     
 411:Generated_Source\PSoC4/BLE_1.c ****     #if(CYBLE_MODE_PROFILE)
 412:Generated_Source\PSoC4/BLE_1.c ****     
 413:Generated_Source\PSoC4/BLE_1.c ****     CYBLE_STK_APP_DATA_BUFF_T cyBle_stackDataBuff[CYBLE_STACK_APP_MIN_POOL] = 
 414:Generated_Source\PSoC4/BLE_1.c ****     {
 415:Generated_Source\PSoC4/BLE_1.c ****         {CYBLE_GATT_MTU_PLUS_L2CAP_MEM_EXT, CYBLE_GATT_MTU_BUFF_COUNT + CYBLE_GATT_MAX_ATTR_BUFF_CO
 416:Generated_Source\PSoC4/BLE_1.c ****         {CYBLE_L2CAP_PSM_PLUS_L2CAP_MEM_EXT, CYBLE_L2CAP_PSM_COUNT},
 417:Generated_Source\PSoC4/BLE_1.c ****         {CYBLE_L2CAP_CBFC_PLUS_L2CAP_MEM_EXT, 2u * CYBLE_L2CAP_LOGICAL_CHANNEL_COUNT},
 418:Generated_Source\PSoC4/BLE_1.c ****         {CYBLE_L2CAP_MTU_PLUS_L2CAP_MEM_EXT, CYBLE_L2CAP_LOGICAL_CHANNEL_COUNT},
 419:Generated_Source\PSoC4/BLE_1.c ****         {CYBLE_L2CAP_MPS_PLUS_L2CAP_MEM_EXT, CYBLE_L2CAP_LOGICAL_CHANNEL_COUNT * (CYBLE_L2CAP_MTU_M
 420:Generated_Source\PSoC4/BLE_1.c ****     }; 
 421:Generated_Source\PSoC4/BLE_1.c **** 
 422:Generated_Source\PSoC4/BLE_1.c ****     #endif /* CYBLE_MODE_PROFILE */
 423:Generated_Source\PSoC4/BLE_1.c ****     
 424:Generated_Source\PSoC4/BLE_1.c ****     /* If not initialized then initialize all the required hardware and software */
 425:Generated_Source\PSoC4/BLE_1.c ****     if(cyBle_initVar == 0u)
 426:Generated_Source\PSoC4/BLE_1.c ****     {
 427:Generated_Source\PSoC4/BLE_1.c ****         CyBle_Init();
 428:Generated_Source\PSoC4/BLE_1.c ****         cyBle_initVar = 1u;
 429:Generated_Source\PSoC4/BLE_1.c ****     }
 430:Generated_Source\PSoC4/BLE_1.c ****     
ARM GAS  C:\Users\Jacob\AppData\Local\Temp\ccFn1uj1.s 			page 9


 431:Generated_Source\PSoC4/BLE_1.c ****     if(callbackFunc != NULL)
 432:Generated_Source\PSoC4/BLE_1.c ****     {
 433:Generated_Source\PSoC4/BLE_1.c ****         CyBle_ApplCallback = callbackFunc;
 434:Generated_Source\PSoC4/BLE_1.c ****         
 435:Generated_Source\PSoC4/BLE_1.c ****     #if(CYBLE_SHARING_MODE_EXPORT)
 436:Generated_Source\PSoC4/BLE_1.c ****         if(cyBle_stackMemoryRam == NULL)
 437:Generated_Source\PSoC4/BLE_1.c ****         {
 438:Generated_Source\PSoC4/BLE_1.c ****             cyBle_stackMemoryRam = (uint8 *)malloc(CYBLE_STACK_RAM_SIZE);
 439:Generated_Source\PSoC4/BLE_1.c ****             if(cyBle_stackMemoryRam == NULL)
 440:Generated_Source\PSoC4/BLE_1.c ****             {
 441:Generated_Source\PSoC4/BLE_1.c ****                 apiResult = CYBLE_ERROR_MEMORY_ALLOCATION_FAILED;
 442:Generated_Source\PSoC4/BLE_1.c ****             }
 443:Generated_Source\PSoC4/BLE_1.c ****         }
 444:Generated_Source\PSoC4/BLE_1.c ****     #endif /* CYBLE_SHARING_MODE_EXPORT */
 445:Generated_Source\PSoC4/BLE_1.c ****         if(apiResult == CYBLE_ERROR_OK)
 446:Generated_Source\PSoC4/BLE_1.c ****         {
 447:Generated_Source\PSoC4/BLE_1.c ****             CYBLE_DLE_CONFIG_PARAM_T dleConfigParams;
 448:Generated_Source\PSoC4/BLE_1.c ****             CYBLE_PRIVACY_1_2_CONFIG_PARAM_T privacyConfigParams;
 449:Generated_Source\PSoC4/BLE_1.c ****             CYBLE_STACK_CONFIG_PARAM_T stackConfig;
 450:Generated_Source\PSoC4/BLE_1.c ****             uint16 featureHeapReq;
 451:Generated_Source\PSoC4/BLE_1.c ****             
 452:Generated_Source\PSoC4/BLE_1.c ****             stackConfig.privacyConfig = &privacyConfigParams;
 453:Generated_Source\PSoC4/BLE_1.c ****             stackConfig.dleConfig = &dleConfigParams;
 454:Generated_Source\PSoC4/BLE_1.c ****             
 455:Generated_Source\PSoC4/BLE_1.c ****             /* Configure default BLE 4.1 features and enabled 4.2 features */
 456:Generated_Source\PSoC4/BLE_1.c ****             stackConfig.feature_mask = CYBLE_DLE_FEATURE | CYBLE_LL_PRIVACY_FEATURE | 
 457:Generated_Source\PSoC4/BLE_1.c ****                                        CYBLE_SECURE_CONN_FEATURE;
 458:Generated_Source\PSoC4/BLE_1.c **** 
 459:Generated_Source\PSoC4/BLE_1.c ****             /* Configure DLE */
 460:Generated_Source\PSoC4/BLE_1.c ****             dleConfigParams.dleMaxTxCapability = CYBLE_LL_MAX_TX_PAYLOAD_SIZE;
 461:Generated_Source\PSoC4/BLE_1.c ****             dleConfigParams.dleMaxRxCapability = CYBLE_LL_MAX_RX_PAYLOAD_SIZE;
 462:Generated_Source\PSoC4/BLE_1.c ****             dleConfigParams.dleNumTxBuffer = CYBLE_LL_DEFAULT_NUM_ACL_TX_PACKETS;
 463:Generated_Source\PSoC4/BLE_1.c ****         #if(CYBLE_DLE_FEATURE_ENABLED)
 464:Generated_Source\PSoC4/BLE_1.c ****             CyBle_EnableDleFeature();              /* Enable DLE code in stack */
 465:Generated_Source\PSoC4/BLE_1.c ****         #endif /* CYBLE_DLE_FEATURE_ENABLED */
 466:Generated_Source\PSoC4/BLE_1.c ****         
 467:Generated_Source\PSoC4/BLE_1.c ****             /* Configure LL Privacy */
 468:Generated_Source\PSoC4/BLE_1.c ****             privacyConfigParams.resolvingListSize = CYBLE_MAX_RESOLVABLE_DEVICES;
 469:Generated_Source\PSoC4/BLE_1.c ****         #if(CYBLE_LL_PRIVACY_FEATURE_ENABLED)
 470:Generated_Source\PSoC4/BLE_1.c ****             CyBle_EnablePrivacyFeature();          /* Enable LL Privacy code in stack */
 471:Generated_Source\PSoC4/BLE_1.c ****         #endif /* CYBLE_LL_PRIVACY_FEATURE_ENABLED */
 472:Generated_Source\PSoC4/BLE_1.c **** 
 473:Generated_Source\PSoC4/BLE_1.c ****             apiResult = CyBle_StackSetFeatureConfig(&stackConfig, &featureHeapReq);
 474:Generated_Source\PSoC4/BLE_1.c ****             }
 475:Generated_Source\PSoC4/BLE_1.c ****     
 476:Generated_Source\PSoC4/BLE_1.c ****         if(apiResult == CYBLE_ERROR_OK)
 477:Generated_Source\PSoC4/BLE_1.c ****         {
 478:Generated_Source\PSoC4/BLE_1.c ****         
 479:Generated_Source\PSoC4/BLE_1.c ****         #if(CYBLE_MODE_PROFILE)
 480:Generated_Source\PSoC4/BLE_1.c ****             #if(CYBLE_BONDING_REQUIREMENT == CYBLE_BONDING_YES)
 481:Generated_Source\PSoC4/BLE_1.c ****                 apiResult = CyBle_StackInit(&CyBle_EventHandler, cyBle_stackMemoryRam, 
 482:Generated_Source\PSoC4/BLE_1.c ****                     CYBLE_STACK_RAM_SIZE - CYBLE_GATT_PREPARE_WRITE_BUFF_LEN, cyBle_stackDataBuff, 
 483:Generated_Source\PSoC4/BLE_1.c ****                     CYBLE_STACK_APP_MIN_POOL, cyBle_flashStorage.stackFlashptr, CYBLE_STACK_FLASH_S
 484:Generated_Source\PSoC4/BLE_1.c ****             #else
 485:Generated_Source\PSoC4/BLE_1.c ****                 apiResult = CyBle_StackInit(&CyBle_EventHandler, cyBle_stackMemoryRam, 
 486:Generated_Source\PSoC4/BLE_1.c ****                     CYBLE_STACK_RAM_SIZE - CYBLE_GATT_PREPARE_WRITE_BUFF_LEN, cyBle_stackDataBuff, 
 487:Generated_Source\PSoC4/BLE_1.c ****                     CYBLE_STACK_APP_MIN_POOL, NULL, 0u);
ARM GAS  C:\Users\Jacob\AppData\Local\Temp\ccFn1uj1.s 			page 10


 488:Generated_Source\PSoC4/BLE_1.c ****             #endif  /* CYBLE_BONDING_REQUIREMENT == CYBLE_BONDING_YES */
 489:Generated_Source\PSoC4/BLE_1.c ****         #else /* HCI mode */
 490:Generated_Source\PSoC4/BLE_1.c ****             /* The following will perform preparation to use HCI over UART or over
 491:Generated_Source\PSoC4/BLE_1.c ****                software. But the following fucntions will not initialize the HCI
 492:Generated_Source\PSoC4/BLE_1.c ****                Transport. This will be done as part of Stack initialization, so
 493:Generated_Source\PSoC4/BLE_1.c ****                the functions should be called prior CyBle_StackInit().
 494:Generated_Source\PSoC4/BLE_1.c ****             */
 495:Generated_Source\PSoC4/BLE_1.c ****             #if (CYBLE_HCI_TYPE == CYBLE_HCI_OVER_UART)
 496:Generated_Source\PSoC4/BLE_1.c ****                 CyBle_HciUartTransportEnable();
 497:Generated_Source\PSoC4/BLE_1.c ****             #else
 498:Generated_Source\PSoC4/BLE_1.c ****                 CyBle_HciSoftTransportEnable();
 499:Generated_Source\PSoC4/BLE_1.c ****             #endif /* (CYBLE_HCI_TYPE == CYBLE_HCI_OVER_UART) */
 500:Generated_Source\PSoC4/BLE_1.c ****             /* This will initialize BLE stack for HCI mode operation */
 501:Generated_Source\PSoC4/BLE_1.c ****             apiResult = CyBle_StackInit(&CyBle_EventHandler, cyBle_stackMemoryRam, CYBLE_STACK_RAM_
 502:Generated_Source\PSoC4/BLE_1.c ****                 NULL, 0u, NULL, 0u);
 503:Generated_Source\PSoC4/BLE_1.c ****         #endif /* CYBLE_MODE_PROFILE */
 504:Generated_Source\PSoC4/BLE_1.c **** 
 505:Generated_Source\PSoC4/BLE_1.c ****             if(apiResult == CYBLE_ERROR_OK)
 506:Generated_Source\PSoC4/BLE_1.c ****             {
 507:Generated_Source\PSoC4/BLE_1.c ****                 CyBle_SetState(CYBLE_STATE_INITIALIZING);
 508:Generated_Source\PSoC4/BLE_1.c ****                 
 509:Generated_Source\PSoC4/BLE_1.c ****             #if (CYBLE_GATT_ROLE_CLIENT)
 510:Generated_Source\PSoC4/BLE_1.c ****                 CyBle_SetClientState(CYBLE_CLIENT_STATE_DISCONNECTED);
 511:Generated_Source\PSoC4/BLE_1.c ****             #endif /* CYBLE_GATT_ROLE_CLIENT */
 512:Generated_Source\PSoC4/BLE_1.c ****                 
 513:Generated_Source\PSoC4/BLE_1.c ****             #if(CYBLE_GATT_ROLE_SERVER)
 514:Generated_Source\PSoC4/BLE_1.c ****                 apiResult = CyBle_GattsDbRegister(cyBle_gattDB, CYBLE_GATT_DB_INDEX_COUNT, CYBLE_GA
 515:Generated_Source\PSoC4/BLE_1.c ****             #endif /* CYBLE_GATT_ROLE_SERVER */
 516:Generated_Source\PSoC4/BLE_1.c ****             }
 517:Generated_Source\PSoC4/BLE_1.c ****         }
 518:Generated_Source\PSoC4/BLE_1.c ****     }
 519:Generated_Source\PSoC4/BLE_1.c ****     else
 520:Generated_Source\PSoC4/BLE_1.c ****     {
 521:Generated_Source\PSoC4/BLE_1.c ****         apiResult = CYBLE_ERROR_INVALID_PARAMETER;
 522:Generated_Source\PSoC4/BLE_1.c ****     }
 523:Generated_Source\PSoC4/BLE_1.c **** 
 524:Generated_Source\PSoC4/BLE_1.c ****     return (apiResult);
 525:Generated_Source\PSoC4/BLE_1.c **** }
 526:Generated_Source\PSoC4/BLE_1.c **** 
 527:Generated_Source\PSoC4/BLE_1.c **** 
 528:Generated_Source\PSoC4/BLE_1.c **** /******************************************************************************
 529:Generated_Source\PSoC4/BLE_1.c **** * Function Name: CyBle_Stop
 530:Generated_Source\PSoC4/BLE_1.c **** ***************************************************************************//**
 531:Generated_Source\PSoC4/BLE_1.c **** * 
 532:Generated_Source\PSoC4/BLE_1.c **** *  This function stops any ongoing operation in the BLE Stack and forces the 
 533:Generated_Source\PSoC4/BLE_1.c **** *  BLE Stack to shut down. The only function that can be called after calling
 534:Generated_Source\PSoC4/BLE_1.c **** *  this function is CyBle_Start(). 
 535:Generated_Source\PSoC4/BLE_1.c **** * 
 536:Generated_Source\PSoC4/BLE_1.c **** * \return
 537:Generated_Source\PSoC4/BLE_1.c **** *  None
 538:Generated_Source\PSoC4/BLE_1.c **** * 
 539:Generated_Source\PSoC4/BLE_1.c **** ******************************************************************************/
 540:Generated_Source\PSoC4/BLE_1.c **** void CyBle_Stop(void)
 541:Generated_Source\PSoC4/BLE_1.c **** {
 542:Generated_Source\PSoC4/BLE_1.c ****     CyBle_Shutdown();                         /* Stop all ongoing activities */
 543:Generated_Source\PSoC4/BLE_1.c ****     CyBle_SetState(CYBLE_STATE_STOPPED);
 544:Generated_Source\PSoC4/BLE_1.c ****     #if(CYBLE_SHARING_MODE_EXPORT)
ARM GAS  C:\Users\Jacob\AppData\Local\Temp\ccFn1uj1.s 			page 11


 545:Generated_Source\PSoC4/BLE_1.c ****         if(cyBle_stackMemoryRam != NULL)
 546:Generated_Source\PSoC4/BLE_1.c ****         {
 547:Generated_Source\PSoC4/BLE_1.c ****             free(cyBle_stackMemoryRam);
 548:Generated_Source\PSoC4/BLE_1.c ****         }
 549:Generated_Source\PSoC4/BLE_1.c ****     #endif /* CYBLE_SHARING_MODE_EXPORT */
 550:Generated_Source\PSoC4/BLE_1.c **** }
 551:Generated_Source\PSoC4/BLE_1.c **** 
 552:Generated_Source\PSoC4/BLE_1.c **** 
 553:Generated_Source\PSoC4/BLE_1.c **** #if((CYBLE_GAP_ROLE_PERIPHERAL || CYBLE_GAP_ROLE_CENTRAL) && (CYBLE_BONDING_REQUIREMENT == CYBLE_BO
 554:Generated_Source\PSoC4/BLE_1.c **** 
 555:Generated_Source\PSoC4/BLE_1.c ****     
 556:Generated_Source\PSoC4/BLE_1.c **** /******************************************************************************
 557:Generated_Source\PSoC4/BLE_1.c **** * Function Name: CyBle_StoreBondingData
 558:Generated_Source\PSoC4/BLE_1.c **** ***************************************************************************//**
 559:Generated_Source\PSoC4/BLE_1.c **** * 
 560:Generated_Source\PSoC4/BLE_1.c **** *  This function writes the new bonding data from RAM to the dedicated Flash 
 561:Generated_Source\PSoC4/BLE_1.c **** *  location as defined by the component. It performs data comparing between RAM
 562:Generated_Source\PSoC4/BLE_1.c **** *  and Flash before writing to Flash. If there is no change between RAM and Flash
 563:Generated_Source\PSoC4/BLE_1.c **** *  data, then no write is performed. It writes only one flash row in one call.
 564:Generated_Source\PSoC4/BLE_1.c **** *  Application should keep calling this function till API return CYBLE_ERROR_OK. 
 565:Generated_Source\PSoC4/BLE_1.c **** *  This function is available only when Bonding requirement is selected in
 566:Generated_Source\PSoC4/BLE_1.c **** *  Security settings.    
 567:Generated_Source\PSoC4/BLE_1.c **** * 
 568:Generated_Source\PSoC4/BLE_1.c **** *  \param isForceWrite:  If value is set to 0, then stack will check if flash write 
 569:Generated_Source\PSoC4/BLE_1.c **** *                 is permissible. 
 570:Generated_Source\PSoC4/BLE_1.c **** *  
 571:Generated_Source\PSoC4/BLE_1.c **** * \return
 572:Generated_Source\PSoC4/BLE_1.c **** *  Return value is of type CYBLE_API_RESULT_T.
 573:Generated_Source\PSoC4/BLE_1.c **** *
 574:Generated_Source\PSoC4/BLE_1.c **** *   Errors codes                         | Description
 575:Generated_Source\PSoC4/BLE_1.c **** *   ----------------------------------   | ------------------------------------
 576:Generated_Source\PSoC4/BLE_1.c **** *   CYBLE_ERROR_OK                       | On successful operation
 577:Generated_Source\PSoC4/BLE_1.c **** *   CYBLE_ERROR_FLASH_WRITE_NOT_PERMITED | Flash Write is not complete
 578:Generated_Source\PSoC4/BLE_1.c **** *   CYBLE_ERROR_INVALID_PARAMETER        | Invalid input parameter  
 579:Generated_Source\PSoC4/BLE_1.c **** *   CYBLE_ERROR_FLASH_WRITE              | Error in flash Write	
 580:Generated_Source\PSoC4/BLE_1.c ****     
 581:Generated_Source\PSoC4/BLE_1.c **** *  \sideeffect
 582:Generated_Source\PSoC4/BLE_1.c **** *   For BLE devices with 128K of Flash memory this API will automatically 
 583:Generated_Source\PSoC4/BLE_1.c **** *   modify the clock settings for the device.
 584:Generated_Source\PSoC4/BLE_1.c **** *   Writing to flash requires changes to be done to the IMO (set to 48 MHz)
 585:Generated_Source\PSoC4/BLE_1.c **** *   and HFCLK (source set to IMO) settings. The configuration is restored before
 586:Generated_Source\PSoC4/BLE_1.c **** *   returning. This will impact the operation of most of the hardware in the
 587:Generated_Source\PSoC4/BLE_1.c **** *   device.
 588:Generated_Source\PSoC4/BLE_1.c **** * 
 589:Generated_Source\PSoC4/BLE_1.c **** *  \globalvars
 590:Generated_Source\PSoC4/BLE_1.c **** *   The cyBle_pendingFlashWrite variable is used to detect status
 591:Generated_Source\PSoC4/BLE_1.c **** *   of pending write to flash operation for stack data and CCCD.
 592:Generated_Source\PSoC4/BLE_1.c **** *   This API automatically clears pending bits after write operation complete.
 593:Generated_Source\PSoC4/BLE_1.c **** *     
 594:Generated_Source\PSoC4/BLE_1.c **** ******************************************************************************/
 595:Generated_Source\PSoC4/BLE_1.c **** CYBLE_API_RESULT_T CyBle_StoreBondingData(uint8 isForceWrite)
 596:Generated_Source\PSoC4/BLE_1.c **** {
 597:Generated_Source\PSoC4/BLE_1.c ****     CYBLE_API_RESULT_T apiResult = CYBLE_ERROR_OK;
 598:Generated_Source\PSoC4/BLE_1.c ****     
 599:Generated_Source\PSoC4/BLE_1.c ****     /* Store Stack data */
 600:Generated_Source\PSoC4/BLE_1.c ****     if((cyBle_pendingFlashWrite & CYBLE_PENDING_STACK_FLASH_WRITE_BIT) != 0u)
 601:Generated_Source\PSoC4/BLE_1.c ****     {
ARM GAS  C:\Users\Jacob\AppData\Local\Temp\ccFn1uj1.s 			page 12


 602:Generated_Source\PSoC4/BLE_1.c ****         apiResult = CyBle_StoreStackData(isForceWrite);
 603:Generated_Source\PSoC4/BLE_1.c ****         if(apiResult == CYBLE_ERROR_OK)
 604:Generated_Source\PSoC4/BLE_1.c ****         {
 605:Generated_Source\PSoC4/BLE_1.c ****             cyBle_pendingFlashWrite &= (uint8)~CYBLE_PENDING_STACK_FLASH_WRITE_BIT;
 606:Generated_Source\PSoC4/BLE_1.c ****             /* Change apiResult if there are more pending data to store */
 607:Generated_Source\PSoC4/BLE_1.c ****             if((cyBle_pendingFlashWrite & CYBLE_PENDING_CCCD_FLASH_WRITE_BIT) != 0u)
 608:Generated_Source\PSoC4/BLE_1.c ****             {
 609:Generated_Source\PSoC4/BLE_1.c ****                 apiResult = CYBLE_ERROR_FLASH_WRITE_NOT_PERMITED;
 610:Generated_Source\PSoC4/BLE_1.c ****             }
 611:Generated_Source\PSoC4/BLE_1.c ****         }
 612:Generated_Source\PSoC4/BLE_1.c ****     }
 613:Generated_Source\PSoC4/BLE_1.c **** #if(CYBLE_GATT_DB_CCCD_COUNT != 0u)
 614:Generated_Source\PSoC4/BLE_1.c ****     /* Store CCCD values */
 615:Generated_Source\PSoC4/BLE_1.c ****     if( ((apiResult == CYBLE_ERROR_OK) || (isForceWrite != 0u)) && 
 616:Generated_Source\PSoC4/BLE_1.c ****         ((cyBle_pendingFlashWrite & CYBLE_PENDING_CCCD_FLASH_WRITE_BIT) != 0u) &&
 617:Generated_Source\PSoC4/BLE_1.c ****         (cyBle_connHandle.bdHandle <= CYBLE_GAP_MAX_BONDED_DEVICE))
 618:Generated_Source\PSoC4/BLE_1.c ****     {
 619:Generated_Source\PSoC4/BLE_1.c ****         apiResult = CyBle_StoreAppData(cyBle_attValuesCCCD, cyBle_flashStorage.attValuesCCCDFlashMe
 620:Generated_Source\PSoC4/BLE_1.c ****                         cyBle_connHandle.bdHandle], CYBLE_GATT_DB_CCCD_COUNT, isForceWrite);
 621:Generated_Source\PSoC4/BLE_1.c ****         if(apiResult == CYBLE_ERROR_OK)
 622:Generated_Source\PSoC4/BLE_1.c ****         {
 623:Generated_Source\PSoC4/BLE_1.c ****             cyBle_pendingFlashWrite &= (uint8)~CYBLE_PENDING_CCCD_FLASH_WRITE_BIT;
 624:Generated_Source\PSoC4/BLE_1.c ****         }
 625:Generated_Source\PSoC4/BLE_1.c ****     }
 626:Generated_Source\PSoC4/BLE_1.c ****     /* Clear requested CCCD values */
 627:Generated_Source\PSoC4/BLE_1.c ****     if( ((apiResult == CYBLE_ERROR_OK) || (isForceWrite != 0u)) && 
 628:Generated_Source\PSoC4/BLE_1.c ****         ((cyBle_pendingFlashWrite & CYBLE_PENDING_CCCD_FLASH_CLEAR_MASK) != 0u) )
 629:Generated_Source\PSoC4/BLE_1.c ****     {
 630:Generated_Source\PSoC4/BLE_1.c ****         if((cyBle_pendingFlashWrite & CYBLE_PENDING_CCCD_FLASH_CLEAR_ALL_BIT) != 0u)
 631:Generated_Source\PSoC4/BLE_1.c ****         {
 632:Generated_Source\PSoC4/BLE_1.c ****             /* Remove cccd values for all bonded devices */
 633:Generated_Source\PSoC4/BLE_1.c ****             uint8 defaultValuesCCCD[CYBLE_GAP_MAX_BONDED_DEVICE + 1u][CYBLE_GATT_DB_CCCD_COUNT];
 634:Generated_Source\PSoC4/BLE_1.c ****             
 635:Generated_Source\PSoC4/BLE_1.c ****             (void)memset(defaultValuesCCCD, 0, sizeof(defaultValuesCCCD));
 636:Generated_Source\PSoC4/BLE_1.c **** 
 637:Generated_Source\PSoC4/BLE_1.c ****             apiResult = CyBle_StoreAppData((uint8 *)defaultValuesCCCD, 
 638:Generated_Source\PSoC4/BLE_1.c ****                 (const uint8 *)cyBle_flashStorage.attValuesCCCDFlashMemory, sizeof(defaultValuesCCC
 639:Generated_Source\PSoC4/BLE_1.c ****             if(apiResult == CYBLE_ERROR_OK)
 640:Generated_Source\PSoC4/BLE_1.c ****             {
 641:Generated_Source\PSoC4/BLE_1.c ****                 cyBle_pendingFlashWrite &= (uint8)~CYBLE_PENDING_CCCD_FLASH_CLEAR_ALL_BIT;
 642:Generated_Source\PSoC4/BLE_1.c ****             }
 643:Generated_Source\PSoC4/BLE_1.c ****         }
 644:Generated_Source\PSoC4/BLE_1.c ****         else /* Remove cccd values for particular device */
 645:Generated_Source\PSoC4/BLE_1.c ****         {
 646:Generated_Source\PSoC4/BLE_1.c ****             uint8 defaultValuesCCCD[CYBLE_GATT_DB_CCCD_COUNT] = {0u};
 647:Generated_Source\PSoC4/BLE_1.c ****             
 648:Generated_Source\PSoC4/BLE_1.c ****             apiResult = CyBle_StoreAppData(defaultValuesCCCD, cyBle_flashStorage.attValuesCCCDFlash
 649:Generated_Source\PSoC4/BLE_1.c ****                                     cyBle_pendingFlashClearCccdHandle], CYBLE_GATT_DB_CCCD_COUNT, i
 650:Generated_Source\PSoC4/BLE_1.c ****             if(apiResult == CYBLE_ERROR_OK)
 651:Generated_Source\PSoC4/BLE_1.c ****             {
 652:Generated_Source\PSoC4/BLE_1.c ****                 cyBle_pendingFlashWrite &= (uint8)~CYBLE_PENDING_CCCD_FLASH_CLEAR_BIT;
 653:Generated_Source\PSoC4/BLE_1.c ****             }
 654:Generated_Source\PSoC4/BLE_1.c ****         }
 655:Generated_Source\PSoC4/BLE_1.c ****     }
 656:Generated_Source\PSoC4/BLE_1.c **** #endif /* CYBLE_GATT_DB_CCCD_COUNT != 0u */
 657:Generated_Source\PSoC4/BLE_1.c ****     return(apiResult);
 658:Generated_Source\PSoC4/BLE_1.c **** }
ARM GAS  C:\Users\Jacob\AppData\Local\Temp\ccFn1uj1.s 			page 13


 659:Generated_Source\PSoC4/BLE_1.c **** 
 660:Generated_Source\PSoC4/BLE_1.c **** 
 661:Generated_Source\PSoC4/BLE_1.c **** /******************************************************************************
 662:Generated_Source\PSoC4/BLE_1.c **** * Function Name: CyBle_GapRemoveBondedDevice
 663:Generated_Source\PSoC4/BLE_1.c **** ***************************************************************************//**
 664:Generated_Source\PSoC4/BLE_1.c **** * 
 665:Generated_Source\PSoC4/BLE_1.c **** *  This function marks the device untrusted. It removes the bonding information
 666:Generated_Source\PSoC4/BLE_1.c **** *  of the device including CCCD values. This function removes device from the
 667:Generated_Source\PSoC4/BLE_1.c **** *  white list also when autopopulate white list with bonded devices option is
 668:Generated_Source\PSoC4/BLE_1.c **** *  enabled.
 669:Generated_Source\PSoC4/BLE_1.c **** * 
 670:Generated_Source\PSoC4/BLE_1.c **** *  This function is available only when Bonding requirement is selected in
 671:Generated_Source\PSoC4/BLE_1.c **** *  Security settings.    
 672:Generated_Source\PSoC4/BLE_1.c **** *
 673:Generated_Source\PSoC4/BLE_1.c **** *  \param bdAddr: Pointer to peer device address, of type CYBLE_GAP_BD_ADDR_T.
 674:Generated_Source\PSoC4/BLE_1.c **** *                 If device address is set to 0, then all devices shall be
 675:Generated_Source\PSoC4/BLE_1.c **** *                 removed from trusted list and white list.
 676:Generated_Source\PSoC4/BLE_1.c **** *
 677:Generated_Source\PSoC4/BLE_1.c **** * \return
 678:Generated_Source\PSoC4/BLE_1.c **** *  CYBLE_API_RESULT_T : Return value indicates if the function succeeded or
 679:Generated_Source\PSoC4/BLE_1.c **** *  failed. Following are the possible error codes.
 680:Generated_Source\PSoC4/BLE_1.c **** *
 681:Generated_Source\PSoC4/BLE_1.c **** *   Errors codes                     | Description
 682:Generated_Source\PSoC4/BLE_1.c **** *   ---------------------------------| ------------------------------------
 683:Generated_Source\PSoC4/BLE_1.c **** *   CYBLE_ERROR_OK                   | On successful operation.
 684:Generated_Source\PSoC4/BLE_1.c **** *   CYBLE_ERROR_INVALID_PARAMETER    | On specifying NULL as input parameter for 'bdAddr'.
 685:Generated_Source\PSoC4/BLE_1.c **** *   CYBLE_ERROR_INVALID_OPERATION    | Whitelist is already in use or there is pending write to fla
 686:Generated_Source\PSoC4/BLE_1.c **** *   CYBLE_ERROR_NO_DEVICE_ENTITY     | Device does not exist in the bond list.
 687:Generated_Source\PSoC4/BLE_1.c **** *
 688:Generated_Source\PSoC4/BLE_1.c **** *  \globalvars
 689:Generated_Source\PSoC4/BLE_1.c **** *   The bdHandle is set in cyBle_pendingFlashWrite variable to indicate that
 690:Generated_Source\PSoC4/BLE_1.c **** *   data should be stored to flash by CyBle_StoreBondingData afterwards. 
 691:Generated_Source\PSoC4/BLE_1.c **** *     
 692:Generated_Source\PSoC4/BLE_1.c **** ******************************************************************************/
 693:Generated_Source\PSoC4/BLE_1.c **** CYBLE_API_RESULT_T CyBle_GapRemoveBondedDevice(CYBLE_GAP_BD_ADDR_T* bdAddr)
 694:Generated_Source\PSoC4/BLE_1.c **** {
 695:Generated_Source\PSoC4/BLE_1.c ****     CYBLE_API_RESULT_T apiResult = CYBLE_ERROR_OK;
 696:Generated_Source\PSoC4/BLE_1.c ****     
 697:Generated_Source\PSoC4/BLE_1.c ****     if(cyBle_pendingFlashWrite == 0u)
 698:Generated_Source\PSoC4/BLE_1.c ****     {
 699:Generated_Source\PSoC4/BLE_1.c ****         
 700:Generated_Source\PSoC4/BLE_1.c ****     #if(CYBLE_GATT_DB_CCCD_COUNT != 0u)
 701:Generated_Source\PSoC4/BLE_1.c ****         /* Request to clear CCCD values which will be done by CyBle_StoreBondingData API */
 702:Generated_Source\PSoC4/BLE_1.c ****         uint8 bDevHandle;
 703:Generated_Source\PSoC4/BLE_1.c ****         CYBLE_GAP_BD_ADDR_T invalidBdAddr = {{0u,0u,0u,0u,0u,0u}, 0u};
 704:Generated_Source\PSoC4/BLE_1.c **** 
 705:Generated_Source\PSoC4/BLE_1.c ****         if(memcmp(((uint8 *) &(bdAddr->bdAddr)), ((uint8 *) &(invalidBdAddr.bdAddr)), CYBLE_GAP_BD_
 706:Generated_Source\PSoC4/BLE_1.c **** 	    {
 707:Generated_Source\PSoC4/BLE_1.c ****             /* Request to remove all bonded devices by cyBle_StoreBondingData API */
 708:Generated_Source\PSoC4/BLE_1.c ****             cyBle_pendingFlashWrite |= CYBLE_PENDING_CCCD_FLASH_CLEAR_ALL_BIT;
 709:Generated_Source\PSoC4/BLE_1.c ****         }
 710:Generated_Source\PSoC4/BLE_1.c ****         else
 711:Generated_Source\PSoC4/BLE_1.c ****         {
 712:Generated_Source\PSoC4/BLE_1.c ****             /* Get the BD handle from Address */
 713:Generated_Source\PSoC4/BLE_1.c ****             apiResult = CyBle_GapGetPeerBdHandle(&bDevHandle, bdAddr);
 714:Generated_Source\PSoC4/BLE_1.c ****             if(apiResult == CYBLE_ERROR_OK)
 715:Generated_Source\PSoC4/BLE_1.c ****             {
ARM GAS  C:\Users\Jacob\AppData\Local\Temp\ccFn1uj1.s 			page 14


 716:Generated_Source\PSoC4/BLE_1.c ****                 /* Store BD handle to clear cccd values by CyBle_StoreBondingData API */
 717:Generated_Source\PSoC4/BLE_1.c ****                 cyBle_pendingFlashWrite |= CYBLE_PENDING_CCCD_FLASH_CLEAR_BIT;
 718:Generated_Source\PSoC4/BLE_1.c ****                 cyBle_pendingFlashClearCccdHandle = bDevHandle;
 719:Generated_Source\PSoC4/BLE_1.c ****             }
 720:Generated_Source\PSoC4/BLE_1.c ****         }
 721:Generated_Source\PSoC4/BLE_1.c ****     #endif /* CYBLE_GATT_DB_CCCD_COUNT != 0u */
 722:Generated_Source\PSoC4/BLE_1.c ****         if(apiResult == CYBLE_ERROR_OK)
 723:Generated_Source\PSoC4/BLE_1.c ****         {
 724:Generated_Source\PSoC4/BLE_1.c ****             apiResult = CyBle_GapRemoveDeviceFromWhiteList(bdAddr);
 725:Generated_Source\PSoC4/BLE_1.c ****         }
 726:Generated_Source\PSoC4/BLE_1.c ****     }
 727:Generated_Source\PSoC4/BLE_1.c ****     else
 728:Generated_Source\PSoC4/BLE_1.c ****     {
 729:Generated_Source\PSoC4/BLE_1.c ****         apiResult = CYBLE_ERROR_INVALID_OPERATION;
 730:Generated_Source\PSoC4/BLE_1.c ****     }
 731:Generated_Source\PSoC4/BLE_1.c ****     
 732:Generated_Source\PSoC4/BLE_1.c ****     return(apiResult);
 733:Generated_Source\PSoC4/BLE_1.c **** }
 734:Generated_Source\PSoC4/BLE_1.c **** 
 735:Generated_Source\PSoC4/BLE_1.c **** 
 736:Generated_Source\PSoC4/BLE_1.c **** #endif /* (CYBLE_GAP_ROLE_PERIPHERAL || CYBLE_GAP_ROLE_CENTRAL) && (CYBLE_BONDING_REQUIREMENT == CY
 737:Generated_Source\PSoC4/BLE_1.c **** 
 738:Generated_Source\PSoC4/BLE_1.c **** 
 739:Generated_Source\PSoC4/BLE_1.c **** #if(CYBLE_GAP_ROLE_PERIPHERAL || CYBLE_GAP_ROLE_BROADCASTER)
 740:Generated_Source\PSoC4/BLE_1.c **** 
 741:Generated_Source\PSoC4/BLE_1.c ****     /******************************************************************************
 742:Generated_Source\PSoC4/BLE_1.c ****     *  Function Name: CyBle_GappStartAdvertisement
 743:Generated_Source\PSoC4/BLE_1.c ****     ***************************************************************************//**
 744:Generated_Source\PSoC4/BLE_1.c ****     *     
 745:Generated_Source\PSoC4/BLE_1.c ****     *  This function is used to start the advertisement using the advertisement data 
 746:Generated_Source\PSoC4/BLE_1.c ****     *  set in the component customizer's GUI. After invoking this API, the device 
 747:Generated_Source\PSoC4/BLE_1.c ****     *  will be available for connection by the devices configured for GAP central 
 748:Generated_Source\PSoC4/BLE_1.c ****     *  role. It is only included if the device is configured for GAP Peripheral or 
 749:Generated_Source\PSoC4/BLE_1.c ****     *  GAP Peripheral + Central role.
 750:Generated_Source\PSoC4/BLE_1.c ****     *  
 751:Generated_Source\PSoC4/BLE_1.c ****     *  On start of advertisement, GAP Peripheral receives the
 752:Generated_Source\PSoC4/BLE_1.c ****     *  CYBLE_EVT_GAPP_ADVERTISEMENT_START_STOP event. The following events are 
 753:Generated_Source\PSoC4/BLE_1.c ****     *  possible on invoking this function:
 754:Generated_Source\PSoC4/BLE_1.c ****     *  
 755:Generated_Source\PSoC4/BLE_1.c ****     *  * CYBLE_EVT_GAP_DEVICE_CONNECTED - If the device connects to a GAP Central and 
 756:Generated_Source\PSoC4/BLE_1.c ****     *    Link Layer Privacy is disabled in component customizer.
 757:Generated_Source\PSoC4/BLE_1.c ****     *  * CYBLE_EVT_GAP_ENHANCE_CONN_COMPLETE - If the device connects to a GAP Central and 
 758:Generated_Source\PSoC4/BLE_1.c ****     *    Link Layer Privacy is enabled in component customizer.
 759:Generated_Source\PSoC4/BLE_1.c ****     *  * CYBLE_EVT_TIMEOUT: If no device in GAP Central mode connects to this 
 760:Generated_Source\PSoC4/BLE_1.c ****     *                       device within the specified timeout limit. Stack 
 761:Generated_Source\PSoC4/BLE_1.c ****     *                       automatically initiate stop advertising when Slow 
 762:Generated_Source\PSoC4/BLE_1.c ****     *                       advertising was initiated, or starts Slow advertising
 763:Generated_Source\PSoC4/BLE_1.c ****     *                       after Fast advertising timeout occur.
 764:Generated_Source\PSoC4/BLE_1.c ****     *  * CYBLE_EVT_GAPP_ADVERTISEMENT_START_STOP: If device started or stopped
 765:Generated_Source\PSoC4/BLE_1.c ****     *                                               advertising. Use CyBle_GetState()
 766:Generated_Source\PSoC4/BLE_1.c ****     *                                               to determine the state. Sequential 
 767:Generated_Source\PSoC4/BLE_1.c ****     *                                               advertising could be started when
 768:Generated_Source\PSoC4/BLE_1.c ****     *                                               CYBLE_STATE_DISCONNECTED state is
 769:Generated_Source\PSoC4/BLE_1.c ****     *                                               returned.
 770:Generated_Source\PSoC4/BLE_1.c ****     * 
 771:Generated_Source\PSoC4/BLE_1.c ****     *  \param advertisingIntervalType: Fast or slow advertising interval with timings
 772:Generated_Source\PSoC4/BLE_1.c ****     *                                 entered in Advertising settings section of the
ARM GAS  C:\Users\Jacob\AppData\Local\Temp\ccFn1uj1.s 			page 15


 773:Generated_Source\PSoC4/BLE_1.c ****     *                                 customizer.
 774:Generated_Source\PSoC4/BLE_1.c ****     *  * CYBLE_ADVERTISING_FAST   0x00u
 775:Generated_Source\PSoC4/BLE_1.c ****     *  * CYBLE_ADVERTISING_SLOW   0x01u
 776:Generated_Source\PSoC4/BLE_1.c ****     *  * CYBLE_ADVERTISING_CUSTOM 0x02u
 777:Generated_Source\PSoC4/BLE_1.c ****     * 
 778:Generated_Source\PSoC4/BLE_1.c ****     * \return
 779:Generated_Source\PSoC4/BLE_1.c ****     *  CYBLE_API_RESULT_T : Return value indicates if the function succeeded or
 780:Generated_Source\PSoC4/BLE_1.c ****     *  failed. Following are the possible error codes.
 781:Generated_Source\PSoC4/BLE_1.c ****     * 
 782:Generated_Source\PSoC4/BLE_1.c ****     *   Errors codes                      |  Description
 783:Generated_Source\PSoC4/BLE_1.c ****     *   --------------------------------- |  --------------------------------
 784:Generated_Source\PSoC4/BLE_1.c ****     *   CYBLE_ERROR_OK                    |  On successful operation.
 785:Generated_Source\PSoC4/BLE_1.c ****     *   CYBLE_ERROR_INVALID_PARAMETER     |  On passing an invalid parameter.
 786:Generated_Source\PSoC4/BLE_1.c ****     *   CYBLE_ERROR_INVALID_STATE         |  On calling this API not in Disconnected state.
 787:Generated_Source\PSoC4/BLE_1.c ****     *
 788:Generated_Source\PSoC4/BLE_1.c ****     * 
 789:Generated_Source\PSoC4/BLE_1.c ****     *******************************************************************************/
 790:Generated_Source\PSoC4/BLE_1.c ****     CYBLE_API_RESULT_T CyBle_GappStartAdvertisement(uint8 advertisingIntervalType)
 791:Generated_Source\PSoC4/BLE_1.c ****     {
 792:Generated_Source\PSoC4/BLE_1.c ****         CYBLE_API_RESULT_T apiResult;
 793:Generated_Source\PSoC4/BLE_1.c ****         
 794:Generated_Source\PSoC4/BLE_1.c ****         if(advertisingIntervalType > CYBLE_ADVERTISING_CUSTOM)
 795:Generated_Source\PSoC4/BLE_1.c ****         {
 796:Generated_Source\PSoC4/BLE_1.c ****             apiResult = CYBLE_ERROR_INVALID_PARAMETER;
 797:Generated_Source\PSoC4/BLE_1.c ****         }
 798:Generated_Source\PSoC4/BLE_1.c ****         else if((CYBLE_STATE_DISCONNECTED == CyBle_GetState()) && ((cyBle_eventHandlerFlag & CYBLE_
 799:Generated_Source\PSoC4/BLE_1.c ****         {   
 800:Generated_Source\PSoC4/BLE_1.c ****             if(advertisingIntervalType == CYBLE_ADVERTISING_FAST)
 801:Generated_Source\PSoC4/BLE_1.c ****             {
 802:Generated_Source\PSoC4/BLE_1.c ****                 cyBle_discoveryModeInfo.advTo = CYBLE_FAST_ADV_TIMEOUT;
 803:Generated_Source\PSoC4/BLE_1.c ****                 cyBle_discoveryModeInfo.advParam->advIntvMin = CYBLE_FAST_ADV_INT_MIN;
 804:Generated_Source\PSoC4/BLE_1.c ****                 cyBle_discoveryModeInfo.advParam->advIntvMax = CYBLE_FAST_ADV_INT_MAX;
 805:Generated_Source\PSoC4/BLE_1.c ****             }
 806:Generated_Source\PSoC4/BLE_1.c ****             else if(advertisingIntervalType == CYBLE_ADVERTISING_SLOW)
 807:Generated_Source\PSoC4/BLE_1.c ****             {
 808:Generated_Source\PSoC4/BLE_1.c ****                 cyBle_discoveryModeInfo.advTo = CYBLE_SLOW_ADV_TIMEOUT;
 809:Generated_Source\PSoC4/BLE_1.c ****                 cyBle_discoveryModeInfo.advParam->advIntvMin = CYBLE_SLOW_ADV_INT_MIN;
 810:Generated_Source\PSoC4/BLE_1.c ****                 cyBle_discoveryModeInfo.advParam->advIntvMax = CYBLE_SLOW_ADV_INT_MAX;
 811:Generated_Source\PSoC4/BLE_1.c ****             }       
 812:Generated_Source\PSoC4/BLE_1.c ****             else /* Do not update advertising intervals */
 813:Generated_Source\PSoC4/BLE_1.c ****             {
 814:Generated_Source\PSoC4/BLE_1.c ****             }
 815:Generated_Source\PSoC4/BLE_1.c ****             cyBle_advertisingIntervalType = advertisingIntervalType;
 816:Generated_Source\PSoC4/BLE_1.c ****             apiResult = CyBle_GappEnterDiscoveryMode(&cyBle_discoveryModeInfo);
 817:Generated_Source\PSoC4/BLE_1.c ****         
 818:Generated_Source\PSoC4/BLE_1.c ****             if(apiResult == CYBLE_ERROR_OK)
 819:Generated_Source\PSoC4/BLE_1.c ****             {
 820:Generated_Source\PSoC4/BLE_1.c ****                 cyBle_eventHandlerFlag |= CYBLE_START_FLAG;
 821:Generated_Source\PSoC4/BLE_1.c ****             }
 822:Generated_Source\PSoC4/BLE_1.c ****         }
 823:Generated_Source\PSoC4/BLE_1.c ****         else
 824:Generated_Source\PSoC4/BLE_1.c ****         {
 825:Generated_Source\PSoC4/BLE_1.c ****             apiResult = CYBLE_ERROR_INVALID_STATE;
 826:Generated_Source\PSoC4/BLE_1.c ****         }
 827:Generated_Source\PSoC4/BLE_1.c **** 
 828:Generated_Source\PSoC4/BLE_1.c ****         return (apiResult);
 829:Generated_Source\PSoC4/BLE_1.c ****     }
ARM GAS  C:\Users\Jacob\AppData\Local\Temp\ccFn1uj1.s 			page 16


 830:Generated_Source\PSoC4/BLE_1.c **** 
 831:Generated_Source\PSoC4/BLE_1.c ****     
 832:Generated_Source\PSoC4/BLE_1.c ****     /******************************************************************************
 833:Generated_Source\PSoC4/BLE_1.c ****     * Function Name: CyBle_GappStopAdvertisement
 834:Generated_Source\PSoC4/BLE_1.c ****     ***************************************************************************//**
 835:Generated_Source\PSoC4/BLE_1.c ****     * 
 836:Generated_Source\PSoC4/BLE_1.c ****     *   This function can be used to exit from discovery mode. After the execution 
 837:Generated_Source\PSoC4/BLE_1.c ****     *   of this function, there will no longer be any advertisements. On stopping 
 838:Generated_Source\PSoC4/BLE_1.c ****     *   advertising, GAP Peripheral receives CYBLE_EVT_GAPP_ADVERTISEMENT_START_STOP
 839:Generated_Source\PSoC4/BLE_1.c ****     *   event. It is expected that the application layer tracks the function call 
 840:Generated_Source\PSoC4/BLE_1.c ****     *   performed before occurrence of this event as this event can occur on making 
 841:Generated_Source\PSoC4/BLE_1.c ****     *   a call to Cy_BleGappStartAdvertisement(), CyBle_GappEnterDiscoveryMode(), 
 842:Generated_Source\PSoC4/BLE_1.c ****     *   or CyBle_GappStartAdvertisement() functions as well.
 843:Generated_Source\PSoC4/BLE_1.c ****     *   
 844:Generated_Source\PSoC4/BLE_1.c ****     *   The following event occurs on invoking this function:
 845:Generated_Source\PSoC4/BLE_1.c ****     *   * CYBLE_EVT_GAPP_ADVERTISEMENT_START_STOP
 846:Generated_Source\PSoC4/BLE_1.c ****     * 
 847:Generated_Source\PSoC4/BLE_1.c ****     *  \return
 848:Generated_Source\PSoC4/BLE_1.c ****     *   None
 849:Generated_Source\PSoC4/BLE_1.c ****     * 
 850:Generated_Source\PSoC4/BLE_1.c ****     *******************************************************************************/
 851:Generated_Source\PSoC4/BLE_1.c ****     void CyBle_GappStopAdvertisement(void)
 852:Generated_Source\PSoC4/BLE_1.c ****     {
 853:Generated_Source\PSoC4/BLE_1.c ****         CyBle_GappExitDiscoveryMode();
 854:Generated_Source\PSoC4/BLE_1.c ****         cyBle_eventHandlerFlag |= CYBLE_STOP_FLAG;
 855:Generated_Source\PSoC4/BLE_1.c ****     }
 856:Generated_Source\PSoC4/BLE_1.c ****     
 857:Generated_Source\PSoC4/BLE_1.c ****     
 858:Generated_Source\PSoC4/BLE_1.c ****     /******************************************************************************
 859:Generated_Source\PSoC4/BLE_1.c ****     * Function Name: CyBle_ChangeAdDeviceAddress
 860:Generated_Source\PSoC4/BLE_1.c ****     ***************************************************************************//**
 861:Generated_Source\PSoC4/BLE_1.c ****     * 
 862:Generated_Source\PSoC4/BLE_1.c ****     *  This API is used to set the Bluetooth device address into the advertisement 
 863:Generated_Source\PSoC4/BLE_1.c ****     *  or scan response data structure.
 864:Generated_Source\PSoC4/BLE_1.c ****     * 
 865:Generated_Source\PSoC4/BLE_1.c ****     *  \param bdAddr: Bluetooth Device address. The variable is of type CYBLE_GAP_BD_ADDR_T
 866:Generated_Source\PSoC4/BLE_1.c ****     *  \param dest: 0 - selects advertisement structure, not zero value selects scan 
 867:Generated_Source\PSoC4/BLE_1.c ****     *               response structure.
 868:Generated_Source\PSoC4/BLE_1.c ****     * 
 869:Generated_Source\PSoC4/BLE_1.c ****     * \return
 870:Generated_Source\PSoC4/BLE_1.c ****     *  None
 871:Generated_Source\PSoC4/BLE_1.c ****     *  
 872:Generated_Source\PSoC4/BLE_1.c ****     *******************************************************************************/
 873:Generated_Source\PSoC4/BLE_1.c ****     void CyBle_ChangeAdDeviceAddress(const CYBLE_GAP_BD_ADDR_T* bdAddr, uint8 dest)
 874:Generated_Source\PSoC4/BLE_1.c ****     {
 875:Generated_Source\PSoC4/BLE_1.c ****         uint8 i;
 876:Generated_Source\PSoC4/BLE_1.c ****         uint8 *destBuffer = NULL;
 877:Generated_Source\PSoC4/BLE_1.c ****         
 878:Generated_Source\PSoC4/BLE_1.c ****         if(dest == 0u)      /* Destination - advertising structure */
 879:Generated_Source\PSoC4/BLE_1.c ****         {
 880:Generated_Source\PSoC4/BLE_1.c ****             #ifdef CYBLE_ADV_PKT_INDEX_BLUETOOTH_DEVICE_ADDRESS
 881:Generated_Source\PSoC4/BLE_1.c ****                 destBuffer = &cyBle_discoveryData.advData[CYBLE_ADV_PKT_INDEX_BLUETOOTH_DEVICE_ADDR
 882:Generated_Source\PSoC4/BLE_1.c ****             #endif /* CYBLE_ADV_PKT_INDEX_BLUETOOTH_DEVICE_ADDRESS */
 883:Generated_Source\PSoC4/BLE_1.c ****         }
 884:Generated_Source\PSoC4/BLE_1.c ****         else                /* Destination - scan response structure */
 885:Generated_Source\PSoC4/BLE_1.c ****         {
 886:Generated_Source\PSoC4/BLE_1.c ****             #ifdef CYBLE_SCN_PKT_INDEX_BLUETOOTH_DEVICE_ADDRESS
ARM GAS  C:\Users\Jacob\AppData\Local\Temp\ccFn1uj1.s 			page 17


 887:Generated_Source\PSoC4/BLE_1.c ****                 destBuffer = &cyBle_scanRspData.scanRspData[CYBLE_SCN_PKT_INDEX_BLUETOOTH_DEVICE_AD
 888:Generated_Source\PSoC4/BLE_1.c ****             #endif /* CYBLE_SCN_PKT_INDEX_BLUETOOTH_DEVICE_ADDRESS */    
 889:Generated_Source\PSoC4/BLE_1.c ****         }
 890:Generated_Source\PSoC4/BLE_1.c ****         
 891:Generated_Source\PSoC4/BLE_1.c ****         if(destBuffer != NULL)
 892:Generated_Source\PSoC4/BLE_1.c ****         {
 893:Generated_Source\PSoC4/BLE_1.c ****             /* Update Device Address type */
 894:Generated_Source\PSoC4/BLE_1.c ****             destBuffer[0u] = bdAddr->type;
 895:Generated_Source\PSoC4/BLE_1.c ****             
 896:Generated_Source\PSoC4/BLE_1.c ****             for(i = 0u; i < CYBLE_GAP_BD_ADDR_SIZE; i++)
 897:Generated_Source\PSoC4/BLE_1.c ****             {
 898:Generated_Source\PSoC4/BLE_1.c ****                 destBuffer[i + 1u] = bdAddr->bdAddr[i];
 899:Generated_Source\PSoC4/BLE_1.c ****             }
 900:Generated_Source\PSoC4/BLE_1.c ****         }
 901:Generated_Source\PSoC4/BLE_1.c ****     }
 902:Generated_Source\PSoC4/BLE_1.c ****   
 903:Generated_Source\PSoC4/BLE_1.c **** #endif /* CYBLE_GAP_ROLE_PERIPHERAL || CYBLE_GAP_ROLE_BROADCASTER */
 904:Generated_Source\PSoC4/BLE_1.c **** 
 905:Generated_Source\PSoC4/BLE_1.c **** 
 906:Generated_Source\PSoC4/BLE_1.c **** #if(CYBLE_GAP_ROLE_CENTRAL || CYBLE_GAP_ROLE_OBSERVER)
 907:Generated_Source\PSoC4/BLE_1.c **** 
 908:Generated_Source\PSoC4/BLE_1.c ****     /******************************************************************************
 909:Generated_Source\PSoC4/BLE_1.c ****     * Function Name: CyBle_GapcStartScan
 910:Generated_Source\PSoC4/BLE_1.c ****     ***************************************************************************//**
 911:Generated_Source\PSoC4/BLE_1.c ****     * 
 912:Generated_Source\PSoC4/BLE_1.c ****     *   This function is used for discovering GAP peripheral devices that are 
 913:Generated_Source\PSoC4/BLE_1.c ****     *   available for connection. It performs the scanning routine using the 
 914:Generated_Source\PSoC4/BLE_1.c ****     *   parameters entered in the component's customizer.
 915:Generated_Source\PSoC4/BLE_1.c ****     *   
 916:Generated_Source\PSoC4/BLE_1.c ****     *   As soon as the discovery operation starts, CYBLE_EVT_GAPC_SCAN_START_STOP 
 917:Generated_Source\PSoC4/BLE_1.c ****     *   event is generated. The CYBLE_EVT_GAPC_SCAN_PROGRESS_RESULT event is 
 918:Generated_Source\PSoC4/BLE_1.c ****     *   generated when a GAP peripheral device is located. There are three discovery
 919:Generated_Source\PSoC4/BLE_1.c ****     *   procedures can be selected in the customizer's GUI:
 920:Generated_Source\PSoC4/BLE_1.c ****     *   
 921:Generated_Source\PSoC4/BLE_1.c ****     *   * Observation procedure: A device performing the observer role receives only
 922:Generated_Source\PSoC4/BLE_1.c ****     *                            advertisement data from devices irrespective of 
 923:Generated_Source\PSoC4/BLE_1.c ****     *                            their discoverable mode settings. Advertisement 
 924:Generated_Source\PSoC4/BLE_1.c ****     *                            data received is provided by the event,      
 925:Generated_Source\PSoC4/BLE_1.c ****     *                            CYBLE_EVT_GAPC_SCAN_PROGRESS_RESULT. This procedure
 926:Generated_Source\PSoC4/BLE_1.c ****     *                            requires the scanType sub parameter to be passive
 927:Generated_Source\PSoC4/BLE_1.c ****     *                            scanning. 
 928:Generated_Source\PSoC4/BLE_1.c ****     *   
 929:Generated_Source\PSoC4/BLE_1.c ****     *   * Limited Discovery procedure: A device performing the limited discovery
 930:Generated_Source\PSoC4/BLE_1.c ****     *                                  procedure receives advertisement data and 
 931:Generated_Source\PSoC4/BLE_1.c ****     *                                  scan# response data from devices in the 
 932:Generated_Source\PSoC4/BLE_1.c ****     *                                  limited discoverable mode only. Received data
 933:Generated_Source\PSoC4/BLE_1.c ****     *                                  is provided by the event, 
 934:Generated_Source\PSoC4/BLE_1.c ****     *                                  CYBLE_EVT_GAPC_SCAN_PROGRESS_RESULT. This 
 935:Generated_Source\PSoC4/BLE_1.c ****     *                                  procedure requires the scanType sub-parameter 
 936:Generated_Source\PSoC4/BLE_1.c ****     *                                  to be active scanning.
 937:Generated_Source\PSoC4/BLE_1.c ****     *   
 938:Generated_Source\PSoC4/BLE_1.c ****     *   * General Discovery procedure: A device performing the general discovery 
 939:Generated_Source\PSoC4/BLE_1.c ****     *                                  procedure receives the advertisement data and
 940:Generated_Source\PSoC4/BLE_1.c ****     *                                  scan response data from devices in both 
 941:Generated_Source\PSoC4/BLE_1.c ****     *                                  limited discoverable mode and the general 
 942:Generated_Source\PSoC4/BLE_1.c ****     *                                  discoverable mode. Received data is provided
 943:Generated_Source\PSoC4/BLE_1.c ****     *                                  by the event,
ARM GAS  C:\Users\Jacob\AppData\Local\Temp\ccFn1uj1.s 			page 18


 944:Generated_Source\PSoC4/BLE_1.c ****     *                                  CYBLE_EVT_GAPC_SCAN_PROGRESS_RESULT. This 
 945:Generated_Source\PSoC4/BLE_1.c ****     *                                  procedure requires the scanType sub-parameter
 946:Generated_Source\PSoC4/BLE_1.c ****     *                                  to be active scanning.
 947:Generated_Source\PSoC4/BLE_1.c ****     *   
 948:Generated_Source\PSoC4/BLE_1.c ****     *   Every Advertisement / Scan response packet received results in a new event, 
 949:Generated_Source\PSoC4/BLE_1.c ****     *   CYBLE_EVT_GAPC_SCAN_PROGRESS_RESULT.
 950:Generated_Source\PSoC4/BLE_1.c ****     *   If 'scanTo' sub-parameter is a non-zero value, then upon commencement of 
 951:Generated_Source\PSoC4/BLE_1.c ****     *   discovery procedure and elapsed time = 'scanTo', CYBLE_EVT_TIMEOUT event
 952:Generated_Source\PSoC4/BLE_1.c ****     *   is generated with the event parameter indicating CYBLE_GAP_SCAN_TO.
 953:Generated_Source\PSoC4/BLE_1.c ****     *   Possible generated events are:
 954:Generated_Source\PSoC4/BLE_1.c ****     *   * CYBLE_EVT_GAPC_SCAN_START_STOP: If a device started or stopped scanning. 
 955:Generated_Source\PSoC4/BLE_1.c ****     *                                     Use CyBle_GetState() to determine the 
 956:Generated_Source\PSoC4/BLE_1.c ****     *                                     state. Sequential scanning could be 
 957:Generated_Source\PSoC4/BLE_1.c ****     *                                     started when CYBLE_STATE_DISCONNECTED 
 958:Generated_Source\PSoC4/BLE_1.c ****     *                                     state is returned. 
 959:Generated_Source\PSoC4/BLE_1.c ****     *   * CYBLE_EVT_GAPC_SCAN_PROGRESS_RESULT 
 960:Generated_Source\PSoC4/BLE_1.c ****     *   * CYBLE_EVT_TIMEOUT (CYBLE_GAP_SCAN_TO)
 961:Generated_Source\PSoC4/BLE_1.c ****     * 
 962:Generated_Source\PSoC4/BLE_1.c ****     *   \param scanningIntervalType:  Fast or slow scanning interval with
 963:Generated_Source\PSoC4/BLE_1.c ****     *       timings entered in Scan settings section of the customizer.
 964:Generated_Source\PSoC4/BLE_1.c ****     * 	  * CYBLE_SCANNING_FAST   0x00u
 965:Generated_Source\PSoC4/BLE_1.c ****     * 	  * CYBLE_SCANNING_SLOW   0x01u
 966:Generated_Source\PSoC4/BLE_1.c ****     * 	  * CYBLE_SCANNING_CUSTOM 0x02u
 967:Generated_Source\PSoC4/BLE_1.c ****     * 
 968:Generated_Source\PSoC4/BLE_1.c ****     * \return
 969:Generated_Source\PSoC4/BLE_1.c ****     *  CYBLE_API_RESULT_T : Return value indicates if the function succeeded or
 970:Generated_Source\PSoC4/BLE_1.c ****     *  failed. Following are the possible error codes.
 971:Generated_Source\PSoC4/BLE_1.c ****     *
 972:Generated_Source\PSoC4/BLE_1.c ****     *   Errors codes                       | Description
 973:Generated_Source\PSoC4/BLE_1.c ****     *   ---------------------------------- | -----------------------------------
 974:Generated_Source\PSoC4/BLE_1.c ****     *   CYBLE_ERROR_OK                     | On successful operation.
 975:Generated_Source\PSoC4/BLE_1.c ****     *   CYBLE_ERROR_STACK_INTERNAL         | An error occurred in the BLE stack.
 976:Generated_Source\PSoC4/BLE_1.c ****     *   CYBLE_ERROR_INVALID_PARAMETER      | On passing an invalid parameter.
 977:Generated_Source\PSoC4/BLE_1.c ****     *  
 978:Generated_Source\PSoC4/BLE_1.c ****     *******************************************************************************/
 979:Generated_Source\PSoC4/BLE_1.c ****     CYBLE_API_RESULT_T CyBle_GapcStartScan(uint8 scanningIntervalType)
 980:Generated_Source\PSoC4/BLE_1.c ****     {
 981:Generated_Source\PSoC4/BLE_1.c ****         CYBLE_API_RESULT_T apiResult;
 982:Generated_Source\PSoC4/BLE_1.c **** 
 983:Generated_Source\PSoC4/BLE_1.c ****         if(scanningIntervalType > CYBLE_SCANNING_CUSTOM)
 984:Generated_Source\PSoC4/BLE_1.c ****         {
 985:Generated_Source\PSoC4/BLE_1.c ****             apiResult = CYBLE_ERROR_INVALID_PARAMETER;
 986:Generated_Source\PSoC4/BLE_1.c ****         }
 987:Generated_Source\PSoC4/BLE_1.c ****         else
 988:Generated_Source\PSoC4/BLE_1.c ****         {
 989:Generated_Source\PSoC4/BLE_1.c ****             if(scanningIntervalType == CYBLE_SCANNING_FAST)
 990:Generated_Source\PSoC4/BLE_1.c ****             {
 991:Generated_Source\PSoC4/BLE_1.c ****                 cyBle_discoveryInfo.scanTo = CYBLE_FAST_SCAN_TIMEOUT;
 992:Generated_Source\PSoC4/BLE_1.c ****                 cyBle_discoveryInfo.scanIntv = CYBLE_FAST_SCAN_INTERVAL;
 993:Generated_Source\PSoC4/BLE_1.c ****                 cyBle_discoveryInfo.scanWindow = CYBLE_FAST_SCAN_WINDOW;
 994:Generated_Source\PSoC4/BLE_1.c ****             }
 995:Generated_Source\PSoC4/BLE_1.c ****             else if(scanningIntervalType == CYBLE_SCANNING_SLOW)
 996:Generated_Source\PSoC4/BLE_1.c ****             {
 997:Generated_Source\PSoC4/BLE_1.c ****                 cyBle_discoveryInfo.scanTo = CYBLE_SLOW_SCAN_TIMEOUT;
 998:Generated_Source\PSoC4/BLE_1.c ****                 cyBle_discoveryInfo.scanIntv = CYBLE_SLOW_SCAN_INTERVAL;
 999:Generated_Source\PSoC4/BLE_1.c ****                 cyBle_discoveryInfo.scanWindow = CYBLE_SLOW_SCAN_WINDOW;
1000:Generated_Source\PSoC4/BLE_1.c ****             }       
ARM GAS  C:\Users\Jacob\AppData\Local\Temp\ccFn1uj1.s 			page 19


1001:Generated_Source\PSoC4/BLE_1.c ****             else /* Do not update scanning intervals */
1002:Generated_Source\PSoC4/BLE_1.c ****             {
1003:Generated_Source\PSoC4/BLE_1.c ****             }
1004:Generated_Source\PSoC4/BLE_1.c ****             
1005:Generated_Source\PSoC4/BLE_1.c ****             cyBle_scanningIntervalType = scanningIntervalType;
1006:Generated_Source\PSoC4/BLE_1.c ****             apiResult = CyBle_GapcStartDiscovery(&cyBle_discoveryInfo);
1007:Generated_Source\PSoC4/BLE_1.c ****         
1008:Generated_Source\PSoC4/BLE_1.c ****             if(apiResult == CYBLE_ERROR_OK)
1009:Generated_Source\PSoC4/BLE_1.c ****             {
1010:Generated_Source\PSoC4/BLE_1.c ****                 cyBle_eventHandlerFlag |= CYBLE_START_FLAG;
1011:Generated_Source\PSoC4/BLE_1.c ****             }
1012:Generated_Source\PSoC4/BLE_1.c ****         }
1013:Generated_Source\PSoC4/BLE_1.c ****        
1014:Generated_Source\PSoC4/BLE_1.c ****         return (apiResult);
1015:Generated_Source\PSoC4/BLE_1.c ****     }
1016:Generated_Source\PSoC4/BLE_1.c ****     
1017:Generated_Source\PSoC4/BLE_1.c ****     
1018:Generated_Source\PSoC4/BLE_1.c ****     /******************************************************************************
1019:Generated_Source\PSoC4/BLE_1.c ****     * Function Name: CyBle_GapcStopScan
1020:Generated_Source\PSoC4/BLE_1.c ****     ***************************************************************************//**
1021:Generated_Source\PSoC4/BLE_1.c ****     * 
1022:Generated_Source\PSoC4/BLE_1.c ****     *   This function used to stop the discovery of devices. On stopping discovery
1023:Generated_Source\PSoC4/BLE_1.c ****     *   operation, CYBLE_EVT_GAPC_SCAN_START_STOP event is generated. Application
1024:Generated_Source\PSoC4/BLE_1.c ****     *   layer needs to keep track of the function call made before receiving this
1025:Generated_Source\PSoC4/BLE_1.c ****     *   event to associate this event with either the start or stop discovery
1026:Generated_Source\PSoC4/BLE_1.c ****     *   function.
1027:Generated_Source\PSoC4/BLE_1.c ****     * 
1028:Generated_Source\PSoC4/BLE_1.c ****     *   Possible events generated are:
1029:Generated_Source\PSoC4/BLE_1.c ****     *    * CYBLE_EVT_GAPC_SCAN_START_STOP
1030:Generated_Source\PSoC4/BLE_1.c ****     * 
1031:Generated_Source\PSoC4/BLE_1.c ****     *  \return
1032:Generated_Source\PSoC4/BLE_1.c ****     *   None
1033:Generated_Source\PSoC4/BLE_1.c ****     * 
1034:Generated_Source\PSoC4/BLE_1.c ****     *******************************************************************************/
1035:Generated_Source\PSoC4/BLE_1.c ****     void CyBle_GapcStopScan(void)
1036:Generated_Source\PSoC4/BLE_1.c ****     {
1037:Generated_Source\PSoC4/BLE_1.c ****         CyBle_GapcStopDiscovery();
1038:Generated_Source\PSoC4/BLE_1.c ****         
1039:Generated_Source\PSoC4/BLE_1.c ****         cyBle_eventHandlerFlag |= CYBLE_STOP_FLAG;
1040:Generated_Source\PSoC4/BLE_1.c ****     }
1041:Generated_Source\PSoC4/BLE_1.c **** 
1042:Generated_Source\PSoC4/BLE_1.c ****     
1043:Generated_Source\PSoC4/BLE_1.c **** #endif /* CYBLE_GAP_ROLE_CENTRAL || CYBLE_GAP_ROLE_OBSERVER */
1044:Generated_Source\PSoC4/BLE_1.c **** 
1045:Generated_Source\PSoC4/BLE_1.c **** 
1046:Generated_Source\PSoC4/BLE_1.c **** #if(CYBLE_GAP_ROLE_CENTRAL)
1047:Generated_Source\PSoC4/BLE_1.c **** 
1048:Generated_Source\PSoC4/BLE_1.c ****     /******************************************************************************
1049:Generated_Source\PSoC4/BLE_1.c ****     * Function Name: CyBle_GapcConnectDevice
1050:Generated_Source\PSoC4/BLE_1.c ****     ***************************************************************************//**
1051:Generated_Source\PSoC4/BLE_1.c ****     * 
1052:Generated_Source\PSoC4/BLE_1.c ****     *  This function is used to send a connection request to the remote device with
1053:Generated_Source\PSoC4/BLE_1.c ****     *  the connection parameters set in the component customizer. This function needs
1054:Generated_Source\PSoC4/BLE_1.c ****     *  to be called only once after the target device is discovered by 
1055:Generated_Source\PSoC4/BLE_1.c ****     *  CyBle_GapcStartScan() and further scanning has stopped. Scanning is 
1056:Generated_Source\PSoC4/BLE_1.c ****     *  successfully stopped on invoking CyBle_GapcStopScan() and then receiving the
1057:Generated_Source\PSoC4/BLE_1.c ****     *  event CYBLE_EVT_GAPC_SCAN_START_STOP with sub-parameter 'success' = 0x01u.
ARM GAS  C:\Users\Jacob\AppData\Local\Temp\ccFn1uj1.s 			page 20


1058:Generated_Source\PSoC4/BLE_1.c ****     *  
1059:Generated_Source\PSoC4/BLE_1.c ****     *  On successful connection, the following events are generated at the GAP 
1060:Generated_Source\PSoC4/BLE_1.c ****     *  Central device (as well as the GAP Peripheral device), in the following order.
1061:Generated_Source\PSoC4/BLE_1.c ****     *  * CYBLE_EVT_GATT_CONNECT_IND
1062:Generated_Source\PSoC4/BLE_1.c ****     *  * CYBLE_EVT_GAP_DEVICE_CONNECTED - If the device connects to a GAP Central and 
1063:Generated_Source\PSoC4/BLE_1.c ****     *    Link Layer Privacy is disabled in component customizer.
1064:Generated_Source\PSoC4/BLE_1.c ****     *  * CYBLE_EVT_GAP_ENHANCE_CONN_COMPLETE - If the device connects to a GAP Central and 
1065:Generated_Source\PSoC4/BLE_1.c ****     *    Link Layer Privacy is enabled in component customizer.
1066:Generated_Source\PSoC4/BLE_1.c ****     *  * CYBLE_EVT_GAP_DEVICE_CONNECTED
1067:Generated_Source\PSoC4/BLE_1.c ****     *  
1068:Generated_Source\PSoC4/BLE_1.c ****     *  A procedure is considered to have timed out if a connection response packet is 
1069:Generated_Source\PSoC4/BLE_1.c ****     *  not received within time set by cyBle_connectingTimeout global variable
1070:Generated_Source\PSoC4/BLE_1.c ****     *  (30 seconds by default). CYBLE_EVT_TIMEOUT event with CYBLE_GENERIC_TO parameter
1071:Generated_Source\PSoC4/BLE_1.c ****     *  will indicate about connection procedure timeout. Connection will automatically
1072:Generated_Source\PSoC4/BLE_1.c ****     *  be canceled and state will be changed to CYBLE_STATE_DISCONNECTED.
1073:Generated_Source\PSoC4/BLE_1.c ****     * 
1074:Generated_Source\PSoC4/BLE_1.c ****     *  \param address: The device address of the remote device to connect to. 
1075:Generated_Source\PSoC4/BLE_1.c ****     *  
1076:Generated_Source\PSoC4/BLE_1.c ****     * \return
1077:Generated_Source\PSoC4/BLE_1.c ****     *  CYBLE_API_RESULT_T : Return value indicates if the function succeeded or 
1078:Generated_Source\PSoC4/BLE_1.c ****     *  failed. Following are the possible error codes.
1079:Generated_Source\PSoC4/BLE_1.c ****     *
1080:Generated_Source\PSoC4/BLE_1.c ****     *   Errors codes                       | Description
1081:Generated_Source\PSoC4/BLE_1.c ****     *   ------------                       | -----------
1082:Generated_Source\PSoC4/BLE_1.c ****     *   CYBLE_ERROR_OK                     | On successful operation.
1083:Generated_Source\PSoC4/BLE_1.c ****     *   CYBLE_ERROR_STACK_INTERNAL         | On error occurred in the BLE stack.
1084:Generated_Source\PSoC4/BLE_1.c ****     *   CYBLE_ERROR_INVALID_PARAMETER      | On passing an invalid parameter.
1085:Generated_Source\PSoC4/BLE_1.c ****     *   CYBLE_ERROR_INVALID_STATE          | On calling this API not in Disconnected state.
1086:Generated_Source\PSoC4/BLE_1.c ****     *  
1087:Generated_Source\PSoC4/BLE_1.c ****     ******************************************************************************/
1088:Generated_Source\PSoC4/BLE_1.c ****     CYBLE_API_RESULT_T CyBle_GapcConnectDevice(const CYBLE_GAP_BD_ADDR_T * address)
1089:Generated_Source\PSoC4/BLE_1.c ****     {
1090:Generated_Source\PSoC4/BLE_1.c ****         CYBLE_API_RESULT_T apiResult;
1091:Generated_Source\PSoC4/BLE_1.c ****         uint8 i;
1092:Generated_Source\PSoC4/BLE_1.c **** 
1093:Generated_Source\PSoC4/BLE_1.c ****         if(CyBle_GetState() != CYBLE_STATE_DISCONNECTED)
1094:Generated_Source\PSoC4/BLE_1.c ****         {
1095:Generated_Source\PSoC4/BLE_1.c ****             apiResult = CYBLE_ERROR_INVALID_STATE;
1096:Generated_Source\PSoC4/BLE_1.c ****         }
1097:Generated_Source\PSoC4/BLE_1.c ****         else if(address == NULL)
1098:Generated_Source\PSoC4/BLE_1.c ****         {
1099:Generated_Source\PSoC4/BLE_1.c ****             apiResult = CYBLE_ERROR_INVALID_PARAMETER;
1100:Generated_Source\PSoC4/BLE_1.c ****         }
1101:Generated_Source\PSoC4/BLE_1.c ****         else
1102:Generated_Source\PSoC4/BLE_1.c ****         {
1103:Generated_Source\PSoC4/BLE_1.c ****             for(i = 0u; i < CYBLE_GAP_BD_ADDR_SIZE; i++)
1104:Generated_Source\PSoC4/BLE_1.c ****             {
1105:Generated_Source\PSoC4/BLE_1.c ****                 cyBle_connectionParameters.peerBdAddr[i] = address->bdAddr[i];
1106:Generated_Source\PSoC4/BLE_1.c ****             }
1107:Generated_Source\PSoC4/BLE_1.c ****             cyBle_connectionParameters.peerAddrType = address -> type;
1108:Generated_Source\PSoC4/BLE_1.c ****             apiResult = CyBle_GapcInitConnection(&cyBle_connectionParameters);
1109:Generated_Source\PSoC4/BLE_1.c ****             
1110:Generated_Source\PSoC4/BLE_1.c ****             if(apiResult == CYBLE_ERROR_OK)
1111:Generated_Source\PSoC4/BLE_1.c ****             {
1112:Generated_Source\PSoC4/BLE_1.c ****                 CyBle_SetState(CYBLE_STATE_CONNECTING);
1113:Generated_Source\PSoC4/BLE_1.c ****                 if(cyBle_connectingTimeout != 0u)
1114:Generated_Source\PSoC4/BLE_1.c ****                 {
ARM GAS  C:\Users\Jacob\AppData\Local\Temp\ccFn1uj1.s 			page 21


1115:Generated_Source\PSoC4/BLE_1.c ****                     (void)CyBle_StartTimer(cyBle_connectingTimeout);
1116:Generated_Source\PSoC4/BLE_1.c ****                 }
1117:Generated_Source\PSoC4/BLE_1.c ****             }
1118:Generated_Source\PSoC4/BLE_1.c ****         }
1119:Generated_Source\PSoC4/BLE_1.c ****         return (apiResult);
1120:Generated_Source\PSoC4/BLE_1.c ****     }
1121:Generated_Source\PSoC4/BLE_1.c ****     
1122:Generated_Source\PSoC4/BLE_1.c **** 
1123:Generated_Source\PSoC4/BLE_1.c ****     /******************************************************************************
1124:Generated_Source\PSoC4/BLE_1.c ****     * Function Name: CyBle_GapcCancelDeviceConnection
1125:Generated_Source\PSoC4/BLE_1.c ****     ***************************************************************************//**
1126:Generated_Source\PSoC4/BLE_1.c ****     * 
1127:Generated_Source\PSoC4/BLE_1.c ****     *  This function cancels a previously initiated connection with the remote 
1128:Generated_Source\PSoC4/BLE_1.c ****     *  device. It is a blocking function. No event is generated on calling this 
1129:Generated_Source\PSoC4/BLE_1.c ****     *  function. If the devices are already connected then this function should not
1130:Generated_Source\PSoC4/BLE_1.c ****     *  be used. If you intend to disconnect from an existing connection, the function
1131:Generated_Source\PSoC4/BLE_1.c ****     *  CyBle_GapDisconnect() should be used.
1132:Generated_Source\PSoC4/BLE_1.c ****     * 
1133:Generated_Source\PSoC4/BLE_1.c ****     * \return
1134:Generated_Source\PSoC4/BLE_1.c ****     *  CYBLE_API_RESULT_T : Return value indicates if the function succeeded or 
1135:Generated_Source\PSoC4/BLE_1.c ****     *  failed. Following are the possible error codes.
1136:Generated_Source\PSoC4/BLE_1.c ****     *
1137:Generated_Source\PSoC4/BLE_1.c ****     *   Errors codes                       | Description
1138:Generated_Source\PSoC4/BLE_1.c ****     *   ---------------------------------- | --------------------------------------
1139:Generated_Source\PSoC4/BLE_1.c ****     *   CYBLE_ERROR_OK                     | On successful operation.
1140:Generated_Source\PSoC4/BLE_1.c ****     *   CYBLE_ERROR_STACK_INTERNAL         | An error occurred in the BLE stack.
1141:Generated_Source\PSoC4/BLE_1.c ****     *   CYBLE_ERROR_INVALID_STATE          | On calling this API not in Connecting state.
1142:Generated_Source\PSoC4/BLE_1.c ****     *  
1143:Generated_Source\PSoC4/BLE_1.c ****     *******************************************************************************/
1144:Generated_Source\PSoC4/BLE_1.c ****     CYBLE_API_RESULT_T CyBle_GapcCancelDeviceConnection(void)
1145:Generated_Source\PSoC4/BLE_1.c ****     {
1146:Generated_Source\PSoC4/BLE_1.c ****         CYBLE_API_RESULT_T apiResult;
1147:Generated_Source\PSoC4/BLE_1.c ****         
1148:Generated_Source\PSoC4/BLE_1.c ****         if(CyBle_GetState() != CYBLE_STATE_CONNECTING)
1149:Generated_Source\PSoC4/BLE_1.c ****         {
1150:Generated_Source\PSoC4/BLE_1.c ****             apiResult = CYBLE_ERROR_INVALID_STATE;
1151:Generated_Source\PSoC4/BLE_1.c ****         }
1152:Generated_Source\PSoC4/BLE_1.c ****         else 
1153:Generated_Source\PSoC4/BLE_1.c ****         {
1154:Generated_Source\PSoC4/BLE_1.c ****             apiResult = CyBle_GapcCancelConnection();
1155:Generated_Source\PSoC4/BLE_1.c ****             
1156:Generated_Source\PSoC4/BLE_1.c ****             if(cyBle_connectingTimeout != 0u)
1157:Generated_Source\PSoC4/BLE_1.c ****             {
1158:Generated_Source\PSoC4/BLE_1.c ****                 (void)CyBle_StopTimer();
1159:Generated_Source\PSoC4/BLE_1.c ****             }
1160:Generated_Source\PSoC4/BLE_1.c **** 
1161:Generated_Source\PSoC4/BLE_1.c ****             if(apiResult == CYBLE_ERROR_OK)
1162:Generated_Source\PSoC4/BLE_1.c ****             {
1163:Generated_Source\PSoC4/BLE_1.c ****                 CyBle_SetState(CYBLE_STATE_DISCONNECTED);
1164:Generated_Source\PSoC4/BLE_1.c ****             }
1165:Generated_Source\PSoC4/BLE_1.c ****         }
1166:Generated_Source\PSoC4/BLE_1.c ****         return (apiResult);
1167:Generated_Source\PSoC4/BLE_1.c ****     }    
1168:Generated_Source\PSoC4/BLE_1.c **** 
1169:Generated_Source\PSoC4/BLE_1.c ****     
1170:Generated_Source\PSoC4/BLE_1.c **** #endif /* CYBLE_GAP_ROLE_CENTRAL */
1171:Generated_Source\PSoC4/BLE_1.c **** 
ARM GAS  C:\Users\Jacob\AppData\Local\Temp\ccFn1uj1.s 			page 22


1172:Generated_Source\PSoC4/BLE_1.c **** 
1173:Generated_Source\PSoC4/BLE_1.c **** #if(CYBLE_GATT_ROLE_SERVER)
1174:Generated_Source\PSoC4/BLE_1.c **** 
1175:Generated_Source\PSoC4/BLE_1.c **** #if(CYBLE_GAP_ROLE_PERIPHERAL)
1176:Generated_Source\PSoC4/BLE_1.c **** 
1177:Generated_Source\PSoC4/BLE_1.c ****         /******************************************************************************
1178:Generated_Source\PSoC4/BLE_1.c ****         * Function Name: CyBle_ChangeAdLocalName
1179:Generated_Source\PSoC4/BLE_1.c ****         ***************************************************************************//**
1180:Generated_Source\PSoC4/BLE_1.c ****         *  This API is used to set the local device name in the advertisement or scan 
1181:Generated_Source\PSoC4/BLE_1.c ****         *  response data structure.
1182:Generated_Source\PSoC4/BLE_1.c ****         * 
1183:Generated_Source\PSoC4/BLE_1.c ****         *  \param name: The local device name string to be set in advertisement data 
1184:Generated_Source\PSoC4/BLE_1.c ****         *            structure.
1185:Generated_Source\PSoC4/BLE_1.c ****         *  \param dest: 0 - advertisement structure, not zero value selects scan response
1186:Generated_Source\PSoC4/BLE_1.c ****         *              structure.
1187:Generated_Source\PSoC4/BLE_1.c ****         * 
1188:Generated_Source\PSoC4/BLE_1.c ****         * \return
1189:Generated_Source\PSoC4/BLE_1.c ****         *  None
1190:Generated_Source\PSoC4/BLE_1.c ****         *  
1191:Generated_Source\PSoC4/BLE_1.c ****         *******************************************************************************/
1192:Generated_Source\PSoC4/BLE_1.c ****         static void CyBle_ChangeAdLocalName(const char8 name[], uint8 dest)
1193:Generated_Source\PSoC4/BLE_1.c ****         {
  27              		.loc 1 1193 0
  28              		.cfi_startproc
  29              		@ args = 0, pretend = 0, frame = 0
  30              		@ frame_needed = 0, uses_anonymous_args = 0
  31              	.LVL0:
  32 0000 70B5     		push	{r4, r5, r6, lr}
  33              		.cfi_def_cfa_offset 16
  34              		.cfi_offset 4, -16
  35              		.cfi_offset 5, -12
  36              		.cfi_offset 6, -8
  37              		.cfi_offset 14, -4
  38              	.LVL1:
1194:Generated_Source\PSoC4/BLE_1.c ****             uint8 i;
1195:Generated_Source\PSoC4/BLE_1.c ****             uint8 flag = 0u;
1196:Generated_Source\PSoC4/BLE_1.c ****             uint8 adLength = 0u;
1197:Generated_Source\PSoC4/BLE_1.c ****             uint8 byteCounter = 0u;
1198:Generated_Source\PSoC4/BLE_1.c ****             uint8 *destBuffer;
1199:Generated_Source\PSoC4/BLE_1.c ****             uint8 maxLength;
1200:Generated_Source\PSoC4/BLE_1.c ****             
1201:Generated_Source\PSoC4/BLE_1.c ****             if(dest == 0u)      /* Destination - advertising structure */
  39              		.loc 1 1201 0
  40 0002 0029     		cmp	r1, #0
  41 0004 05D1     		bne	.L2
  42              	.LVL2:
1202:Generated_Source\PSoC4/BLE_1.c ****             {
1203:Generated_Source\PSoC4/BLE_1.c ****                 destBuffer = cyBle_discoveryData.advData;
1204:Generated_Source\PSoC4/BLE_1.c ****                 maxLength = cyBle_discoveryData.advDataLen;
  43              		.loc 1 1204 0
  44 0006 1B49     		ldr	r1, .L14
  45              	.LVL3:
  46 0008 CE7F     		ldrb	r6, [r1, #31]
  47              	.LVL4:
  48              	.L4:
1205:Generated_Source\PSoC4/BLE_1.c ****             }
1206:Generated_Source\PSoC4/BLE_1.c ****             else                /* Destination - scan response structure */
ARM GAS  C:\Users\Jacob\AppData\Local\Temp\ccFn1uj1.s 			page 23


1207:Generated_Source\PSoC4/BLE_1.c ****             {
1208:Generated_Source\PSoC4/BLE_1.c ****                 destBuffer = cyBle_scanRspData.scanRspData;
1209:Generated_Source\PSoC4/BLE_1.c ****                 maxLength = cyBle_scanRspData.scanRspDataLen;
1210:Generated_Source\PSoC4/BLE_1.c ****             }
1211:Generated_Source\PSoC4/BLE_1.c ****             
1212:Generated_Source\PSoC4/BLE_1.c ****             while((byteCounter < maxLength) && (flag == 0u))
1213:Generated_Source\PSoC4/BLE_1.c ****             {
1214:Generated_Source\PSoC4/BLE_1.c ****                 adLength = destBuffer[byteCounter];
1215:Generated_Source\PSoC4/BLE_1.c ****                 
1216:Generated_Source\PSoC4/BLE_1.c ****                 if(0u != adLength)
1217:Generated_Source\PSoC4/BLE_1.c ****                 {
1218:Generated_Source\PSoC4/BLE_1.c ****                     /* Increment byte counter so it can point to AD type */
1219:Generated_Source\PSoC4/BLE_1.c ****                     byteCounter++;
1220:Generated_Source\PSoC4/BLE_1.c ****                     
1221:Generated_Source\PSoC4/BLE_1.c ****                     if((destBuffer[byteCounter] == CYBLE_SHORT_LOCAL_NAME) || 
1222:Generated_Source\PSoC4/BLE_1.c ****                        (destBuffer[byteCounter] == CYBLE_COMPLETE_LOCAL_NAME))
1223:Generated_Source\PSoC4/BLE_1.c ****                     {
1224:Generated_Source\PSoC4/BLE_1.c ****                         /* Start of the Local Name AD type was fount. Set flag and exit the loop. *
1225:Generated_Source\PSoC4/BLE_1.c ****                         flag = 1u;
  49              		.loc 1 1225 0
  50 000a 0023     		movs	r3, #0
  51 000c 0024     		movs	r4, #0
  52 000e 0025     		movs	r5, #0
  53 0010 11E0     		b	.L3
  54              	.LVL5:
  55              	.L2:
1209:Generated_Source\PSoC4/BLE_1.c ****             }
  56              		.loc 1 1209 0
  57 0012 1849     		ldr	r1, .L14
  58              	.LVL6:
  59 0014 2031     		adds	r1, r1, #32
  60 0016 CE7F     		ldrb	r6, [r1, #31]
  61              	.LVL7:
  62 0018 F7E7     		b	.L4
  63              	.LVL8:
  64              	.L7:
1214:Generated_Source\PSoC4/BLE_1.c ****                 
  65              		.loc 1 1214 0
  66 001a CC5C     		ldrb	r4, [r1, r3]
  67              	.LVL9:
1216:Generated_Source\PSoC4/BLE_1.c ****                 {
  68              		.loc 1 1216 0
  69 001c 002C     		cmp	r4, #0
  70 001e 0ED0     		beq	.L5
1219:Generated_Source\PSoC4/BLE_1.c ****                     
  71              		.loc 1 1219 0
  72 0020 0133     		adds	r3, r3, #1
  73              	.LVL10:
  74 0022 DBB2     		uxtb	r3, r3
  75              	.LVL11:
1221:Generated_Source\PSoC4/BLE_1.c ****                        (destBuffer[byteCounter] == CYBLE_COMPLETE_LOCAL_NAME))
  76              		.loc 1 1221 0
  77 0024 CA5C     		ldrb	r2, [r1, r3]
  78 0026 083A     		subs	r2, r2, #8
  79 0028 D2B2     		uxtb	r2, r2
  80 002a 012A     		cmp	r2, #1
  81 002c 02D9     		bls	.L13
ARM GAS  C:\Users\Jacob\AppData\Local\Temp\ccFn1uj1.s 			page 24


1226:Generated_Source\PSoC4/BLE_1.c ****                     }
1227:Generated_Source\PSoC4/BLE_1.c ****                     else
1228:Generated_Source\PSoC4/BLE_1.c ****                     {
1229:Generated_Source\PSoC4/BLE_1.c ****                         byteCounter += adLength;
  82              		.loc 1 1229 0
  83 002e E318     		adds	r3, r4, r3
  84              	.LVL12:
  85 0030 DBB2     		uxtb	r3, r3
  86              	.LVL13:
  87 0032 00E0     		b	.L3
  88              	.L13:
1225:Generated_Source\PSoC4/BLE_1.c ****                     }
  89              		.loc 1 1225 0
  90 0034 0125     		movs	r5, #1
  91              	.LVL14:
  92              	.L3:
1212:Generated_Source\PSoC4/BLE_1.c ****             {
  93              		.loc 1 1212 0
  94 0036 B342     		cmp	r3, r6
  95 0038 01D2     		bcs	.L5
1212:Generated_Source\PSoC4/BLE_1.c ****             {
  96              		.loc 1 1212 0 is_stmt 0 discriminator 1
  97 003a 002D     		cmp	r5, #0
  98 003c EDD0     		beq	.L7
  99              	.L5:
1230:Generated_Source\PSoC4/BLE_1.c ****                     }
1231:Generated_Source\PSoC4/BLE_1.c ****                 }
1232:Generated_Source\PSoC4/BLE_1.c ****                 else
1233:Generated_Source\PSoC4/BLE_1.c ****                 {
1234:Generated_Source\PSoC4/BLE_1.c ****                     /* The end of advertisement data structure was encountered though exit the loop
1235:Generated_Source\PSoC4/BLE_1.c ****                     break;
1236:Generated_Source\PSoC4/BLE_1.c ****                 }
1237:Generated_Source\PSoC4/BLE_1.c ****             }
1238:Generated_Source\PSoC4/BLE_1.c ****             
1239:Generated_Source\PSoC4/BLE_1.c ****             if(0u != flag)
 100              		.loc 1 1239 0 is_stmt 1
 101 003e 002D     		cmp	r5, #0
 102 0040 16D0     		beq	.L1
1240:Generated_Source\PSoC4/BLE_1.c ****             {
1241:Generated_Source\PSoC4/BLE_1.c ****                 /* Reuse "adLength" to hold location of the last character of local name in 
1242:Generated_Source\PSoC4/BLE_1.c ****                    AD structure. */
1243:Generated_Source\PSoC4/BLE_1.c ****                 adLength += byteCounter;
 103              		.loc 1 1243 0
 104 0042 E418     		adds	r4, r4, r3
 105              	.LVL15:
 106 0044 E4B2     		uxtb	r4, r4
 107              	.LVL16:
1244:Generated_Source\PSoC4/BLE_1.c ****                 
1245:Generated_Source\PSoC4/BLE_1.c ****                 /* Increment byte counter to point to start of the local Name string */
1246:Generated_Source\PSoC4/BLE_1.c ****                 byteCounter++;
 108              		.loc 1 1246 0
 109 0046 0133     		adds	r3, r3, #1
 110              	.LVL17:
 111 0048 DBB2     		uxtb	r3, r3
 112              	.LVL18:
1247:Generated_Source\PSoC4/BLE_1.c ****                 
1248:Generated_Source\PSoC4/BLE_1.c ****                 for(i = byteCounter; ((i < (adLength)) && (CYBLE_NULL_CHARCTER != name[i - byteCoun
ARM GAS  C:\Users\Jacob\AppData\Local\Temp\ccFn1uj1.s 			page 25


 113              		.loc 1 1248 0
 114 004a 1A00     		movs	r2, r3
 115 004c 02E0     		b	.L9
 116              	.LVL19:
 117              	.L11:
1249:Generated_Source\PSoC4/BLE_1.c ****                 {
1250:Generated_Source\PSoC4/BLE_1.c ****                     destBuffer[i] = (uint8)name[i - byteCounter];
 118              		.loc 1 1250 0 discriminator 4
 119 004e 8D54     		strb	r5, [r1, r2]
1248:Generated_Source\PSoC4/BLE_1.c ****                 {
 120              		.loc 1 1248 0 discriminator 4
 121 0050 0132     		adds	r2, r2, #1
 122              	.LVL20:
 123 0052 D2B2     		uxtb	r2, r2
 124              	.LVL21:
 125              	.L9:
1248:Generated_Source\PSoC4/BLE_1.c ****                 {
 126              		.loc 1 1248 0 is_stmt 0 discriminator 1
 127 0054 A242     		cmp	r2, r4
 128 0056 09D2     		bcs	.L10
1248:Generated_Source\PSoC4/BLE_1.c ****                 {
 129              		.loc 1 1248 0 discriminator 3
 130 0058 D51A     		subs	r5, r2, r3
 131 005a 455D     		ldrb	r5, [r0, r5]
 132 005c 002D     		cmp	r5, #0
 133 005e F6D1     		bne	.L11
 134 0060 04E0     		b	.L10
 135              	.LVL22:
 136              	.L12:
1251:Generated_Source\PSoC4/BLE_1.c ****                 }
1252:Generated_Source\PSoC4/BLE_1.c ****                 
1253:Generated_Source\PSoC4/BLE_1.c ****                 /* This loop handles the case when new local name is shorted than old one.
1254:Generated_Source\PSoC4/BLE_1.c ****                    In this case all remaining characters should be null characters. */
1255:Generated_Source\PSoC4/BLE_1.c ****                 while(adLength > i)
1256:Generated_Source\PSoC4/BLE_1.c ****                 {
1257:Generated_Source\PSoC4/BLE_1.c ****                     /* Terminate string */
1258:Generated_Source\PSoC4/BLE_1.c ****                     destBuffer[i] = (uint8)CYBLE_NULL_CHARCTER;
 137              		.loc 1 1258 0 is_stmt 1
 138 0062 8B18     		adds	r3, r1, r2
 139 0064 0020     		movs	r0, #0
 140 0066 1870     		strb	r0, [r3]
1259:Generated_Source\PSoC4/BLE_1.c ****                     i++;
 141              		.loc 1 1259 0
 142 0068 0132     		adds	r2, r2, #1
 143              	.LVL23:
 144 006a D2B2     		uxtb	r2, r2
 145              	.LVL24:
 146              	.L10:
1255:Generated_Source\PSoC4/BLE_1.c ****                 {
 147              		.loc 1 1255 0
 148 006c A242     		cmp	r2, r4
 149 006e F8D3     		bcc	.L12
 150              	.LVL25:
 151              	.L1:
1260:Generated_Source\PSoC4/BLE_1.c ****                 }
1261:Generated_Source\PSoC4/BLE_1.c ****             }
1262:Generated_Source\PSoC4/BLE_1.c ****         }
ARM GAS  C:\Users\Jacob\AppData\Local\Temp\ccFn1uj1.s 			page 26


 152              		.loc 1 1262 0
 153              		@ sp needed
 154              	.LVL26:
 155              	.LVL27:
 156 0070 70BD     		pop	{r4, r5, r6, pc}
 157              	.L15:
 158 0072 C046     		.align	2
 159              	.L14:
 160 0074 00000000 		.word	.LANCHOR0
 161              		.cfi_endproc
 162              	.LFE9:
 163              		.size	CyBle_ChangeAdLocalName, .-CyBle_ChangeAdLocalName
 164              		.section	.text.CyBle_ServiceInit,"ax",%progbits
 165              		.align	2
 166              		.global	CyBle_ServiceInit
 167              		.code	16
 168              		.thumb_func
 169              		.type	CyBle_ServiceInit, %function
 170              	CyBle_ServiceInit:
 171              	.LFB3:
 202:Generated_Source\PSoC4/BLE_1.c ****     #if(CYBLE_GATT_ROLE_CLIENT)
 172              		.loc 1 202 0
 173              		.cfi_startproc
 174              		@ args = 0, pretend = 0, frame = 0
 175              		@ frame_needed = 0, uses_anonymous_args = 0
 176 0000 10B5     		push	{r4, lr}
 177              		.cfi_def_cfa_offset 8
 178              		.cfi_offset 4, -8
 179              		.cfi_offset 14, -4
 264:Generated_Source\PSoC4/BLE_1.c ****     #endif /* CYBLE_DIS */
 180              		.loc 1 264 0
 181 0002 FFF7FEFF 		bl	CyBle_DisInit
 182              	.LVL28:
 284:Generated_Source\PSoC4/BLE_1.c ****     #endif /* CYBLE_HRS */
 183              		.loc 1 284 0
 184 0006 FFF7FEFF 		bl	CyBle_HrsInit
 185              	.LVL29:
 346:Generated_Source\PSoC4/BLE_1.c **** 
 186              		.loc 1 346 0
 187              		@ sp needed
 188 000a 10BD     		pop	{r4, pc}
 189              		.cfi_endproc
 190              	.LFE3:
 191              		.size	CyBle_ServiceInit, .-CyBle_ServiceInit
 192              		.section	.text.CyBle_Init,"ax",%progbits
 193              		.align	2
 194              		.global	CyBle_Init
 195              		.code	16
 196              		.thumb_func
 197              		.type	CyBle_Init, %function
 198              	CyBle_Init:
 199              	.LFB2:
 153:Generated_Source\PSoC4/BLE_1.c ****     cyBle_eventHandlerFlag = 0u;
 200              		.loc 1 153 0
 201              		.cfi_startproc
 202              		@ args = 0, pretend = 0, frame = 0
 203              		@ frame_needed = 0, uses_anonymous_args = 0
ARM GAS  C:\Users\Jacob\AppData\Local\Temp\ccFn1uj1.s 			page 27


 204 0000 10B5     		push	{r4, lr}
 205              		.cfi_def_cfa_offset 8
 206              		.cfi_offset 4, -8
 207              		.cfi_offset 14, -4
 154:Generated_Source\PSoC4/BLE_1.c ****     cyBle_busyStatus = CYBLE_STACK_STATE_FREE;
 208              		.loc 1 154 0
 209 0002 0023     		movs	r3, #0
 210 0004 044A     		ldr	r2, .L18
 211 0006 1370     		strb	r3, [r2]
 155:Generated_Source\PSoC4/BLE_1.c **** 
 212              		.loc 1 155 0
 213 0008 044A     		ldr	r2, .L18+4
 214 000a 1370     		strb	r3, [r2]
 158:Generated_Source\PSoC4/BLE_1.c ****     #endif /* (CYBLE_GAP_ROLE_PERIPHERAL || CYBLE_GAP_ROLE_BROADCASTER)  */
 215              		.loc 1 158 0
 216 000c 044A     		ldr	r2, .L18+8
 217 000e 1370     		strb	r3, [r2]
 181:Generated_Source\PSoC4/BLE_1.c **** 
 218              		.loc 1 181 0
 219 0010 FFF7FEFF 		bl	CyBle_ServiceInit
 220              	.LVL30:
 188:Generated_Source\PSoC4/BLE_1.c **** 
 221              		.loc 1 188 0
 222              		@ sp needed
 223 0014 10BD     		pop	{r4, pc}
 224              	.L19:
 225 0016 C046     		.align	2
 226              	.L18:
 227 0018 00000000 		.word	cyBle_eventHandlerFlag
 228 001c 00000000 		.word	cyBle_busyStatus
 229 0020 00000000 		.word	cyBle_advertisingIntervalType
 230              		.cfi_endproc
 231              	.LFE2:
 232              		.size	CyBle_Init, .-CyBle_Init
 233              		.section	.text.CyBle_Start,"ax",%progbits
 234              		.align	2
 235              		.global	CyBle_Start
 236              		.code	16
 237              		.thumb_func
 238              		.type	CyBle_Start, %function
 239              	CyBle_Start:
 240              	.LFB4:
 408:Generated_Source\PSoC4/BLE_1.c ****     CYBLE_API_RESULT_T apiResult = CYBLE_ERROR_OK;
 241              		.loc 1 408 0
 242              		.cfi_startproc
 243              		@ args = 0, pretend = 0, frame = 48
 244              		@ frame_needed = 0, uses_anonymous_args = 0
 245              	.LVL31:
 246 0000 10B5     		push	{r4, lr}
 247              		.cfi_def_cfa_offset 8
 248              		.cfi_offset 4, -8
 249              		.cfi_offset 14, -4
 250 0002 90B0     		sub	sp, sp, #64
 251              		.cfi_def_cfa_offset 72
 252 0004 0400     		movs	r4, r0
 253              	.LVL32:
 413:Generated_Source\PSoC4/BLE_1.c ****     {
ARM GAS  C:\Users\Jacob\AppData\Local\Temp\ccFn1uj1.s 			page 28


 254              		.loc 1 413 0
 255 0006 1422     		movs	r2, #20
 256 0008 1F49     		ldr	r1, .L24
 257 000a 0BA8     		add	r0, sp, #44
 258              	.LVL33:
 259 000c FFF7FEFF 		bl	memcpy
 260              	.LVL34:
 425:Generated_Source\PSoC4/BLE_1.c ****     {
 261              		.loc 1 425 0
 262 0010 1E4B     		ldr	r3, .L24+4
 263 0012 1B78     		ldrb	r3, [r3]
 264 0014 002B     		cmp	r3, #0
 265 0016 04D1     		bne	.L21
 427:Generated_Source\PSoC4/BLE_1.c ****         cyBle_initVar = 1u;
 266              		.loc 1 427 0
 267 0018 FFF7FEFF 		bl	CyBle_Init
 268              	.LVL35:
 428:Generated_Source\PSoC4/BLE_1.c ****     }
 269              		.loc 1 428 0
 270 001c 0122     		movs	r2, #1
 271 001e 1B4B     		ldr	r3, .L24+4
 272 0020 1A70     		strb	r2, [r3]
 273              	.L21:
 431:Generated_Source\PSoC4/BLE_1.c ****     {
 274              		.loc 1 431 0
 275 0022 002C     		cmp	r4, #0
 276 0024 2CD0     		beq	.L23
 433:Generated_Source\PSoC4/BLE_1.c ****         
 277              		.loc 1 433 0
 278 0026 1A4B     		ldr	r3, .L24+8
 279 0028 1C60     		str	r4, [r3]
 280              	.LBB2:
 452:Generated_Source\PSoC4/BLE_1.c ****             stackConfig.dleConfig = &dleConfigParams;
 281              		.loc 1 452 0
 282 002a 08A8     		add	r0, sp, #32
 283 002c 05AA     		add	r2, sp, #20
 284 002e 4260     		str	r2, [r0, #4]
 453:Generated_Source\PSoC4/BLE_1.c ****             
 285              		.loc 1 453 0
 286 0030 06AB     		add	r3, sp, #24
 287 0032 0893     		str	r3, [sp, #32]
 456:Generated_Source\PSoC4/BLE_1.c ****                                        CYBLE_SECURE_CONN_FEATURE;
 288              		.loc 1 456 0
 289 0034 0021     		movs	r1, #0
 290 0036 0181     		strh	r1, [r0, #8]
 460:Generated_Source\PSoC4/BLE_1.c ****             dleConfigParams.dleMaxRxCapability = CYBLE_LL_MAX_RX_PAYLOAD_SIZE;
 291              		.loc 1 460 0
 292 0038 1B31     		adds	r1, r1, #27
 293 003a 1980     		strh	r1, [r3]
 461:Generated_Source\PSoC4/BLE_1.c ****             dleConfigParams.dleNumTxBuffer = CYBLE_LL_DEFAULT_NUM_ACL_TX_PACKETS;
 294              		.loc 1 461 0
 295 003c 5980     		strh	r1, [r3, #2]
 462:Generated_Source\PSoC4/BLE_1.c ****         #if(CYBLE_DLE_FEATURE_ENABLED)
 296              		.loc 1 462 0
 297 003e 1739     		subs	r1, r1, #23
 298 0040 1971     		strb	r1, [r3, #4]
 468:Generated_Source\PSoC4/BLE_1.c ****         #if(CYBLE_LL_PRIVACY_FEATURE_ENABLED)
ARM GAS  C:\Users\Jacob\AppData\Local\Temp\ccFn1uj1.s 			page 29


 299              		.loc 1 468 0
 300 0042 0823     		movs	r3, #8
 301 0044 1370     		strb	r3, [r2]
 473:Generated_Source\PSoC4/BLE_1.c ****             }
 302              		.loc 1 473 0
 303 0046 1231     		adds	r1, r1, #18
 304 0048 6944     		add	r1, r1, sp
 305 004a FFF7FEFF 		bl	CyBle_StackSetFeatureConfig
 306              	.LVL36:
 307              	.LBE2:
 476:Generated_Source\PSoC4/BLE_1.c ****         {
 308              		.loc 1 476 0
 309 004e 0028     		cmp	r0, #0
 310 0050 17D1     		bne	.L22
 485:Generated_Source\PSoC4/BLE_1.c ****                     CYBLE_STACK_RAM_SIZE - CYBLE_GATT_PREPARE_WRITE_BUFF_LEN, cyBle_stackDataBuff, 
 311              		.loc 1 485 0
 312 0052 0023     		movs	r3, #0
 313 0054 0293     		str	r3, [sp, #8]
 314 0056 0193     		str	r3, [sp, #4]
 315 0058 0533     		adds	r3, r3, #5
 316 005a 0093     		str	r3, [sp]
 317 005c 0BAB     		add	r3, sp, #44
 318 005e AE22     		movs	r2, #174
 319 0060 1201     		lsls	r2, r2, #4
 320 0062 0C49     		ldr	r1, .L24+12
 321 0064 0C48     		ldr	r0, .L24+16
 322              	.LVL37:
 323 0066 FFF7FEFF 		bl	CyBle_StackInit
 324              	.LVL38:
 505:Generated_Source\PSoC4/BLE_1.c ****             {
 325              		.loc 1 505 0
 326 006a 0028     		cmp	r0, #0
 327 006c 09D1     		bne	.L22
 507:Generated_Source\PSoC4/BLE_1.c ****                 
 328              		.loc 1 507 0
 329 006e 0122     		movs	r2, #1
 330 0070 0A4B     		ldr	r3, .L24+20
 331 0072 1A70     		strb	r2, [r3]
 514:Generated_Source\PSoC4/BLE_1.c ****             #endif /* CYBLE_GATT_ROLE_SERVER */
 332              		.loc 1 514 0
 333 0074 0732     		adds	r2, r2, #7
 334 0076 2A21     		movs	r1, #42
 335 0078 0948     		ldr	r0, .L24+24
 336              	.LVL39:
 337 007a FFF7FEFF 		bl	CyBle_GattsDbRegister
 338              	.LVL40:
 339 007e 00E0     		b	.L22
 340              	.LVL41:
 341              	.L23:
 521:Generated_Source\PSoC4/BLE_1.c ****     }
 342              		.loc 1 521 0
 343 0080 0120     		movs	r0, #1
 344              	.LVL42:
 345              	.L22:
 525:Generated_Source\PSoC4/BLE_1.c **** 
 346              		.loc 1 525 0
 347 0082 10B0     		add	sp, sp, #64
ARM GAS  C:\Users\Jacob\AppData\Local\Temp\ccFn1uj1.s 			page 30


 348              		@ sp needed
 349              	.LVL43:
 350 0084 10BD     		pop	{r4, pc}
 351              	.L25:
 352 0086 C046     		.align	2
 353              	.L24:
 354 0088 00000000 		.word	.LANCHOR1
 355 008c 00000000 		.word	.LANCHOR2
 356 0090 00000000 		.word	CyBle_ApplCallback
 357 0094 00000000 		.word	.LANCHOR3
 358 0098 00000000 		.word	CyBle_EventHandler
 359 009c 00000000 		.word	cyBle_state
 360 00a0 00000000 		.word	cyBle_gattDB
 361              		.cfi_endproc
 362              	.LFE4:
 363              		.size	CyBle_Start, .-CyBle_Start
 364              		.section	.text.CyBle_Stop,"ax",%progbits
 365              		.align	2
 366              		.global	CyBle_Stop
 367              		.code	16
 368              		.thumb_func
 369              		.type	CyBle_Stop, %function
 370              	CyBle_Stop:
 371              	.LFB5:
 541:Generated_Source\PSoC4/BLE_1.c ****     CyBle_Shutdown();                         /* Stop all ongoing activities */
 372              		.loc 1 541 0
 373              		.cfi_startproc
 374              		@ args = 0, pretend = 0, frame = 0
 375              		@ frame_needed = 0, uses_anonymous_args = 0
 376 0000 10B5     		push	{r4, lr}
 377              		.cfi_def_cfa_offset 8
 378              		.cfi_offset 4, -8
 379              		.cfi_offset 14, -4
 542:Generated_Source\PSoC4/BLE_1.c ****     CyBle_SetState(CYBLE_STATE_STOPPED);
 380              		.loc 1 542 0
 381 0002 FFF7FEFF 		bl	CyBle_Shutdown
 382              	.LVL44:
 543:Generated_Source\PSoC4/BLE_1.c ****     #if(CYBLE_SHARING_MODE_EXPORT)
 383              		.loc 1 543 0
 384 0006 0022     		movs	r2, #0
 385 0008 014B     		ldr	r3, .L27
 386 000a 1A70     		strb	r2, [r3]
 550:Generated_Source\PSoC4/BLE_1.c **** 
 387              		.loc 1 550 0
 388              		@ sp needed
 389 000c 10BD     		pop	{r4, pc}
 390              	.L28:
 391 000e C046     		.align	2
 392              	.L27:
 393 0010 00000000 		.word	cyBle_state
 394              		.cfi_endproc
 395              	.LFE5:
 396              		.size	CyBle_Stop, .-CyBle_Stop
 397              		.section	.text.CyBle_GappStartAdvertisement,"ax",%progbits
 398              		.align	2
 399              		.global	CyBle_GappStartAdvertisement
 400              		.code	16
ARM GAS  C:\Users\Jacob\AppData\Local\Temp\ccFn1uj1.s 			page 31


 401              		.thumb_func
 402              		.type	CyBle_GappStartAdvertisement, %function
 403              	CyBle_GappStartAdvertisement:
 404              	.LFB6:
 791:Generated_Source\PSoC4/BLE_1.c ****         CYBLE_API_RESULT_T apiResult;
 405              		.loc 1 791 0
 406              		.cfi_startproc
 407              		@ args = 0, pretend = 0, frame = 0
 408              		@ frame_needed = 0, uses_anonymous_args = 0
 409              	.LVL45:
 410 0000 10B5     		push	{r4, lr}
 411              		.cfi_def_cfa_offset 8
 412              		.cfi_offset 4, -8
 413              		.cfi_offset 14, -4
 794:Generated_Source\PSoC4/BLE_1.c ****         {
 414              		.loc 1 794 0
 415 0002 0228     		cmp	r0, #2
 416 0004 33D8     		bhi	.L33
 798:Generated_Source\PSoC4/BLE_1.c ****         {   
 417              		.loc 1 798 0
 418 0006 1E4B     		ldr	r3, .L36
 419 0008 1B78     		ldrb	r3, [r3]
 420 000a 042B     		cmp	r3, #4
 421 000c 31D1     		bne	.L34
 798:Generated_Source\PSoC4/BLE_1.c ****         {   
 422              		.loc 1 798 0 is_stmt 0 discriminator 1
 423 000e 1D4B     		ldr	r3, .L36+4
 424 0010 1B78     		ldrb	r3, [r3]
 425 0012 5B07     		lsls	r3, r3, #29
 426 0014 30D4     		bmi	.L35
 800:Generated_Source\PSoC4/BLE_1.c ****             {
 427              		.loc 1 800 0 is_stmt 1
 428 0016 0028     		cmp	r0, #0
 429 0018 0BD1     		bne	.L31
 802:Generated_Source\PSoC4/BLE_1.c ****                 cyBle_discoveryModeInfo.advParam->advIntvMin = CYBLE_FAST_ADV_INT_MIN;
 430              		.loc 1 802 0
 431 001a 1B4B     		ldr	r3, .L36+8
 432 001c 1A00     		movs	r2, r3
 433 001e 4032     		adds	r2, r2, #64
 434 0020 1E21     		movs	r1, #30
 435 0022 1182     		strh	r1, [r2, #16]
 803:Generated_Source\PSoC4/BLE_1.c ****                 cyBle_discoveryModeInfo.advParam->advIntvMax = CYBLE_FAST_ADV_INT_MAX;
 436              		.loc 1 803 0
 437 0024 2022     		movs	r2, #32
 438 0026 596C     		ldr	r1, [r3, #68]
 439 0028 0A80     		strh	r2, [r1]
 804:Generated_Source\PSoC4/BLE_1.c ****             }
 440              		.loc 1 804 0
 441 002a 5B6C     		ldr	r3, [r3, #68]
 442 002c 1032     		adds	r2, r2, #16
 443 002e 5A80     		strh	r2, [r3, #2]
 444 0030 0EE0     		b	.L32
 445              	.L31:
 806:Generated_Source\PSoC4/BLE_1.c ****             {
 446              		.loc 1 806 0
 447 0032 0128     		cmp	r0, #1
 448 0034 0CD1     		bne	.L32
ARM GAS  C:\Users\Jacob\AppData\Local\Temp\ccFn1uj1.s 			page 32


 808:Generated_Source\PSoC4/BLE_1.c ****                 cyBle_discoveryModeInfo.advParam->advIntvMin = CYBLE_SLOW_ADV_INT_MIN;
 449              		.loc 1 808 0
 450 0036 144B     		ldr	r3, .L36+8
 451 0038 1A00     		movs	r2, r3
 452 003a 4032     		adds	r2, r2, #64
 453 003c 9621     		movs	r1, #150
 454 003e 1182     		strh	r1, [r2, #16]
 809:Generated_Source\PSoC4/BLE_1.c ****                 cyBle_discoveryModeInfo.advParam->advIntvMax = CYBLE_SLOW_ADV_INT_MAX;
 455              		.loc 1 809 0
 456 0040 C822     		movs	r2, #200
 457 0042 D200     		lsls	r2, r2, #3
 458 0044 596C     		ldr	r1, [r3, #68]
 459 0046 0A80     		strh	r2, [r1]
 810:Generated_Source\PSoC4/BLE_1.c ****             }       
 460              		.loc 1 810 0
 461 0048 5B6C     		ldr	r3, [r3, #68]
 462 004a 8022     		movs	r2, #128
 463 004c D201     		lsls	r2, r2, #7
 464 004e 5A80     		strh	r2, [r3, #2]
 465              	.L32:
 815:Generated_Source\PSoC4/BLE_1.c ****             apiResult = CyBle_GappEnterDiscoveryMode(&cyBle_discoveryModeInfo);
 466              		.loc 1 815 0
 467 0050 0E4B     		ldr	r3, .L36+12
 468 0052 1870     		strb	r0, [r3]
 816:Generated_Source\PSoC4/BLE_1.c ****         
 469              		.loc 1 816 0
 470 0054 0C48     		ldr	r0, .L36+8
 471              	.LVL46:
 472 0056 4030     		adds	r0, r0, #64
 473 0058 FFF7FEFF 		bl	CyBle_GappEnterDiscoveryMode
 474              	.LVL47:
 818:Generated_Source\PSoC4/BLE_1.c ****             {
 475              		.loc 1 818 0
 476 005c 0028     		cmp	r0, #0
 477 005e 0DD1     		bne	.L30
 820:Generated_Source\PSoC4/BLE_1.c ****             }
 478              		.loc 1 820 0
 479 0060 084A     		ldr	r2, .L36+4
 480 0062 1178     		ldrb	r1, [r2]
 481 0064 0423     		movs	r3, #4
 482 0066 0B43     		orrs	r3, r1
 483 0068 DBB2     		uxtb	r3, r3
 484 006a 1370     		strb	r3, [r2]
 485 006c 06E0     		b	.L30
 486              	.LVL48:
 487              	.L33:
 796:Generated_Source\PSoC4/BLE_1.c ****         }
 488              		.loc 1 796 0
 489 006e 0120     		movs	r0, #1
 490              	.LVL49:
 491 0070 04E0     		b	.L30
 492              	.LVL50:
 493              	.L34:
 825:Generated_Source\PSoC4/BLE_1.c ****         }
 494              		.loc 1 825 0
 495 0072 0420     		movs	r0, #4
 496              	.LVL51:
ARM GAS  C:\Users\Jacob\AppData\Local\Temp\ccFn1uj1.s 			page 33


 497 0074 FF30     		adds	r0, r0, #255
 498 0076 01E0     		b	.L30
 499              	.LVL52:
 500              	.L35:
 501 0078 0420     		movs	r0, #4
 502              	.LVL53:
 503 007a FF30     		adds	r0, r0, #255
 504              	.L30:
 505              	.LVL54:
 829:Generated_Source\PSoC4/BLE_1.c **** 
 506              		.loc 1 829 0
 507              		@ sp needed
 508 007c 10BD     		pop	{r4, pc}
 509              	.L37:
 510 007e C046     		.align	2
 511              	.L36:
 512 0080 00000000 		.word	cyBle_state
 513 0084 00000000 		.word	cyBle_eventHandlerFlag
 514 0088 00000000 		.word	.LANCHOR0
 515 008c 00000000 		.word	cyBle_advertisingIntervalType
 516              		.cfi_endproc
 517              	.LFE6:
 518              		.size	CyBle_GappStartAdvertisement, .-CyBle_GappStartAdvertisement
 519              		.section	.text.CyBle_GappStopAdvertisement,"ax",%progbits
 520              		.align	2
 521              		.global	CyBle_GappStopAdvertisement
 522              		.code	16
 523              		.thumb_func
 524              		.type	CyBle_GappStopAdvertisement, %function
 525              	CyBle_GappStopAdvertisement:
 526              	.LFB7:
 852:Generated_Source\PSoC4/BLE_1.c ****         CyBle_GappExitDiscoveryMode();
 527              		.loc 1 852 0
 528              		.cfi_startproc
 529              		@ args = 0, pretend = 0, frame = 0
 530              		@ frame_needed = 0, uses_anonymous_args = 0
 531 0000 10B5     		push	{r4, lr}
 532              		.cfi_def_cfa_offset 8
 533              		.cfi_offset 4, -8
 534              		.cfi_offset 14, -4
 853:Generated_Source\PSoC4/BLE_1.c ****         cyBle_eventHandlerFlag |= CYBLE_STOP_FLAG;
 535              		.loc 1 853 0
 536 0002 FFF7FEFF 		bl	CyBle_GappExitDiscoveryMode
 537              	.LVL55:
 854:Generated_Source\PSoC4/BLE_1.c ****     }
 538              		.loc 1 854 0
 539 0006 034A     		ldr	r2, .L39
 540 0008 1178     		ldrb	r1, [r2]
 541 000a 0823     		movs	r3, #8
 542 000c 0B43     		orrs	r3, r1
 543 000e DBB2     		uxtb	r3, r3
 544 0010 1370     		strb	r3, [r2]
 855:Generated_Source\PSoC4/BLE_1.c ****     
 545              		.loc 1 855 0
 546              		@ sp needed
 547 0012 10BD     		pop	{r4, pc}
 548              	.L40:
ARM GAS  C:\Users\Jacob\AppData\Local\Temp\ccFn1uj1.s 			page 34


 549              		.align	2
 550              	.L39:
 551 0014 00000000 		.word	cyBle_eventHandlerFlag
 552              		.cfi_endproc
 553              	.LFE7:
 554              		.size	CyBle_GappStopAdvertisement, .-CyBle_GappStopAdvertisement
 555              		.section	.text.CyBle_ChangeAdDeviceAddress,"ax",%progbits
 556              		.align	2
 557              		.global	CyBle_ChangeAdDeviceAddress
 558              		.code	16
 559              		.thumb_func
 560              		.type	CyBle_ChangeAdDeviceAddress, %function
 561              	CyBle_ChangeAdDeviceAddress:
 562              	.LFB8:
 874:Generated_Source\PSoC4/BLE_1.c ****         uint8 i;
 563              		.loc 1 874 0
 564              		.cfi_startproc
 565              		@ args = 0, pretend = 0, frame = 0
 566              		@ frame_needed = 0, uses_anonymous_args = 0
 567              		@ link register save eliminated.
 568              	.LVL56:
 901:Generated_Source\PSoC4/BLE_1.c ****   
 569              		.loc 1 901 0
 570              		@ sp needed
 571 0000 7047     		bx	lr
 572              		.cfi_endproc
 573              	.LFE8:
 574              		.size	CyBle_ChangeAdDeviceAddress, .-CyBle_ChangeAdDeviceAddress
 575 0002 C046     		.section	.text.CyBle_GapSetLocalName,"ax",%progbits
 576              		.align	2
 577              		.global	CyBle_GapSetLocalName
 578              		.code	16
 579              		.thumb_func
 580              		.type	CyBle_GapSetLocalName, %function
 581              	CyBle_GapSetLocalName:
 582              	.LFB10:
1263:Generated_Source\PSoC4/BLE_1.c ****         
1264:Generated_Source\PSoC4/BLE_1.c **** #endif /* (CYBLE_GAP_ROLE_PERIPHERAL) */  
1265:Generated_Source\PSoC4/BLE_1.c ****     
1266:Generated_Source\PSoC4/BLE_1.c ****     
1267:Generated_Source\PSoC4/BLE_1.c ****     /******************************************************************************
1268:Generated_Source\PSoC4/BLE_1.c ****     * Function Name: CyBle_GapSetLocalName
1269:Generated_Source\PSoC4/BLE_1.c ****     ***************************************************************************//**
1270:Generated_Source\PSoC4/BLE_1.c ****     *  This API is used to set the local device name - a Characteristic of the 
1271:Generated_Source\PSoC4/BLE_1.c ****     *  GAP Service. If the characteristic length entered in the component customizer
1272:Generated_Source\PSoC4/BLE_1.c ****     *  is shorter than the string specified by the "name" parameter, the local device
1273:Generated_Source\PSoC4/BLE_1.c ****     *  name will be cut to the length specified in the customizer.
1274:Generated_Source\PSoC4/BLE_1.c ****     * 
1275:Generated_Source\PSoC4/BLE_1.c ****     *  \param name: The local device name string. The name string to be written as
1276:Generated_Source\PSoC4/BLE_1.c ****     *              the local device name. It represents a UTF-8 encoded User
1277:Generated_Source\PSoC4/BLE_1.c ****     *              Friendly Descriptive Name for the device. The length of the local
1278:Generated_Source\PSoC4/BLE_1.c ****     *              device string is entered into the component customizer and it can
1279:Generated_Source\PSoC4/BLE_1.c ****     *              be set to a value from 0 to 248 bytes. If the name contained in
1280:Generated_Source\PSoC4/BLE_1.c ****     *              the parameter is shorter than the length from the customizer, the
1281:Generated_Source\PSoC4/BLE_1.c ****     *              end of the name is indicated by a NULL octet (0x00).
1282:Generated_Source\PSoC4/BLE_1.c ****     * 
1283:Generated_Source\PSoC4/BLE_1.c ****     * \return
ARM GAS  C:\Users\Jacob\AppData\Local\Temp\ccFn1uj1.s 			page 35


1284:Generated_Source\PSoC4/BLE_1.c ****     *  CYBLE_API_RESULT_T : Return value indicates if the function succeeded or 
1285:Generated_Source\PSoC4/BLE_1.c ****     *  failed. Following are the possible error codes.
1286:Generated_Source\PSoC4/BLE_1.c ****     *
1287:Generated_Source\PSoC4/BLE_1.c ****     *   Errors codes                       | Description
1288:Generated_Source\PSoC4/BLE_1.c ****     *   ------------                       | -----------
1289:Generated_Source\PSoC4/BLE_1.c ****     *   CYBLE_ERROR_OK                     | Function completed successfully.
1290:Generated_Source\PSoC4/BLE_1.c ****     *   CYBLE_ERROR_INVALID_PARAMETER      | On specifying NULL as input parameter
1291:Generated_Source\PSoC4/BLE_1.c ****     *  
1292:Generated_Source\PSoC4/BLE_1.c ****     *******************************************************************************/
1293:Generated_Source\PSoC4/BLE_1.c ****     CYBLE_API_RESULT_T CyBle_GapSetLocalName(const char8 name[])
1294:Generated_Source\PSoC4/BLE_1.c ****     {
 583              		.loc 1 1294 0
 584              		.cfi_startproc
 585              		@ args = 0, pretend = 0, frame = 0
 586              		@ frame_needed = 0, uses_anonymous_args = 0
 587              	.LVL57:
 588 0000 70B5     		push	{r4, r5, r6, lr}
 589              		.cfi_def_cfa_offset 16
 590              		.cfi_offset 4, -16
 591              		.cfi_offset 5, -12
 592              		.cfi_offset 6, -8
 593              		.cfi_offset 14, -4
 594 0002 041E     		subs	r4, r0, #0
 595              	.LVL58:
1295:Generated_Source\PSoC4/BLE_1.c ****         CYBLE_API_RESULT_T apiResult = CYBLE_ERROR_OK;
1296:Generated_Source\PSoC4/BLE_1.c ****         uint8 i;
1297:Generated_Source\PSoC4/BLE_1.c ****         char8 *ptr;
1298:Generated_Source\PSoC4/BLE_1.c ****         uint8 charLen;
1299:Generated_Source\PSoC4/BLE_1.c **** 
1300:Generated_Source\PSoC4/BLE_1.c ****         if(NULL != name)
 596              		.loc 1 1300 0
 597 0004 26D0     		beq	.L48
1301:Generated_Source\PSoC4/BLE_1.c ****         {
1302:Generated_Source\PSoC4/BLE_1.c ****             /* Get the pointer to the Device Name characteristic  */
1303:Generated_Source\PSoC4/BLE_1.c ****             ptr = (char8 *) CYBLE_GATT_DB_ATTR_GET_ATTR_GEN_PTR(cyBle_gaps.deviceNameCharHandle);
 598              		.loc 1 1303 0
 599 0006 144B     		ldr	r3, .L49
 600 0008 5B88     		ldrh	r3, [r3, #2]
 601 000a 013B     		subs	r3, r3, #1
 602 000c 134D     		ldr	r5, .L49+4
 603 000e 9A00     		lsls	r2, r3, #2
 604 0010 D018     		adds	r0, r2, r3
 605              	.LVL59:
 606 0012 8100     		lsls	r1, r0, #2
 607 0014 6918     		adds	r1, r5, r1
 608 0016 0969     		ldr	r1, [r1, #16]
 609 0018 4868     		ldr	r0, [r1, #4]
 610              	.LVL60:
1304:Generated_Source\PSoC4/BLE_1.c **** 
1305:Generated_Source\PSoC4/BLE_1.c ****             /* First need to get the maximum length of the characteristic data in the GATT
1306:Generated_Source\PSoC4/BLE_1.c ****                 database to make sure there is enough place for the data. The length
1307:Generated_Source\PSoC4/BLE_1.c ****                 can't be longer than 248, so only the LSB of 16 bit of length is to
1308:Generated_Source\PSoC4/BLE_1.c ****                 be used. */
1309:Generated_Source\PSoC4/BLE_1.c ****             charLen = (uint8)CYBLE_GATT_DB_ATTR_GET_ATTR_GEN_MAX_LEN(cyBle_gaps.deviceNameCharHandl
 611              		.loc 1 1309 0
 612 001a D318     		adds	r3, r2, r3
 613 001c 9A00     		lsls	r2, r3, #2
ARM GAS  C:\Users\Jacob\AppData\Local\Temp\ccFn1uj1.s 			page 36


 614 001e AA18     		adds	r2, r5, r2
 615 0020 117B     		ldrb	r1, [r2, #12]
 616              	.LVL61:
1310:Generated_Source\PSoC4/BLE_1.c **** 
1311:Generated_Source\PSoC4/BLE_1.c ****             /* Copy name into characteristic */
1312:Generated_Source\PSoC4/BLE_1.c ****             for(i = 0u; ((i < charLen) && (CYBLE_NULL_CHARCTER != name[i])); i++)
 617              		.loc 1 1312 0
 618 0022 0023     		movs	r3, #0
 619 0024 02E0     		b	.L44
 620              	.LVL62:
 621              	.L46:
1313:Generated_Source\PSoC4/BLE_1.c ****             {
1314:Generated_Source\PSoC4/BLE_1.c ****                 ptr[i] = name[i];
 622              		.loc 1 1314 0 discriminator 4
 623 0026 C254     		strb	r2, [r0, r3]
1312:Generated_Source\PSoC4/BLE_1.c ****             {
 624              		.loc 1 1312 0 discriminator 4
 625 0028 0133     		adds	r3, r3, #1
 626              	.LVL63:
 627 002a DBB2     		uxtb	r3, r3
 628              	.LVL64:
 629              	.L44:
1312:Generated_Source\PSoC4/BLE_1.c ****             {
 630              		.loc 1 1312 0 is_stmt 0 discriminator 1
 631 002c 8B42     		cmp	r3, r1
 632 002e 02D2     		bcs	.L45
1312:Generated_Source\PSoC4/BLE_1.c ****             {
 633              		.loc 1 1312 0 discriminator 3
 634 0030 E25C     		ldrb	r2, [r4, r3]
 635 0032 002A     		cmp	r2, #0
 636 0034 F7D1     		bne	.L46
 637              	.L45:
1315:Generated_Source\PSoC4/BLE_1.c ****             }
1316:Generated_Source\PSoC4/BLE_1.c **** 
1317:Generated_Source\PSoC4/BLE_1.c ****             if(i < charLen)
 638              		.loc 1 1317 0 is_stmt 1
 639 0036 8B42     		cmp	r3, r1
 640 0038 02D2     		bcs	.L47
1318:Generated_Source\PSoC4/BLE_1.c ****             {
1319:Generated_Source\PSoC4/BLE_1.c ****                 /* Terminate string */
1320:Generated_Source\PSoC4/BLE_1.c ****                 ptr[i] = CYBLE_NULL_CHARCTER;
 641              		.loc 1 1320 0
 642 003a C318     		adds	r3, r0, r3
 643              	.LVL65:
 644 003c 0022     		movs	r2, #0
 645 003e 1A70     		strb	r2, [r3]
 646              	.L47:
1321:Generated_Source\PSoC4/BLE_1.c ****             }
1322:Generated_Source\PSoC4/BLE_1.c ****             
1323:Generated_Source\PSoC4/BLE_1.c ****             /* Set new actual length */
1324:Generated_Source\PSoC4/BLE_1.c ****             
1325:Generated_Source\PSoC4/BLE_1.c ****             /* Update device name in advertising and scan response structure */
1326:Generated_Source\PSoC4/BLE_1.c ****             #if(CYBLE_GAP_ROLE_PERIPHERAL)
1327:Generated_Source\PSoC4/BLE_1.c ****                 CyBle_ChangeAdLocalName(name, 0u);
 647              		.loc 1 1327 0
 648 0040 0021     		movs	r1, #0
 649              	.LVL66:
ARM GAS  C:\Users\Jacob\AppData\Local\Temp\ccFn1uj1.s 			page 37


 650 0042 2000     		movs	r0, r4
 651              	.LVL67:
 652 0044 FFF7FEFF 		bl	CyBle_ChangeAdLocalName
 653              	.LVL68:
1328:Generated_Source\PSoC4/BLE_1.c ****                 CyBle_ChangeAdLocalName(name, 1u);
 654              		.loc 1 1328 0
 655 0048 0121     		movs	r1, #1
 656 004a 2000     		movs	r0, r4
 657 004c FFF7FEFF 		bl	CyBle_ChangeAdLocalName
 658              	.LVL69:
1295:Generated_Source\PSoC4/BLE_1.c ****         uint8 i;
 659              		.loc 1 1295 0
 660 0050 0020     		movs	r0, #0
 661 0052 00E0     		b	.L43
 662              	.LVL70:
 663              	.L48:
1329:Generated_Source\PSoC4/BLE_1.c ****             #endif /* (CYBLE_GAP_ROLE_PERIPHERAL) */
1330:Generated_Source\PSoC4/BLE_1.c ****         }
1331:Generated_Source\PSoC4/BLE_1.c ****         else
1332:Generated_Source\PSoC4/BLE_1.c ****         {
1333:Generated_Source\PSoC4/BLE_1.c ****             apiResult = CYBLE_ERROR_INVALID_PARAMETER;
 664              		.loc 1 1333 0
 665 0054 0120     		movs	r0, #1
 666              	.LVL71:
 667              	.L43:
1334:Generated_Source\PSoC4/BLE_1.c ****         }
1335:Generated_Source\PSoC4/BLE_1.c ****         
1336:Generated_Source\PSoC4/BLE_1.c ****         return(apiResult);
1337:Generated_Source\PSoC4/BLE_1.c ****     }
 668              		.loc 1 1337 0
 669              		@ sp needed
 670              	.LVL72:
 671 0056 70BD     		pop	{r4, r5, r6, pc}
 672              	.L50:
 673              		.align	2
 674              	.L49:
 675 0058 00000000 		.word	cyBle_gaps
 676 005c 00000000 		.word	cyBle_gattDB
 677              		.cfi_endproc
 678              	.LFE10:
 679              		.size	CyBle_GapSetLocalName, .-CyBle_GapSetLocalName
 680              		.section	.text.CyBle_GapGetLocalName,"ax",%progbits
 681              		.align	2
 682              		.global	CyBle_GapGetLocalName
 683              		.code	16
 684              		.thumb_func
 685              		.type	CyBle_GapGetLocalName, %function
 686              	CyBle_GapGetLocalName:
 687              	.LFB11:
1338:Generated_Source\PSoC4/BLE_1.c **** 
1339:Generated_Source\PSoC4/BLE_1.c **** 
1340:Generated_Source\PSoC4/BLE_1.c ****     /******************************************************************************
1341:Generated_Source\PSoC4/BLE_1.c ****     * Function Name: CyBle_GapGetLocalName
1342:Generated_Source\PSoC4/BLE_1.c ****     ***************************************************************************//**
1343:Generated_Source\PSoC4/BLE_1.c ****     *  
1344:Generated_Source\PSoC4/BLE_1.c ****     *  This API is used to read the local device name - a Characteristic of the 
1345:Generated_Source\PSoC4/BLE_1.c ****     *  GAP Service.
ARM GAS  C:\Users\Jacob\AppData\Local\Temp\ccFn1uj1.s 			page 38


1346:Generated_Source\PSoC4/BLE_1.c ****     * 
1347:Generated_Source\PSoC4/BLE_1.c ****     * \param name: The local device name string. Used to read the local name to the
1348:Generated_Source\PSoC4/BLE_1.c ****     *             given string array. It represents a UTF-8 encoded User Friendly 
1349:Generated_Source\PSoC4/BLE_1.c ****     *             Descriptive Name for the device. The length of the local device
1350:Generated_Source\PSoC4/BLE_1.c ****     *             string is entered into the component customizer and it can be set
1351:Generated_Source\PSoC4/BLE_1.c ****     *             to a value from 0 to 248 bytes. If the name contained in the
1352:Generated_Source\PSoC4/BLE_1.c ****     *             parameter is shorter than the length from the customizer, the end
1353:Generated_Source\PSoC4/BLE_1.c ****     *             of the name is indicated by a NULL octet (0x00).
1354:Generated_Source\PSoC4/BLE_1.c ****     * 
1355:Generated_Source\PSoC4/BLE_1.c ****     * \return
1356:Generated_Source\PSoC4/BLE_1.c ****     *  CYBLE_API_RESULT_T : Return value indicates if the function succeeded or 
1357:Generated_Source\PSoC4/BLE_1.c ****     *  failed. Following are the possible error codes.
1358:Generated_Source\PSoC4/BLE_1.c ****     *
1359:Generated_Source\PSoC4/BLE_1.c ****     *   Errors codes                       | Description
1360:Generated_Source\PSoC4/BLE_1.c ****     *   ------------                       | -----------
1361:Generated_Source\PSoC4/BLE_1.c ****     *   CYBLE_ERROR_OK                     | Function completed successfully.
1362:Generated_Source\PSoC4/BLE_1.c ****     *   CYBLE_ERROR_INVALID_PARAMETER      | On specifying NULL as input parameter
1363:Generated_Source\PSoC4/BLE_1.c ****     *
1364:Generated_Source\PSoC4/BLE_1.c ****     *******************************************************************************/
1365:Generated_Source\PSoC4/BLE_1.c ****     CYBLE_API_RESULT_T CyBle_GapGetLocalName(char8 name[])
1366:Generated_Source\PSoC4/BLE_1.c ****     {
 688              		.loc 1 1366 0
 689              		.cfi_startproc
 690              		@ args = 0, pretend = 0, frame = 0
 691              		@ frame_needed = 0, uses_anonymous_args = 0
 692              	.LVL73:
 693 0000 10B5     		push	{r4, lr}
 694              		.cfi_def_cfa_offset 8
 695              		.cfi_offset 4, -8
 696              		.cfi_offset 14, -4
 697              	.LVL74:
1367:Generated_Source\PSoC4/BLE_1.c ****         CYBLE_API_RESULT_T apiResult = CYBLE_ERROR_OK;
1368:Generated_Source\PSoC4/BLE_1.c ****         uint8 charLen;
1369:Generated_Source\PSoC4/BLE_1.c ****         uint8 i;
1370:Generated_Source\PSoC4/BLE_1.c ****         char8 *ptr;
1371:Generated_Source\PSoC4/BLE_1.c **** 
1372:Generated_Source\PSoC4/BLE_1.c ****         if(NULL != name)
 698              		.loc 1 1372 0
 699 0002 0028     		cmp	r0, #0
 700 0004 19D0     		beq	.L56
1373:Generated_Source\PSoC4/BLE_1.c ****         {
1374:Generated_Source\PSoC4/BLE_1.c ****             /* Get the pointer to the Device Name characteristic  */
1375:Generated_Source\PSoC4/BLE_1.c ****             ptr = (char8 *) CYBLE_GATT_DB_ATTR_GET_ATTR_GEN_PTR(cyBle_gaps.deviceNameCharHandle);
 701              		.loc 1 1375 0
 702 0006 0E4B     		ldr	r3, .L57
 703 0008 5B88     		ldrh	r3, [r3, #2]
 704 000a 013B     		subs	r3, r3, #1
 705 000c 9A00     		lsls	r2, r3, #2
 706 000e D318     		adds	r3, r2, r3
 707 0010 9A00     		lsls	r2, r3, #2
 708 0012 0C4B     		ldr	r3, .L57+4
 709 0014 9A18     		adds	r2, r3, r2
 710 0016 1369     		ldr	r3, [r2, #16]
 711 0018 5C68     		ldr	r4, [r3, #4]
 712              	.LVL75:
1376:Generated_Source\PSoC4/BLE_1.c **** 
1377:Generated_Source\PSoC4/BLE_1.c ****             /* First need to get the length of the characteristic data in the GATT
ARM GAS  C:\Users\Jacob\AppData\Local\Temp\ccFn1uj1.s 			page 39


1378:Generated_Source\PSoC4/BLE_1.c ****                 database to make sure there is enough place for the data. The length
1379:Generated_Source\PSoC4/BLE_1.c ****                 can't be longer than 248, so only the LSB of 16 bit of length is to
1380:Generated_Source\PSoC4/BLE_1.c ****                 be used. */
1381:Generated_Source\PSoC4/BLE_1.c ****             charLen = (uint8)CYBLE_GATT_DB_ATTR_GET_ATTR_GEN_LEN(cyBle_gaps.deviceNameCharHandle);
 713              		.loc 1 1381 0
 714 001a 1978     		ldrb	r1, [r3]
 715              	.LVL76:
1382:Generated_Source\PSoC4/BLE_1.c **** 
1383:Generated_Source\PSoC4/BLE_1.c ****             /* Copy name from characteristic */
1384:Generated_Source\PSoC4/BLE_1.c ****             for(i = 0u; ((i < charLen) && (CYBLE_NULL_CHARCTER != ptr[i])); i++)
 716              		.loc 1 1384 0
 717 001c 0023     		movs	r3, #0
 718 001e 02E0     		b	.L53
 719              	.LVL77:
 720              	.L55:
1385:Generated_Source\PSoC4/BLE_1.c ****             {
1386:Generated_Source\PSoC4/BLE_1.c ****                 name[i] = ptr[i];
 721              		.loc 1 1386 0 discriminator 4
 722 0020 C254     		strb	r2, [r0, r3]
1384:Generated_Source\PSoC4/BLE_1.c ****             {
 723              		.loc 1 1384 0 discriminator 4
 724 0022 0133     		adds	r3, r3, #1
 725              	.LVL78:
 726 0024 DBB2     		uxtb	r3, r3
 727              	.LVL79:
 728              	.L53:
1384:Generated_Source\PSoC4/BLE_1.c ****             {
 729              		.loc 1 1384 0 is_stmt 0 discriminator 1
 730 0026 8B42     		cmp	r3, r1
 731 0028 02D2     		bcs	.L54
1384:Generated_Source\PSoC4/BLE_1.c ****             {
 732              		.loc 1 1384 0 discriminator 3
 733 002a E25C     		ldrb	r2, [r4, r3]
 734 002c 002A     		cmp	r2, #0
 735 002e F7D1     		bne	.L55
 736              	.L54:
1387:Generated_Source\PSoC4/BLE_1.c ****             }
1388:Generated_Source\PSoC4/BLE_1.c **** 
1389:Generated_Source\PSoC4/BLE_1.c ****             /* Terminate string */
1390:Generated_Source\PSoC4/BLE_1.c ****             name[i] = CYBLE_NULL_CHARCTER;
 737              		.loc 1 1390 0 is_stmt 1
 738 0030 C318     		adds	r3, r0, r3
 739              	.LVL80:
 740 0032 0022     		movs	r2, #0
 741 0034 1A70     		strb	r2, [r3]
1367:Generated_Source\PSoC4/BLE_1.c ****         uint8 charLen;
 742              		.loc 1 1367 0
 743 0036 0020     		movs	r0, #0
 744              	.LVL81:
 745 0038 00E0     		b	.L52
 746              	.LVL82:
 747              	.L56:
1391:Generated_Source\PSoC4/BLE_1.c ****         }
1392:Generated_Source\PSoC4/BLE_1.c ****         else
1393:Generated_Source\PSoC4/BLE_1.c ****         {
1394:Generated_Source\PSoC4/BLE_1.c ****             apiResult = CYBLE_ERROR_INVALID_PARAMETER;
 748              		.loc 1 1394 0
ARM GAS  C:\Users\Jacob\AppData\Local\Temp\ccFn1uj1.s 			page 40


 749 003a 0120     		movs	r0, #1
 750              	.LVL83:
 751              	.L52:
1395:Generated_Source\PSoC4/BLE_1.c ****         }
1396:Generated_Source\PSoC4/BLE_1.c ****         
1397:Generated_Source\PSoC4/BLE_1.c ****         return(apiResult);
1398:Generated_Source\PSoC4/BLE_1.c ****     }
 752              		.loc 1 1398 0
 753              		@ sp needed
 754 003c 10BD     		pop	{r4, pc}
 755              	.L58:
 756 003e C046     		.align	2
 757              	.L57:
 758 0040 00000000 		.word	cyBle_gaps
 759 0044 00000000 		.word	cyBle_gattDB
 760              		.cfi_endproc
 761              	.LFE11:
 762              		.size	CyBle_GapGetLocalName, .-CyBle_GapGetLocalName
 763              		.section	.text.CyBle_Get16ByPtr,"ax",%progbits
 764              		.align	2
 765              		.global	CyBle_Get16ByPtr
 766              		.code	16
 767              		.thumb_func
 768              		.type	CyBle_Get16ByPtr, %function
 769              	CyBle_Get16ByPtr:
 770              	.LFB12:
1399:Generated_Source\PSoC4/BLE_1.c **** 
1400:Generated_Source\PSoC4/BLE_1.c **** #endif /* (CYBLE_GATT_ROLE_SERVER) */
1401:Generated_Source\PSoC4/BLE_1.c **** 
1402:Generated_Source\PSoC4/BLE_1.c **** 
1403:Generated_Source\PSoC4/BLE_1.c **** /******************************************************************************
1404:Generated_Source\PSoC4/BLE_1.c **** * Function Name: CyBle_Get16ByPtr
1405:Generated_Source\PSoC4/BLE_1.c **** ***************************************************************************//**
1406:Generated_Source\PSoC4/BLE_1.c **** * 
1407:Generated_Source\PSoC4/BLE_1.c **** *  Returns the two-bytes value by using a pointer to the LSB.
1408:Generated_Source\PSoC4/BLE_1.c **** * 
1409:Generated_Source\PSoC4/BLE_1.c **** *  \param ptr: Pointer to the LSB of two-bytes data (little endian).
1410:Generated_Source\PSoC4/BLE_1.c **** * 
1411:Generated_Source\PSoC4/BLE_1.c **** *  \return
1412:Generated_Source\PSoC4/BLE_1.c **** *  uint16: Two-bytes data.
1413:Generated_Source\PSoC4/BLE_1.c **** * 
1414:Generated_Source\PSoC4/BLE_1.c **** ******************************************************************************/
1415:Generated_Source\PSoC4/BLE_1.c **** uint16 CyBle_Get16ByPtr(const uint8 ptr[])
1416:Generated_Source\PSoC4/BLE_1.c **** {
 771              		.loc 1 1416 0
 772              		.cfi_startproc
 773              		@ args = 0, pretend = 0, frame = 0
 774              		@ frame_needed = 0, uses_anonymous_args = 0
 775              		@ link register save eliminated.
 776              	.LVL84:
1417:Generated_Source\PSoC4/BLE_1.c ****     return ((uint16) ptr[0u] | ((uint16) (((uint16) ptr[1u]) << 8u)));
 777              		.loc 1 1417 0
 778 0000 0378     		ldrb	r3, [r0]
 779 0002 4078     		ldrb	r0, [r0, #1]
 780              	.LVL85:
 781 0004 0002     		lsls	r0, r0, #8
 782 0006 1843     		orrs	r0, r3
ARM GAS  C:\Users\Jacob\AppData\Local\Temp\ccFn1uj1.s 			page 41


1418:Generated_Source\PSoC4/BLE_1.c **** }
 783              		.loc 1 1418 0
 784              		@ sp needed
 785 0008 7047     		bx	lr
 786              		.cfi_endproc
 787              	.LFE12:
 788              		.size	CyBle_Get16ByPtr, .-CyBle_Get16ByPtr
 789 000a C046     		.section	.text.CyBle_Set16ByPtr,"ax",%progbits
 790              		.align	2
 791              		.global	CyBle_Set16ByPtr
 792              		.code	16
 793              		.thumb_func
 794              		.type	CyBle_Set16ByPtr, %function
 795              	CyBle_Set16ByPtr:
 796              	.LFB13:
1419:Generated_Source\PSoC4/BLE_1.c **** 
1420:Generated_Source\PSoC4/BLE_1.c **** 
1421:Generated_Source\PSoC4/BLE_1.c **** /******************************************************************************
1422:Generated_Source\PSoC4/BLE_1.c **** * Function Name: CyBle_Set16ByPtr
1423:Generated_Source\PSoC4/BLE_1.c **** ***************************************************************************//**
1424:Generated_Source\PSoC4/BLE_1.c **** * 
1425:Generated_Source\PSoC4/BLE_1.c **** *  Sets the two-bytes value by using a pointer to the LSB.
1426:Generated_Source\PSoC4/BLE_1.c **** * 
1427:Generated_Source\PSoC4/BLE_1.c **** *  \param ptr:    Pointer to the LSB of two-bytes data (little endian).
1428:Generated_Source\PSoC4/BLE_1.c **** *  \param value:  Two-bytes data to be written.
1429:Generated_Source\PSoC4/BLE_1.c **** * 
1430:Generated_Source\PSoC4/BLE_1.c **** *  \return
1431:Generated_Source\PSoC4/BLE_1.c **** *  None
1432:Generated_Source\PSoC4/BLE_1.c **** * 
1433:Generated_Source\PSoC4/BLE_1.c **** ******************************************************************************/
1434:Generated_Source\PSoC4/BLE_1.c **** void CyBle_Set16ByPtr(uint8 ptr[], uint16 value)
1435:Generated_Source\PSoC4/BLE_1.c **** {
 797              		.loc 1 1435 0
 798              		.cfi_startproc
 799              		@ args = 0, pretend = 0, frame = 0
 800              		@ frame_needed = 0, uses_anonymous_args = 0
 801              		@ link register save eliminated.
 802              	.LVL86:
1436:Generated_Source\PSoC4/BLE_1.c ****     ptr[0u] = (uint8) value;
 803              		.loc 1 1436 0
 804 0000 0170     		strb	r1, [r0]
1437:Generated_Source\PSoC4/BLE_1.c ****     ptr[1u] = (uint8) (value >> 8u);
 805              		.loc 1 1437 0
 806 0002 090A     		lsrs	r1, r1, #8
 807              	.LVL87:
 808 0004 4170     		strb	r1, [r0, #1]
1438:Generated_Source\PSoC4/BLE_1.c **** }
 809              		.loc 1 1438 0
 810              		@ sp needed
 811 0006 7047     		bx	lr
 812              		.cfi_endproc
 813              	.LFE13:
 814              		.size	CyBle_Set16ByPtr, .-CyBle_Set16ByPtr
 815              		.global	cyBle_sflashDeviceAddress
 816              		.global	cyBle_deviceAddress
 817              		.comm	CyBle_ApplCallback,4,4
 818              		.global	cyBle_discoveryModeInfo
ARM GAS  C:\Users\Jacob\AppData\Local\Temp\ccFn1uj1.s 			page 42


 819              		.global	cyBle_scanRspData
 820              		.global	cyBle_discoveryData
 821              		.global	cyBle_discoveryParam
 822              		.global	cyBle_stackMemoryRam
 823              		.global	cyBle_initVar
 824              		.section	.rodata
 825              		.align	2
 826              		.set	.LANCHOR1,. + 0
 827              	.LC0:
 828 0000 2400     		.short	36
 829 0002 03       		.byte	3
 830 0003 00       		.space	1
 831 0004 3000     		.short	48
 832 0006 01       		.byte	1
 833 0007 00       		.space	1
 834 0008 2800     		.short	40
 835 000a 02       		.byte	2
 836 000b 00       		.space	1
 837 000c 2400     		.short	36
 838 000e 01       		.byte	1
 839 000f 00       		.space	1
 840 0010 2400     		.short	36
 841 0012 01       		.byte	1
 842 0013 00       		.space	1
 843              		.data
 844              		.align	2
 845              		.set	.LANCHOR0,. + 0
 846              		.type	cyBle_discoveryData, %object
 847              		.size	cyBle_discoveryData, 32
 848              	cyBle_discoveryData:
 849 0000 02       		.byte	2
 850 0001 01       		.byte	1
 851 0002 06       		.byte	6
 852 0003 03       		.byte	3
 853 0004 09       		.byte	9
 854 0005 48       		.byte	72
 855 0006 52       		.byte	82
 856 0007 05       		.byte	5
 857 0008 03       		.byte	3
 858 0009 0D       		.byte	13
 859 000a 18       		.byte	24
 860 000b 0A       		.byte	10
 861 000c 18       		.byte	24
 862 000d 00       		.byte	0
 863 000e 00       		.byte	0
 864 000f 00       		.byte	0
 865 0010 00       		.byte	0
 866 0011 00       		.byte	0
 867 0012 00       		.byte	0
 868 0013 00       		.byte	0
 869 0014 00       		.byte	0
 870 0015 00       		.byte	0
 871 0016 00       		.byte	0
 872 0017 00       		.byte	0
 873 0018 00       		.byte	0
 874 0019 00       		.byte	0
 875 001a 00       		.byte	0
ARM GAS  C:\Users\Jacob\AppData\Local\Temp\ccFn1uj1.s 			page 43


 876 001b 00       		.byte	0
 877 001c 00       		.byte	0
 878 001d 00       		.byte	0
 879 001e 00       		.byte	0
 880 001f 0D       		.byte	13
 881              		.type	cyBle_scanRspData, %object
 882              		.size	cyBle_scanRspData, 32
 883              	cyBle_scanRspData:
 884 0020 03       		.byte	3
 885 0021 09       		.byte	9
 886 0022 48       		.byte	72
 887 0023 52       		.byte	82
 888 0024 00       		.byte	0
 889 0025 00       		.byte	0
 890 0026 00       		.byte	0
 891 0027 00       		.byte	0
 892 0028 00       		.byte	0
 893 0029 00       		.byte	0
 894 002a 00       		.byte	0
 895 002b 00       		.byte	0
 896 002c 00       		.byte	0
 897 002d 00       		.byte	0
 898 002e 00       		.byte	0
 899 002f 00       		.byte	0
 900 0030 00       		.byte	0
 901 0031 00       		.byte	0
 902 0032 00       		.byte	0
 903 0033 00       		.byte	0
 904 0034 00       		.byte	0
 905 0035 00       		.byte	0
 906 0036 00       		.byte	0
 907 0037 00       		.byte	0
 908 0038 00       		.byte	0
 909 0039 00       		.byte	0
 910 003a 00       		.byte	0
 911 003b 00       		.byte	0
 912 003c 00       		.byte	0
 913 003d 00       		.byte	0
 914 003e 00       		.byte	0
 915 003f 04       		.byte	4
 916              		.type	cyBle_discoveryModeInfo, %object
 917              		.size	cyBle_discoveryModeInfo, 20
 918              	cyBle_discoveryModeInfo:
 919 0040 02       		.byte	2
 920 0041 000000   		.space	3
 921 0044 00000000 		.word	cyBle_discoveryParam
 922 0048 00000000 		.word	cyBle_discoveryData
 923 004c 00000000 		.word	cyBle_scanRspData
 924 0050 1E00     		.short	30
 925 0052 0000     		.space	2
 926              		.type	cyBle_sflashDeviceAddress, %object
 927              		.size	cyBle_sflashDeviceAddress, 4
 928              	cyBle_sflashDeviceAddress:
 929 0054 00F4FF0F 		.word	268432384
 930              		.type	cyBle_deviceAddress, %object
 931              		.size	cyBle_deviceAddress, 7
 932              	cyBle_deviceAddress:
ARM GAS  C:\Users\Jacob\AppData\Local\Temp\ccFn1uj1.s 			page 44


 933 0058 00       		.byte	0
 934 0059 00       		.byte	0
 935 005a 00       		.byte	0
 936 005b 50       		.byte	80
 937 005c A0       		.byte	-96
 938 005d 00       		.byte	0
 939 005e 00       		.byte	0
 940 005f 00       		.space	1
 941              		.type	cyBle_discoveryParam, %object
 942              		.size	cyBle_discoveryParam, 16
 943              	cyBle_discoveryParam:
 944 0060 2000     		.short	32
 945 0062 3000     		.short	48
 946 0064 00       		.byte	0
 947 0065 00       		.byte	0
 948 0066 00       		.byte	0
 949 0067 00       		.byte	0
 950 0068 00       		.byte	0
 951 0069 00       		.byte	0
 952 006a 50       		.byte	80
 953 006b A0       		.byte	-96
 954 006c 00       		.byte	0
 955 006d 07       		.byte	7
 956 006e 00       		.byte	0
 957 006f 00       		.space	1
 958              		.section	.noinit,"aw",%progbits
 959              		.align	3
 960              		.set	.LANCHOR3,. + 0
 961              		.type	cyBle_stackMemoryRam, %object
 962              		.size	cyBle_stackMemoryRam, 2784
 963              	cyBle_stackMemoryRam:
 964 0000 00000000 		.space	2784
 964      00000000 
 964      00000000 
 964      00000000 
 964      00000000 
 965              		.bss
 966              		.set	.LANCHOR2,. + 0
 967              		.type	cyBle_initVar, %object
 968              		.size	cyBle_initVar, 1
 969              	cyBle_initVar:
 970 0000 00       		.space	1
 971              		.text
 972              	.Letext0:
 973              		.file 2 "Generated_Source\\PSoC4\\cytypes.h"
 974              		.file 3 "Generated_Source\\PSoC4\\BLE_1_Stack.h"
 975              		.file 4 "Generated_Source\\PSoC4\\BLE_1_StackGap.h"
 976              		.file 5 "Generated_Source\\PSoC4\\BLE_1_StackGatt.h"
 977              		.file 6 "Generated_Source\\PSoC4\\BLE_1_StackGattDb.h"
 978              		.file 7 "Generated_Source\\PSoC4\\BLE_1.h"
 979              		.file 8 "Generated_Source\\PSoC4\\BLE_1_dis.h"
 980              		.file 9 "Generated_Source\\PSoC4\\BLE_1_hrs.h"
 981              		.file 10 "Generated_Source\\PSoC4\\BLE_1_eventHandler.h"
 982              		.file 11 "Generated_Source\\PSoC4\\BLE_1_gatt.h"