ARM GAS  C:\Users\Jacob\AppData\Local\Temp\ccnkWsmD.s 			page 1


   1              		.syntax unified
   2              		.cpu cortex-m0
   3              		.fpu softvfp
   4              		.eabi_attribute 20, 1
   5              		.eabi_attribute 21, 1
   6              		.eabi_attribute 23, 3
   7              		.eabi_attribute 24, 1
   8              		.eabi_attribute 25, 1
   9              		.eabi_attribute 26, 1
  10              		.eabi_attribute 30, 1
  11              		.eabi_attribute 34, 0
  12              		.eabi_attribute 18, 4
  13              		.thumb
  14              		.syntax unified
  15              		.file	"BleProcessing.c"
  16              		.text
  17              	.Ltext0:
  18              		.cfi_sections	.debug_frame
  19              		.section	.text.SendHeartRateOverBLE,"ax",%progbits
  20              		.align	2
  21              		.global	SendHeartRateOverBLE
  22              		.code	16
  23              		.thumb_func
  24              		.type	SendHeartRateOverBLE, %function
  25              	SendHeartRateOverBLE:
  26              	.LFB35:
  27              		.file 1 "BleProcessing.c"
   1:BleProcessing.c **** /*****************************************************************************
   2:BleProcessing.c **** * File Name: BleProcessing.c
   3:BleProcessing.c **** *
   4:BleProcessing.c **** * Version: 1.0
   5:BleProcessing.c **** *
   6:BleProcessing.c **** * Description:
   7:BleProcessing.c **** * This file implements the BLE capability in the PSoC 4 BLE Lab 3.
   8:BleProcessing.c **** *
   9:BleProcessing.c **** * Hardware Dependency:
  10:BleProcessing.c **** * CY8CKIT-042 BLE Pioneer Kit
  11:BleProcessing.c **** *
  12:BleProcessing.c **** ******************************************************************************
  13:BleProcessing.c **** * Copyright (2014), Cypress Semiconductor Corporation.
  14:BleProcessing.c **** ******************************************************************************
  15:BleProcessing.c **** * This software is owned by Cypress Semiconductor Corporation (Cypress) and is
  16:BleProcessing.c **** * protected by and subject to worldwide patent protection (United States and
  17:BleProcessing.c **** * foreign), United States copyright laws and international treaty provisions.
  18:BleProcessing.c **** * Cypress hereby grants to licensee a personal, non-exclusive, non-transferable
  19:BleProcessing.c **** * license to copy, use, modify, create derivative works of, and compile the
  20:BleProcessing.c **** * Cypress Source Code and derivative works for the sole purpose of creating
  21:BleProcessing.c **** * custom software in support of licensee product to be used only in conjunction
  22:BleProcessing.c **** * with a Cypress integrated circuit as specified in the applicable agreement.
  23:BleProcessing.c **** * Any reproduction, modification, translation, compilation, or representation of
  24:BleProcessing.c **** * this software except as specified above is prohibited without the express
  25:BleProcessing.c **** * written permission of Cypress.
  26:BleProcessing.c **** *
  27:BleProcessing.c **** * Disclaimer: CYPRESS MAKES NO WARRANTY OF ANY KIND, EXPRESS OR IMPLIED, WITH
  28:BleProcessing.c **** * REGARD TO THIS MATERIAL, INCLUDING, BUT NOT LIMITED TO, THE IMPLIED
  29:BleProcessing.c **** * WARRANTIES OF MERCHANTABILITY AND FITNESS FOR A PARTICULAR PURPOSE.
  30:BleProcessing.c **** * Cypress reserves the right to make changes without further notice to the
ARM GAS  C:\Users\Jacob\AppData\Local\Temp\ccnkWsmD.s 			page 2


  31:BleProcessing.c **** * materials described herein. Cypress does not assume any liability arising out
  32:BleProcessing.c **** * of the application or use of any product or circuit described herein. Cypress
  33:BleProcessing.c **** * does not authorize its products for use as critical components in life-support
  34:BleProcessing.c **** * systems where a malfunction or failure may reasonably be expected to result in
  35:BleProcessing.c **** * significant injury to the user. The inclusion of Cypress' product in a life-
  36:BleProcessing.c **** * support systems application implies that the manufacturer assumes all risk of
  37:BleProcessing.c **** * such use and in doing so indemnifies Cypress against all charges. Use may be
  38:BleProcessing.c **** * limited by and subject to the applicable Cypress software license agreement.
  39:BleProcessing.c **** *****************************************************************************/
  40:BleProcessing.c **** 
  41:BleProcessing.c **** 
  42:BleProcessing.c **** /*****************************************************************************
  43:BleProcessing.c **** * Included headers
  44:BleProcessing.c **** *****************************************************************************/
  45:BleProcessing.c **** #include <project.h>
  46:BleProcessing.c **** #include <stdbool.h>
  47:BleProcessing.c **** #include "HeartRateProcessing.h"
  48:BleProcessing.c **** #include "BleProcessing.h"
  49:BleProcessing.c **** 
  50:BleProcessing.c **** /*****************************************************************************
  51:BleProcessing.c **** * Macros 
  52:BleProcessing.c **** *****************************************************************************/
  53:BleProcessing.c **** #define HEART_RATE_DATA_LEN					(2)
  54:BleProcessing.c **** #define HRM_FLAG                            (0)
  55:BleProcessing.c **** 
  56:BleProcessing.c **** 
  57:BleProcessing.c **** /*****************************************************************************
  58:BleProcessing.c **** * Static variables 
  59:BleProcessing.c **** *****************************************************************************/
  60:BleProcessing.c **** static uint8 hrsNotification = false;
  61:BleProcessing.c **** 
  62:BleProcessing.c **** 
  63:BleProcessing.c **** /*****************************************************************************
  64:BleProcessing.c **** * Public variables 
  65:BleProcessing.c **** *****************************************************************************/
  66:BleProcessing.c **** bool enterHibernateFlag = false;
  67:BleProcessing.c **** uint32 timestampWhenConnected = 0;
  68:BleProcessing.c **** CONN_PARAM_REQUEST_STATE connParamRequestState = CONN_PARAM_REQUEST_NOT_SENT;
  69:BleProcessing.c **** 
  70:BleProcessing.c **** 
  71:BleProcessing.c **** /*****************************************************************************
  72:BleProcessing.c **** * Public function definitions
  73:BleProcessing.c **** *****************************************************************************/
  74:BleProcessing.c **** 
  75:BleProcessing.c **** /*****************************************************************************
  76:BleProcessing.c **** * Function Name: SendHeartRateOverBLE
  77:BleProcessing.c **** ******************************************************************************
  78:BleProcessing.c **** * Summary:
  79:BleProcessing.c **** * Creates and sends the Heart Rate Measurement characteristic notification 
  80:BleProcessing.c **** * packet.
  81:BleProcessing.c **** *
  82:BleProcessing.c **** * Parameters:
  83:BleProcessing.c **** * None
  84:BleProcessing.c **** *
  85:BleProcessing.c **** * Return:
  86:BleProcessing.c **** * None
  87:BleProcessing.c **** *
ARM GAS  C:\Users\Jacob\AppData\Local\Temp\ccnkWsmD.s 			page 3


  88:BleProcessing.c **** * Theory:
  89:BleProcessing.c **** * The function caches the value of the Heart Rate Measurement characteristic 
  90:BleProcessing.c **** * and updates the heart rate value in it. It then calls the BLE HRS service 
  91:BleProcessing.c **** * API to send this data via notification.
  92:BleProcessing.c **** *
  93:BleProcessing.c **** * Side Effects:
  94:BleProcessing.c **** * None
  95:BleProcessing.c **** *
  96:BleProcessing.c **** *****************************************************************************/
  97:BleProcessing.c **** void SendHeartRateOverBLE(void)
  98:BleProcessing.c **** {
  28              		.loc 1 98 0
  29              		.cfi_startproc
  30              		@ args = 0, pretend = 0, frame = 8
  31              		@ frame_needed = 0, uses_anonymous_args = 0
  32 0000 10B5     		push	{r4, lr}
  33              		.cfi_def_cfa_offset 8
  34              		.cfi_offset 4, -8
  35              		.cfi_offset 14, -4
  36 0002 82B0     		sub	sp, sp, #8
  37              		.cfi_def_cfa_offset 16
  99:BleProcessing.c ****     /* Two byte packet for heart rate notification since the heart rate 
 100:BleProcessing.c ****      * measurement value is 8-bit (this is sufficient since our heart rate
 101:BleProcessing.c ****      * does not cross 255) and we are not using the Energy Expended 
 102:BleProcessing.c ****      * and RR-interval fields.
 103:BleProcessing.c ****      */
 104:BleProcessing.c **** 	uint8 heartRatePacket[2];
 105:BleProcessing.c **** 	
 106:BleProcessing.c **** 	if(hrsNotification)
  38              		.loc 1 106 0
  39 0004 0C4B     		ldr	r3, .L3
  40 0006 1B78     		ldrb	r3, [r3]
  41 0008 002B     		cmp	r3, #0
  42 000a 12D0     		beq	.L1
 107:BleProcessing.c **** 	{
 108:BleProcessing.c ****         /* Read the existing characteristic value into a 
 109:BleProcessing.c ****          * two-byte array, by using CyBle_HrssGetCharacteristicValue(). 
 110:BleProcessing.c ****          */
 111:BleProcessing.c ****         CyBle_HrssGetCharacteristicValue(CYBLE_HRS_HRM, HEART_RATE_DATA_LEN, heartRatePacket);
  43              		.loc 1 111 0
  44 000c 01AC     		add	r4, sp, #4
  45 000e 2200     		movs	r2, r4
  46 0010 0221     		movs	r1, #2
  47 0012 0020     		movs	r0, #0
  48 0014 FFF7FEFF 		bl	CyBle_HrssGetCharacteristicValue
  49              	.LVL0:
 112:BleProcessing.c **** 
 113:BleProcessing.c ****         
 114:BleProcessing.c ****         /* Update the second byte with the actual heart rate value. */
 115:BleProcessing.c ****         heartRatePacket[1] = heartRate;
  50              		.loc 1 115 0
  51 0018 084B     		ldr	r3, .L3+4
  52 001a 1B78     		ldrb	r3, [r3]
  53 001c 6370     		strb	r3, [r4, #1]
 116:BleProcessing.c **** 		
 117:BleProcessing.c ****         
 118:BleProcessing.c ****         /* Call the BLE component API to send notification */
ARM GAS  C:\Users\Jacob\AppData\Local\Temp\ccnkWsmD.s 			page 4


 119:BleProcessing.c **** 		CyBle_HrssSendNotification(cyBle_connHandle, CYBLE_HRS_HRM, HEART_RATE_DATA_LEN, heartRatePacket)
  54              		.loc 1 119 0
  55 001e 084A     		ldr	r2, .L3+8
  56 0020 1378     		ldrb	r3, [r2]
  57 0022 5078     		ldrb	r0, [r2, #1]
  58 0024 0002     		lsls	r0, r0, #8
  59 0026 1843     		orrs	r0, r3
  60 0028 2300     		movs	r3, r4
  61 002a 0222     		movs	r2, #2
  62 002c 0021     		movs	r1, #0
  63 002e FFF7FEFF 		bl	CyBle_HrssSendNotification
  64              	.LVL1:
  65              	.L1:
 120:BleProcessing.c ****     }
 121:BleProcessing.c **** }
  66              		.loc 1 121 0
  67 0032 02B0     		add	sp, sp, #8
  68              		@ sp needed
  69 0034 10BD     		pop	{r4, pc}
  70              	.L4:
  71 0036 C046     		.align	2
  72              	.L3:
  73 0038 00000000 		.word	.LANCHOR0
  74 003c 00000000 		.word	heartRate
  75 0040 00000000 		.word	cyBle_connHandle
  76              		.cfi_endproc
  77              	.LFE35:
  78              		.size	SendHeartRateOverBLE, .-SendHeartRateOverBLE
  79              		.section	.text.HrsEventHandler,"ax",%progbits
  80              		.align	2
  81              		.global	HrsEventHandler
  82              		.code	16
  83              		.thumb_func
  84              		.type	HrsEventHandler, %function
  85              	HrsEventHandler:
  86              	.LFB36:
 122:BleProcessing.c **** 
 123:BleProcessing.c **** 
 124:BleProcessing.c **** /*****************************************************************************
 125:BleProcessing.c **** * Function Name: HrsEventHandler
 126:BleProcessing.c **** ******************************************************************************
 127:BleProcessing.c **** * Summary:
 128:BleProcessing.c **** * Event handler for the Heart Rate Service specific events.
 129:BleProcessing.c **** *
 130:BleProcessing.c **** * Parameters:
 131:BleProcessing.c **** * event: An enumerated value to be checked and accordingly some action to 
 132:BleProcessing.c **** *        be taken. The list of events is defined in the CYBLE_EVT_T enum.
 133:BleProcessing.c **** *
 134:BleProcessing.c **** * eventParam: The parameter associated with the event. The type of parameter
 135:BleProcessing.c **** *             can vary depending on the event. For more details refer the 
 136:BleProcessing.c **** *             BLE component datasheet.
 137:BleProcessing.c **** *
 138:BleProcessing.c **** * Return:
 139:BleProcessing.c **** * None
 140:BleProcessing.c **** *
 141:BleProcessing.c **** * Theory:
 142:BleProcessing.c **** * The function implements a switch statement to handle the notification
ARM GAS  C:\Users\Jacob\AppData\Local\Temp\ccnkWsmD.s 			page 5


 143:BleProcessing.c **** * enable and notification disable events for the Heart Rate Service.
 144:BleProcessing.c **** *
 145:BleProcessing.c **** * Side Effects:
 146:BleProcessing.c **** * None
 147:BleProcessing.c **** *
 148:BleProcessing.c **** *****************************************************************************/
 149:BleProcessing.c **** void HrsEventHandler(uint32 event, void *eventParam)
 150:BleProcessing.c **** {
  87              		.loc 1 150 0
  88              		.cfi_startproc
  89              		@ args = 0, pretend = 0, frame = 0
  90              		@ frame_needed = 0, uses_anonymous_args = 0
  91              		@ link register save eliminated.
  92              	.LVL2:
 151:BleProcessing.c ****     /* Event handler switch statement for the HRS service specific events. */
 152:BleProcessing.c ****      
 153:BleProcessing.c ****     
 154:BleProcessing.c ****     /* Set the hrsNotification variable on the notification 
 155:BleProcessing.c ****      * enabled event, and clear it on the disabled event.
 156:BleProcessing.c ****      */
 157:BleProcessing.c ****     switch(event)
  93              		.loc 1 157 0
  94 0000 AA23     		movs	r3, #170
  95 0002 FF33     		adds	r3, r3, #255
  96 0004 9842     		cmp	r0, r3
  97 0006 03D0     		beq	.L7
  98 0008 0133     		adds	r3, r3, #1
  99 000a 9842     		cmp	r0, r3
 100 000c 04D0     		beq	.L8
 101 000e 06E0     		b	.L5
 102              	.L7:
 158:BleProcessing.c **** 	{
 159:BleProcessing.c **** 		case CYBLE_EVT_HRSS_NOTIFICATION_ENABLED:
 160:BleProcessing.c **** 			hrsNotification = true;	
 103              		.loc 1 160 0
 104 0010 0122     		movs	r2, #1
 105 0012 034B     		ldr	r3, .L9
 106 0014 1A70     		strb	r2, [r3]
 161:BleProcessing.c **** 		    break;
 107              		.loc 1 161 0
 108 0016 02E0     		b	.L5
 109              	.L8:
 162:BleProcessing.c **** 		
 163:BleProcessing.c **** 		case CYBLE_EVT_HRSS_NOTIFICATION_DISABLED:
 164:BleProcessing.c **** 			hrsNotification = false;
 110              		.loc 1 164 0
 111 0018 0022     		movs	r2, #0
 112 001a 014B     		ldr	r3, .L9
 113 001c 1A70     		strb	r2, [r3]
 114              	.L5:
 165:BleProcessing.c **** 	    	break;
 166:BleProcessing.c **** 		
 167:BleProcessing.c **** 		default:
 168:BleProcessing.c ****     		break;
 169:BleProcessing.c **** 	}
 170:BleProcessing.c **** }
 115              		.loc 1 170 0
ARM GAS  C:\Users\Jacob\AppData\Local\Temp\ccnkWsmD.s 			page 6


 116              		@ sp needed
 117 001e 7047     		bx	lr
 118              	.L10:
 119              		.align	2
 120              	.L9:
 121 0020 00000000 		.word	.LANCHOR0
 122              		.cfi_endproc
 123              	.LFE36:
 124              		.size	HrsEventHandler, .-HrsEventHandler
 125              		.section	.text.GeneralEventHandler,"ax",%progbits
 126              		.align	2
 127              		.global	GeneralEventHandler
 128              		.code	16
 129              		.thumb_func
 130              		.type	GeneralEventHandler, %function
 131              	GeneralEventHandler:
 132              	.LFB37:
 171:BleProcessing.c **** 
 172:BleProcessing.c **** 
 173:BleProcessing.c **** /*****************************************************************************
 174:BleProcessing.c **** * Function Name: GeneralEventHandler
 175:BleProcessing.c **** ******************************************************************************
 176:BleProcessing.c **** * Summary:
 177:BleProcessing.c **** * Event handler for generic BLE events.
 178:BleProcessing.c **** *
 179:BleProcessing.c **** * Parameters:
 180:BleProcessing.c **** * event: An enumerated value to be checked and accordingly some action to 
 181:BleProcessing.c **** *        be taken. The list of events is defined in the CYBLE_EVENT_T enum.
 182:BleProcessing.c **** *
 183:BleProcessing.c **** * eventParam: The parameter associated with the event. The type of parameter
 184:BleProcessing.c **** *             can vary depending on the event. For more details refer the 
 185:BleProcessing.c **** *             BLE component datasheet.
 186:BleProcessing.c **** *
 187:BleProcessing.c **** * Return:
 188:BleProcessing.c **** * None
 189:BleProcessing.c **** *
 190:BleProcessing.c **** * Theory:
 191:BleProcessing.c **** * The function implements a switch case to handle different events for BLE
 192:BleProcessing.c **** * advertisement, connection and disconnection.
 193:BleProcessing.c **** *
 194:BleProcessing.c **** * Side Effects:
 195:BleProcessing.c **** * None
 196:BleProcessing.c **** *
 197:BleProcessing.c **** *****************************************************************************/
 198:BleProcessing.c **** void GeneralEventHandler(uint32 event, void *eventParam)
 199:BleProcessing.c **** {
 133              		.loc 1 199 0
 134              		.cfi_startproc
 135              		@ args = 0, pretend = 0, frame = 0
 136              		@ frame_needed = 0, uses_anonymous_args = 0
 137              	.LVL3:
 138 0000 10B5     		push	{r4, lr}
 139              		.cfi_def_cfa_offset 8
 140              		.cfi_offset 4, -8
 141              		.cfi_offset 14, -4
 200:BleProcessing.c ****     /* Handle various events for a general BLE connection */
 201:BleProcessing.c **** 	switch(event)
ARM GAS  C:\Users\Jacob\AppData\Local\Temp\ccnkWsmD.s 			page 7


 142              		.loc 1 201 0
 143 0002 2828     		cmp	r0, #40
 144 0004 16D0     		beq	.L13
 145 0006 04D8     		bhi	.L14
 146 0008 0128     		cmp	r0, #1
 147 000a 07D0     		beq	.L15
 148 000c 2628     		cmp	r0, #38
 149 000e 09D0     		beq	.L16
 150 0010 24E0     		b	.L11
 151              	.L14:
 152 0012 4228     		cmp	r0, #66
 153 0014 14D0     		beq	.L17
 154 0016 7128     		cmp	r0, #113
 155 0018 16D0     		beq	.L18
 156 001a 1FE0     		b	.L11
 157              	.L15:
 202:BleProcessing.c **** 	{
 203:BleProcessing.c **** 		case CYBLE_EVT_STACK_ON:
 204:BleProcessing.c **** 			/* Start the fast advertisement upon BLE initialization. */
 205:BleProcessing.c ****             CyBle_GappStartAdvertisement(CYBLE_ADVERTISING_FAST);
 158              		.loc 1 205 0
 159 001c 0020     		movs	r0, #0
 160              	.LVL4:
 161 001e FFF7FEFF 		bl	CyBle_GappStartAdvertisement
 162              	.LVL5:
 206:BleProcessing.c **** 
 207:BleProcessing.c ****             #if (RGB_LED_IN_PROJECT)
 208:BleProcessing.c ****                 /* Turn ON Green LED to indicate advertisement state */
 209:BleProcessing.c ****                 Led_Advertising_Green_Write(0);
 210:BleProcessing.c ****             #endif  /* #if (RGB_LED_IN_PROJECT) */
 211:BleProcessing.c ****     		break;
 163              		.loc 1 211 0
 164 0022 1BE0     		b	.L11
 165              	.LVL6:
 166              	.L16:
 212:BleProcessing.c ****             
 213:BleProcessing.c ****         case CYBLE_EVT_GAPP_ADVERTISEMENT_START_STOP:
 214:BleProcessing.c ****             /* If advertisement finished, then enter Hibernate mode. */
 215:BleProcessing.c ****             if(CYBLE_STATE_DISCONNECTED == CyBle_GetState())
 167              		.loc 1 215 0
 168 0024 0E4B     		ldr	r3, .L20
 169 0026 1B78     		ldrb	r3, [r3]
 170 0028 042B     		cmp	r3, #4
 171 002a 17D1     		bne	.L11
 216:BleProcessing.c ****             {
 217:BleProcessing.c ****                 enterHibernateFlag = true;
 172              		.loc 1 217 0
 173 002c 0122     		movs	r2, #1
 174 002e 0D4B     		ldr	r3, .L20+4
 175 0030 5A70     		strb	r2, [r3, #1]
 176 0032 13E0     		b	.L11
 177              	.L13:
 218:BleProcessing.c ****             }
 219:BleProcessing.c ****             break;
 220:BleProcessing.c ****             
 221:BleProcessing.c ****         case CYBLE_EVT_GAP_DEVICE_DISCONNECTED:
 222:BleProcessing.c ****             /* Enter hibernate mode upon disconnect */
ARM GAS  C:\Users\Jacob\AppData\Local\Temp\ccnkWsmD.s 			page 8


 223:BleProcessing.c **** 			enterHibernateFlag = true;
 178              		.loc 1 223 0
 179 0034 0B4B     		ldr	r3, .L20+4
 180 0036 0122     		movs	r2, #1
 181 0038 5A70     		strb	r2, [r3, #1]
 224:BleProcessing.c ****             
 225:BleProcessing.c ****             /* Reset the connection parameter update request status */
 226:BleProcessing.c ****             connParamRequestState = CONN_PARAM_REQUEST_NOT_SENT;
 182              		.loc 1 226 0
 183 003a 0022     		movs	r2, #0
 184 003c 9A70     		strb	r2, [r3, #2]
 227:BleProcessing.c ****             break;
 185              		.loc 1 227 0
 186 003e 0DE0     		b	.L11
 187              	.L17:
 228:BleProcessing.c **** 			
 229:BleProcessing.c **** 		case CYBLE_EVT_GATT_CONNECT_IND:
 230:BleProcessing.c ****             /* Note the time when connected */
 231:BleProcessing.c ****             //timestampWhenConnected = WatchdogTimer_GetTimestamp();
 232:BleProcessing.c **** 
 233:BleProcessing.c ****             #if (RGB_LED_IN_PROJECT)
 234:BleProcessing.c ****                 /* Turn OFF Green LED; Turn ON Blue LED to indicate Connection */
 235:BleProcessing.c ****                 Led_Advertising_Green_Write(1);
 236:BleProcessing.c ****                 Led_Connected_Blue_Write(0);
 237:BleProcessing.c ****             #endif  /* #if (RGB_LED_IN_PROJECT) */
 238:BleProcessing.c **** 			break;
 239:BleProcessing.c **** 			
 240:BleProcessing.c **** 		case CYBLE_EVT_GATT_DISCONNECT_IND:
 241:BleProcessing.c ****             /* Clear the HRS notification flag and the device connected flag */
 242:BleProcessing.c **** 			hrsNotification = false;
 188              		.loc 1 242 0
 189 0040 0022     		movs	r2, #0
 190 0042 084B     		ldr	r3, .L20+4
 191 0044 1A70     		strb	r2, [r3]
 243:BleProcessing.c **** 			break;
 192              		.loc 1 243 0
 193 0046 09E0     		b	.L11
 194              	.L18:
 244:BleProcessing.c **** 		
 245:BleProcessing.c ****         case CYBLE_EVT_L2CAP_CONN_PARAM_UPDATE_RSP:
 246:BleProcessing.c ****             /* Got a response for the connection parameter update request */
 247:BleProcessing.c ****             if(*(uint16 *)eventParam == CYBLE_L2CAP_CONN_PARAM_ACCEPTED)
 195              		.loc 1 247 0
 196 0048 0B88     		ldrh	r3, [r1]
 197 004a 002B     		cmp	r3, #0
 198 004c 03D1     		bne	.L19
 248:BleProcessing.c ****             {
 249:BleProcessing.c ****                 connParamRequestState = CONN_PARAM_REQUEST_ACCEPTED;
 199              		.loc 1 249 0
 200 004e 0222     		movs	r2, #2
 201 0050 044B     		ldr	r3, .L20+4
 202 0052 9A70     		strb	r2, [r3, #2]
 203 0054 02E0     		b	.L11
 204              	.L19:
 250:BleProcessing.c ****             }
 251:BleProcessing.c ****             else
 252:BleProcessing.c ****             {
ARM GAS  C:\Users\Jacob\AppData\Local\Temp\ccnkWsmD.s 			page 9


 253:BleProcessing.c ****                 connParamRequestState = CONN_PARAM_REQUEST_REJECTED;
 205              		.loc 1 253 0
 206 0056 0322     		movs	r2, #3
 207 0058 024B     		ldr	r3, .L20+4
 208 005a 9A70     		strb	r2, [r3, #2]
 209              	.LVL7:
 210              	.L11:
 254:BleProcessing.c ****             }
 255:BleProcessing.c ****             
 256:BleProcessing.c **** 		default:
 257:BleProcessing.c ****     		break;
 258:BleProcessing.c **** 	}
 259:BleProcessing.c **** }
 211              		.loc 1 259 0
 212              		@ sp needed
 213 005c 10BD     		pop	{r4, pc}
 214              	.L21:
 215 005e C046     		.align	2
 216              	.L20:
 217 0060 00000000 		.word	cyBle_state
 218 0064 00000000 		.word	.LANCHOR0
 219              		.cfi_endproc
 220              	.LFE37:
 221              		.size	GeneralEventHandler, .-GeneralEventHandler
 222              		.global	connParamRequestState
 223              		.global	timestampWhenConnected
 224              		.global	enterHibernateFlag
 225              		.bss
 226              		.align	2
 227              		.set	.LANCHOR0,. + 0
 228              		.type	hrsNotification, %object
 229              		.size	hrsNotification, 1
 230              	hrsNotification:
 231 0000 00       		.space	1
 232              		.type	enterHibernateFlag, %object
 233              		.size	enterHibernateFlag, 1
 234              	enterHibernateFlag:
 235 0001 00       		.space	1
 236              		.type	connParamRequestState, %object
 237              		.size	connParamRequestState, 1
 238              	connParamRequestState:
 239 0002 00       		.space	1
 240 0003 00       		.space	1
 241              		.type	timestampWhenConnected, %object
 242              		.size	timestampWhenConnected, 4
 243              	timestampWhenConnected:
 244 0004 00000000 		.space	4
 245              		.text
 246              	.Letext0:
 247              		.file 2 "Generated_Source\\PSoC4/cytypes.h"
 248              		.file 3 "Generated_Source\\PSoC4/BLE_1_StackGatt.h"
 249              		.file 4 "Generated_Source\\PSoC4/BLE_1_Stack.h"
 250              		.file 5 "Generated_Source\\PSoC4/BLE_1_hrs.h"
 251              		.file 6 "Generated_Source\\PSoC4/BLE_1_dis.h"
 252              		.file 7 "Generated_Source\\PSoC4/BLE_1_eventHandler.h"
 253              		.file 8 "BleProcessing.h"
 254              		.file 9 "HeartRateProcessing.h"
ARM GAS  C:\Users\Jacob\AppData\Local\Temp\ccnkWsmD.s 			page 10


 255              		.file 10 "Generated_Source\\PSoC4/BLE_1.h"