ARM GAS  C:\Users\Jacob\AppData\Local\Temp\ccGuJ9hg.s 			page 1


   1              		.syntax unified
   2              		.cpu cortex-m0
   3              		.fpu softvfp
   4              		.eabi_attribute 20, 1
   5              		.eabi_attribute 21, 1
   6              		.eabi_attribute 23, 3
   7              		.eabi_attribute 24, 1
   8              		.eabi_attribute 25, 1
   9              		.eabi_attribute 26, 1
  10              		.eabi_attribute 30, 1
  11              		.eabi_attribute 34, 0
  12              		.eabi_attribute 18, 4
  13              		.thumb
  14              		.syntax unified
  15              		.file	"cyfitter_cfg.c"
  16              		.text
  17              	.Ltext0:
  18              		.cfi_sections	.debug_frame
  19              		.section	.text.cfg_write_bytes32,"ax",%progbits
  20              		.align	2
  21              		.code	16
  22              		.thumb_func
  23              		.type	cfg_write_bytes32, %function
  24              	cfg_write_bytes32:
  25              	.LFB5:
  26              		.file 1 "Generated_Source\\PSoC4\\cyfitter_cfg.c"
   1:Generated_Source\PSoC4/cyfitter_cfg.c **** 
   2:Generated_Source\PSoC4/cyfitter_cfg.c **** /*******************************************************************************
   3:Generated_Source\PSoC4/cyfitter_cfg.c **** * File Name: cyfitter_cfg.c
   4:Generated_Source\PSoC4/cyfitter_cfg.c **** * 
   5:Generated_Source\PSoC4/cyfitter_cfg.c **** * PSoC Creator  4.1 Update 1
   6:Generated_Source\PSoC4/cyfitter_cfg.c **** *
   7:Generated_Source\PSoC4/cyfitter_cfg.c **** * Description:
   8:Generated_Source\PSoC4/cyfitter_cfg.c **** * This file contains device initialization code.
   9:Generated_Source\PSoC4/cyfitter_cfg.c **** * Except for the user defined sections in CyClockStartupError(), this file should not be modified.
  10:Generated_Source\PSoC4/cyfitter_cfg.c **** * This file is automatically generated by PSoC Creator.
  11:Generated_Source\PSoC4/cyfitter_cfg.c **** *
  12:Generated_Source\PSoC4/cyfitter_cfg.c **** ********************************************************************************
  13:Generated_Source\PSoC4/cyfitter_cfg.c **** * Copyright (c) 2007-2017 Cypress Semiconductor.  All rights reserved.
  14:Generated_Source\PSoC4/cyfitter_cfg.c **** * You may use this file only in accordance with the license, terms, conditions, 
  15:Generated_Source\PSoC4/cyfitter_cfg.c **** * disclaimers, and limitations in the end user license agreement accompanying 
  16:Generated_Source\PSoC4/cyfitter_cfg.c **** * the software package with which this file was provided.
  17:Generated_Source\PSoC4/cyfitter_cfg.c **** ********************************************************************************/
  18:Generated_Source\PSoC4/cyfitter_cfg.c **** 
  19:Generated_Source\PSoC4/cyfitter_cfg.c **** #include <string.h>
  20:Generated_Source\PSoC4/cyfitter_cfg.c **** #include "cytypes.h"
  21:Generated_Source\PSoC4/cyfitter_cfg.c **** #include "cydevice_trm.h"
  22:Generated_Source\PSoC4/cyfitter_cfg.c **** #include "cyfitter.h"
  23:Generated_Source\PSoC4/cyfitter_cfg.c **** #include "CyLib.h"
  24:Generated_Source\PSoC4/cyfitter_cfg.c **** #include "CyLFClk.h"
  25:Generated_Source\PSoC4/cyfitter_cfg.c **** #include "cyfitter_cfg.h"
  26:Generated_Source\PSoC4/cyfitter_cfg.c **** #include "cyapicallbacks.h"
  27:Generated_Source\PSoC4/cyfitter_cfg.c **** 
  28:Generated_Source\PSoC4/cyfitter_cfg.c **** 
  29:Generated_Source\PSoC4/cyfitter_cfg.c **** #if defined(__GNUC__) || defined(__ARMCC_VERSION)
  30:Generated_Source\PSoC4/cyfitter_cfg.c ****     #define CYPACKED 
  31:Generated_Source\PSoC4/cyfitter_cfg.c ****     #define CYPACKED_ATTR __attribute__ ((packed))
ARM GAS  C:\Users\Jacob\AppData\Local\Temp\ccGuJ9hg.s 			page 2


  32:Generated_Source\PSoC4/cyfitter_cfg.c ****     #define CYALIGNED __attribute__ ((aligned))
  33:Generated_Source\PSoC4/cyfitter_cfg.c ****     #define CY_CFG_UNUSED __attribute__ ((unused))
  34:Generated_Source\PSoC4/cyfitter_cfg.c ****     #ifndef CY_CFG_SECTION
  35:Generated_Source\PSoC4/cyfitter_cfg.c ****         #define CY_CFG_SECTION __attribute__ ((section(".psocinit")))
  36:Generated_Source\PSoC4/cyfitter_cfg.c ****     #endif
  37:Generated_Source\PSoC4/cyfitter_cfg.c ****     
  38:Generated_Source\PSoC4/cyfitter_cfg.c ****     #if defined(__ARMCC_VERSION)
  39:Generated_Source\PSoC4/cyfitter_cfg.c ****         #define CY_CFG_MEMORY_BARRIER() __memory_changed()
  40:Generated_Source\PSoC4/cyfitter_cfg.c ****     #else
  41:Generated_Source\PSoC4/cyfitter_cfg.c ****         #define CY_CFG_MEMORY_BARRIER() __sync_synchronize()
  42:Generated_Source\PSoC4/cyfitter_cfg.c ****     #endif
  43:Generated_Source\PSoC4/cyfitter_cfg.c ****     
  44:Generated_Source\PSoC4/cyfitter_cfg.c **** #elif defined(__ICCARM__)
  45:Generated_Source\PSoC4/cyfitter_cfg.c ****     #include <intrinsics.h>
  46:Generated_Source\PSoC4/cyfitter_cfg.c **** 
  47:Generated_Source\PSoC4/cyfitter_cfg.c ****     #define CYPACKED __packed
  48:Generated_Source\PSoC4/cyfitter_cfg.c ****     #define CYPACKED_ATTR 
  49:Generated_Source\PSoC4/cyfitter_cfg.c ****     #define CYALIGNED _Pragma("data_alignment=4")
  50:Generated_Source\PSoC4/cyfitter_cfg.c ****     #define CY_CFG_UNUSED _Pragma("diag_suppress=Pe177")
  51:Generated_Source\PSoC4/cyfitter_cfg.c ****     #define CY_CFG_SECTION _Pragma("location=\".psocinit\"")
  52:Generated_Source\PSoC4/cyfitter_cfg.c ****     
  53:Generated_Source\PSoC4/cyfitter_cfg.c ****     #define CY_CFG_MEMORY_BARRIER() __DMB()
  54:Generated_Source\PSoC4/cyfitter_cfg.c ****     
  55:Generated_Source\PSoC4/cyfitter_cfg.c **** #else
  56:Generated_Source\PSoC4/cyfitter_cfg.c ****     #error Unsupported toolchain
  57:Generated_Source\PSoC4/cyfitter_cfg.c **** #endif
  58:Generated_Source\PSoC4/cyfitter_cfg.c **** 
  59:Generated_Source\PSoC4/cyfitter_cfg.c **** #ifndef CYCODE
  60:Generated_Source\PSoC4/cyfitter_cfg.c ****     #define CYCODE
  61:Generated_Source\PSoC4/cyfitter_cfg.c **** #endif
  62:Generated_Source\PSoC4/cyfitter_cfg.c **** #ifndef CYDATA
  63:Generated_Source\PSoC4/cyfitter_cfg.c ****     #define CYDATA
  64:Generated_Source\PSoC4/cyfitter_cfg.c **** #endif
  65:Generated_Source\PSoC4/cyfitter_cfg.c **** #ifndef CYFAR
  66:Generated_Source\PSoC4/cyfitter_cfg.c ****     #define CYFAR
  67:Generated_Source\PSoC4/cyfitter_cfg.c **** #endif
  68:Generated_Source\PSoC4/cyfitter_cfg.c **** #ifndef CYXDATA
  69:Generated_Source\PSoC4/cyfitter_cfg.c ****     #define CYXDATA
  70:Generated_Source\PSoC4/cyfitter_cfg.c **** #endif
  71:Generated_Source\PSoC4/cyfitter_cfg.c **** 
  72:Generated_Source\PSoC4/cyfitter_cfg.c **** 
  73:Generated_Source\PSoC4/cyfitter_cfg.c **** CY_CFG_UNUSED
  74:Generated_Source\PSoC4/cyfitter_cfg.c **** static void CYMEMZERO(void *s, size_t n);
  75:Generated_Source\PSoC4/cyfitter_cfg.c **** CY_CFG_UNUSED
  76:Generated_Source\PSoC4/cyfitter_cfg.c **** static void CYMEMZERO(void *s, size_t n)
  77:Generated_Source\PSoC4/cyfitter_cfg.c **** {
  78:Generated_Source\PSoC4/cyfitter_cfg.c **** 	(void)memset(s, 0, n);
  79:Generated_Source\PSoC4/cyfitter_cfg.c **** }
  80:Generated_Source\PSoC4/cyfitter_cfg.c **** CY_CFG_UNUSED
  81:Generated_Source\PSoC4/cyfitter_cfg.c **** static void CYCONFIGCPY(void *dest, const void *src, size_t n);
  82:Generated_Source\PSoC4/cyfitter_cfg.c **** CY_CFG_UNUSED
  83:Generated_Source\PSoC4/cyfitter_cfg.c **** static void CYCONFIGCPY(void *dest, const void *src, size_t n)
  84:Generated_Source\PSoC4/cyfitter_cfg.c **** {
  85:Generated_Source\PSoC4/cyfitter_cfg.c **** 	(void)memcpy(dest, src, n);
  86:Generated_Source\PSoC4/cyfitter_cfg.c **** }
  87:Generated_Source\PSoC4/cyfitter_cfg.c **** CY_CFG_UNUSED
  88:Generated_Source\PSoC4/cyfitter_cfg.c **** static void CYCONFIGCPYCODE(void *dest, const void *src, size_t n);
ARM GAS  C:\Users\Jacob\AppData\Local\Temp\ccGuJ9hg.s 			page 3


  89:Generated_Source\PSoC4/cyfitter_cfg.c **** CY_CFG_UNUSED
  90:Generated_Source\PSoC4/cyfitter_cfg.c **** static void CYCONFIGCPYCODE(void *dest, const void *src, size_t n)
  91:Generated_Source\PSoC4/cyfitter_cfg.c **** {
  92:Generated_Source\PSoC4/cyfitter_cfg.c **** 	(void)memcpy(dest, src, n);
  93:Generated_Source\PSoC4/cyfitter_cfg.c **** }
  94:Generated_Source\PSoC4/cyfitter_cfg.c **** 
  95:Generated_Source\PSoC4/cyfitter_cfg.c **** 
  96:Generated_Source\PSoC4/cyfitter_cfg.c **** 
  97:Generated_Source\PSoC4/cyfitter_cfg.c **** 
  98:Generated_Source\PSoC4/cyfitter_cfg.c **** /* Clock startup error codes                                                   */
  99:Generated_Source\PSoC4/cyfitter_cfg.c **** #define CYCLOCKSTART_NO_ERROR    0u
 100:Generated_Source\PSoC4/cyfitter_cfg.c **** #define CYCLOCKSTART_XTAL_ERROR  1u
 101:Generated_Source\PSoC4/cyfitter_cfg.c **** #define CYCLOCKSTART_32KHZ_ERROR 2u
 102:Generated_Source\PSoC4/cyfitter_cfg.c **** #define CYCLOCKSTART_PLL_ERROR   3u
 103:Generated_Source\PSoC4/cyfitter_cfg.c **** #define CYCLOCKSTART_FLL_ERROR   4u
 104:Generated_Source\PSoC4/cyfitter_cfg.c **** 
 105:Generated_Source\PSoC4/cyfitter_cfg.c **** 
 106:Generated_Source\PSoC4/cyfitter_cfg.c **** #ifdef CY_NEED_CYCLOCKSTARTUPERROR
 107:Generated_Source\PSoC4/cyfitter_cfg.c **** /*******************************************************************************
 108:Generated_Source\PSoC4/cyfitter_cfg.c **** * Function Name: CyClockStartupError
 109:Generated_Source\PSoC4/cyfitter_cfg.c **** ********************************************************************************
 110:Generated_Source\PSoC4/cyfitter_cfg.c **** * Summary:
 111:Generated_Source\PSoC4/cyfitter_cfg.c **** *  If an error is encountered during clock configuration (crystal startup error,
 112:Generated_Source\PSoC4/cyfitter_cfg.c **** *  PLL lock error, etc.), the system will end up here.  Unless reimplemented by
 113:Generated_Source\PSoC4/cyfitter_cfg.c **** *  the customer, this function will stop in an infinite loop.
 114:Generated_Source\PSoC4/cyfitter_cfg.c **** *
 115:Generated_Source\PSoC4/cyfitter_cfg.c **** * Parameters:
 116:Generated_Source\PSoC4/cyfitter_cfg.c **** *   void
 117:Generated_Source\PSoC4/cyfitter_cfg.c **** *
 118:Generated_Source\PSoC4/cyfitter_cfg.c **** * Return:
 119:Generated_Source\PSoC4/cyfitter_cfg.c **** *   void
 120:Generated_Source\PSoC4/cyfitter_cfg.c **** *
 121:Generated_Source\PSoC4/cyfitter_cfg.c **** *******************************************************************************/
 122:Generated_Source\PSoC4/cyfitter_cfg.c **** CY_CFG_UNUSED
 123:Generated_Source\PSoC4/cyfitter_cfg.c **** static void CyClockStartupError(uint8 errorCode);
 124:Generated_Source\PSoC4/cyfitter_cfg.c **** CY_CFG_UNUSED
 125:Generated_Source\PSoC4/cyfitter_cfg.c **** static void CyClockStartupError(uint8 errorCode)
 126:Generated_Source\PSoC4/cyfitter_cfg.c **** {
 127:Generated_Source\PSoC4/cyfitter_cfg.c ****     /* To remove the compiler warning if errorCode not used. */
 128:Generated_Source\PSoC4/cyfitter_cfg.c **** #if defined(CY_PSOC3) && (CY_PSOC3)
 129:Generated_Source\PSoC4/cyfitter_cfg.c ****     errorCode = errorCode;
 130:Generated_Source\PSoC4/cyfitter_cfg.c **** #else
 131:Generated_Source\PSoC4/cyfitter_cfg.c ****     (void)errorCode;
 132:Generated_Source\PSoC4/cyfitter_cfg.c **** #endif /* CY_PSOC3 */
 133:Generated_Source\PSoC4/cyfitter_cfg.c **** 
 134:Generated_Source\PSoC4/cyfitter_cfg.c ****     /* If we have a clock startup error (bad MHz crystal, PLL lock, etc.),  */
 135:Generated_Source\PSoC4/cyfitter_cfg.c ****     /* we will end up here to allow the customer to implement something to  */
 136:Generated_Source\PSoC4/cyfitter_cfg.c ****     /* deal with the clock condition.                                       */
 137:Generated_Source\PSoC4/cyfitter_cfg.c **** 
 138:Generated_Source\PSoC4/cyfitter_cfg.c **** #ifdef CY_CFG_CLOCK_STARTUP_ERROR_CALLBACK
 139:Generated_Source\PSoC4/cyfitter_cfg.c ****     CY_CFG_Clock_Startup_ErrorCallback();
 140:Generated_Source\PSoC4/cyfitter_cfg.c **** #else
 141:Generated_Source\PSoC4/cyfitter_cfg.c ****     /*  If not using CY_CFG_CLOCK_STARTUP_ERROR_CALLBACK, place your clock startup code here. */
 142:Generated_Source\PSoC4/cyfitter_cfg.c ****     /* `#START CyClockStartupError` */
 143:Generated_Source\PSoC4/cyfitter_cfg.c **** 
 144:Generated_Source\PSoC4/cyfitter_cfg.c **** 
 145:Generated_Source\PSoC4/cyfitter_cfg.c **** 
ARM GAS  C:\Users\Jacob\AppData\Local\Temp\ccGuJ9hg.s 			page 4


 146:Generated_Source\PSoC4/cyfitter_cfg.c ****     /* `#END` */
 147:Generated_Source\PSoC4/cyfitter_cfg.c **** 
 148:Generated_Source\PSoC4/cyfitter_cfg.c ****     while(1) {}
 149:Generated_Source\PSoC4/cyfitter_cfg.c **** #endif /* CY_CFG_CLOCK_STARTUP_ERROR_CALLBACK */
 150:Generated_Source\PSoC4/cyfitter_cfg.c **** }
 151:Generated_Source\PSoC4/cyfitter_cfg.c **** #endif
 152:Generated_Source\PSoC4/cyfitter_cfg.c **** 
 153:Generated_Source\PSoC4/cyfitter_cfg.c **** #define CY_CFG_BASE_ADDR_COUNT 9u
 154:Generated_Source\PSoC4/cyfitter_cfg.c **** CYPACKED typedef struct
 155:Generated_Source\PSoC4/cyfitter_cfg.c **** {
 156:Generated_Source\PSoC4/cyfitter_cfg.c **** 	uint8 offset;
 157:Generated_Source\PSoC4/cyfitter_cfg.c **** 	uint8 value;
 158:Generated_Source\PSoC4/cyfitter_cfg.c **** } CYPACKED_ATTR cy_cfg_addrvalue_t;
 159:Generated_Source\PSoC4/cyfitter_cfg.c **** 
 160:Generated_Source\PSoC4/cyfitter_cfg.c **** 
 161:Generated_Source\PSoC4/cyfitter_cfg.c **** 
 162:Generated_Source\PSoC4/cyfitter_cfg.c **** /*******************************************************************************
 163:Generated_Source\PSoC4/cyfitter_cfg.c **** * Function Name: cfg_write_bytes32
 164:Generated_Source\PSoC4/cyfitter_cfg.c **** ********************************************************************************
 165:Generated_Source\PSoC4/cyfitter_cfg.c **** * Summary:
 166:Generated_Source\PSoC4/cyfitter_cfg.c **** *  This function is used for setting up the chip configuration areas that
 167:Generated_Source\PSoC4/cyfitter_cfg.c **** *  contain relatively sparse data.
 168:Generated_Source\PSoC4/cyfitter_cfg.c **** *
 169:Generated_Source\PSoC4/cyfitter_cfg.c **** * Parameters:
 170:Generated_Source\PSoC4/cyfitter_cfg.c **** *   void
 171:Generated_Source\PSoC4/cyfitter_cfg.c **** *
 172:Generated_Source\PSoC4/cyfitter_cfg.c **** * Return:
 173:Generated_Source\PSoC4/cyfitter_cfg.c **** *   void
 174:Generated_Source\PSoC4/cyfitter_cfg.c **** *
 175:Generated_Source\PSoC4/cyfitter_cfg.c **** *******************************************************************************/
 176:Generated_Source\PSoC4/cyfitter_cfg.c **** static void cfg_write_bytes32(const uint32 addr_table[], const cy_cfg_addrvalue_t data_table[]);
 177:Generated_Source\PSoC4/cyfitter_cfg.c **** static void cfg_write_bytes32(const uint32 addr_table[], const cy_cfg_addrvalue_t data_table[])
 178:Generated_Source\PSoC4/cyfitter_cfg.c **** {
  27              		.loc 1 178 0
  28              		.cfi_startproc
  29              		@ args = 0, pretend = 0, frame = 0
  30              		@ frame_needed = 0, uses_anonymous_args = 0
  31              	.LVL0:
  32 0000 F0B5     		push	{r4, r5, r6, r7, lr}
  33              		.cfi_def_cfa_offset 20
  34              		.cfi_offset 4, -20
  35              		.cfi_offset 5, -16
  36              		.cfi_offset 6, -12
  37              		.cfi_offset 7, -8
  38              		.cfi_offset 14, -4
  39              	.LVL1:
 179:Generated_Source\PSoC4/cyfitter_cfg.c **** 	/* For 32-bit little-endian architectures */
 180:Generated_Source\PSoC4/cyfitter_cfg.c **** 	uint32 i, j = 0u;
  40              		.loc 1 180 0
  41 0002 0025     		movs	r5, #0
 181:Generated_Source\PSoC4/cyfitter_cfg.c **** 	for (i = 0u; i < CY_CFG_BASE_ADDR_COUNT; i++)
  42              		.loc 1 181 0
  43 0004 0027     		movs	r7, #0
  44 0006 11E0     		b	.L2
  45              	.LVL2:
  46              	.L5:
  47              	.LBB2:
ARM GAS  C:\Users\Jacob\AppData\Local\Temp\ccGuJ9hg.s 			page 5


 182:Generated_Source\PSoC4/cyfitter_cfg.c **** 	{
 183:Generated_Source\PSoC4/cyfitter_cfg.c **** 		uint32 baseAddr = addr_table[i];
  48              		.loc 1 183 0
  49 0008 BB00     		lsls	r3, r7, #2
  50 000a C658     		ldr	r6, [r0, r3]
  51              	.LVL3:
 184:Generated_Source\PSoC4/cyfitter_cfg.c **** 		uint8 count = (uint8)baseAddr;
  52              		.loc 1 184 0
  53 000c F3B2     		uxtb	r3, r6
  54              	.LVL4:
 185:Generated_Source\PSoC4/cyfitter_cfg.c **** 		baseAddr &= 0xFFFFFF00u;
  55              		.loc 1 185 0
  56 000e FF22     		movs	r2, #255
  57 0010 9643     		bics	r6, r2
  58              	.LVL5:
 186:Generated_Source\PSoC4/cyfitter_cfg.c **** 		while (count != 0u)
  59              		.loc 1 186 0
  60 0012 08E0     		b	.L3
  61              	.L4:
 187:Generated_Source\PSoC4/cyfitter_cfg.c **** 		{
 188:Generated_Source\PSoC4/cyfitter_cfg.c **** 			CY_SET_REG8((void *)(baseAddr + data_table[j].offset), data_table[j].value);
  62              		.loc 1 188 0
  63 0014 6A00     		lsls	r2, r5, #1
  64 0016 8A18     		adds	r2, r1, r2
  65 0018 1478     		ldrb	r4, [r2]
  66 001a A419     		adds	r4, r4, r6
  67 001c 5278     		ldrb	r2, [r2, #1]
  68 001e 2270     		strb	r2, [r4]
 189:Generated_Source\PSoC4/cyfitter_cfg.c **** 			j++;
  69              		.loc 1 189 0
  70 0020 0135     		adds	r5, r5, #1
  71              	.LVL6:
 190:Generated_Source\PSoC4/cyfitter_cfg.c **** 			count--;
  72              		.loc 1 190 0
  73 0022 013B     		subs	r3, r3, #1
  74              	.LVL7:
  75 0024 DBB2     		uxtb	r3, r3
  76              	.LVL8:
  77              	.L3:
 186:Generated_Source\PSoC4/cyfitter_cfg.c **** 		{
  78              		.loc 1 186 0
  79 0026 002B     		cmp	r3, #0
  80 0028 F4D1     		bne	.L4
  81              	.LBE2:
 181:Generated_Source\PSoC4/cyfitter_cfg.c **** 	{
  82              		.loc 1 181 0 discriminator 2
  83 002a 0137     		adds	r7, r7, #1
  84              	.LVL9:
  85              	.L2:
 181:Generated_Source\PSoC4/cyfitter_cfg.c **** 	{
  86              		.loc 1 181 0 is_stmt 0 discriminator 1
  87 002c 082F     		cmp	r7, #8
  88 002e EBD9     		bls	.L5
 191:Generated_Source\PSoC4/cyfitter_cfg.c **** 		}
 192:Generated_Source\PSoC4/cyfitter_cfg.c **** 	}
 193:Generated_Source\PSoC4/cyfitter_cfg.c **** }
  89              		.loc 1 193 0 is_stmt 1
ARM GAS  C:\Users\Jacob\AppData\Local\Temp\ccGuJ9hg.s 			page 6


  90              		@ sp needed
  91              	.LVL10:
  92              	.LVL11:
  93 0030 F0BD     		pop	{r4, r5, r6, r7, pc}
  94              		.cfi_endproc
  95              	.LFE5:
  96              		.size	cfg_write_bytes32, .-cfg_write_bytes32
  97 0032 C046     		.section	.text.CYMEMZERO,"ax",%progbits
  98              		.align	2
  99              		.code	16
 100              		.thumb_func
 101              		.type	CYMEMZERO, %function
 102              	CYMEMZERO:
 103              	.LFB2:
  77:Generated_Source\PSoC4/cyfitter_cfg.c **** 	(void)memset(s, 0, n);
 104              		.loc 1 77 0
 105              		.cfi_startproc
 106              		@ args = 0, pretend = 0, frame = 0
 107              		@ frame_needed = 0, uses_anonymous_args = 0
 108              	.LVL12:
 109 0000 10B5     		push	{r4, lr}
 110              		.cfi_def_cfa_offset 8
 111              		.cfi_offset 4, -8
 112              		.cfi_offset 14, -4
 113 0002 0A00     		movs	r2, r1
  78:Generated_Source\PSoC4/cyfitter_cfg.c **** }
 114              		.loc 1 78 0
 115 0004 0021     		movs	r1, #0
 116              	.LVL13:
 117 0006 FFF7FEFF 		bl	memset
 118              	.LVL14:
  79:Generated_Source\PSoC4/cyfitter_cfg.c **** CY_CFG_UNUSED
 119              		.loc 1 79 0
 120              		@ sp needed
 121 000a 10BD     		pop	{r4, pc}
 122              		.cfi_endproc
 123              	.LFE2:
 124              		.size	CYMEMZERO, .-CYMEMZERO
 125              		.section	.text.CYCONFIGCPYCODE,"ax",%progbits
 126              		.align	2
 127              		.code	16
 128              		.thumb_func
 129              		.type	CYCONFIGCPYCODE, %function
 130              	CYCONFIGCPYCODE:
 131              	.LFB4:
  91:Generated_Source\PSoC4/cyfitter_cfg.c **** 	(void)memcpy(dest, src, n);
 132              		.loc 1 91 0
 133              		.cfi_startproc
 134              		@ args = 0, pretend = 0, frame = 0
 135              		@ frame_needed = 0, uses_anonymous_args = 0
 136              	.LVL15:
 137 0000 10B5     		push	{r4, lr}
 138              		.cfi_def_cfa_offset 8
 139              		.cfi_offset 4, -8
 140              		.cfi_offset 14, -4
  92:Generated_Source\PSoC4/cyfitter_cfg.c **** }
 141              		.loc 1 92 0
ARM GAS  C:\Users\Jacob\AppData\Local\Temp\ccGuJ9hg.s 			page 7


 142 0002 FFF7FEFF 		bl	memcpy
 143              	.LVL16:
  93:Generated_Source\PSoC4/cyfitter_cfg.c **** 
 144              		.loc 1 93 0
 145              		@ sp needed
 146 0006 10BD     		pop	{r4, pc}
 147              		.cfi_endproc
 148              	.LFE4:
 149              		.size	CYCONFIGCPYCODE, .-CYCONFIGCPYCODE
 150              		.section	.psocinit,"ax",%progbits
 151              		.align	2
 152              		.code	16
 153              		.thumb_func
 154              		.type	ClockSetup, %function
 155              	ClockSetup:
 156              	.LFB6:
 194:Generated_Source\PSoC4/cyfitter_cfg.c **** 
 195:Generated_Source\PSoC4/cyfitter_cfg.c **** 
 196:Generated_Source\PSoC4/cyfitter_cfg.c **** /*******************************************************************************
 197:Generated_Source\PSoC4/cyfitter_cfg.c **** * Function Name: ClockSetup
 198:Generated_Source\PSoC4/cyfitter_cfg.c **** ********************************************************************************
 199:Generated_Source\PSoC4/cyfitter_cfg.c **** *
 200:Generated_Source\PSoC4/cyfitter_cfg.c **** * Summary:
 201:Generated_Source\PSoC4/cyfitter_cfg.c **** *   Performs the initialization of all of the clocks in the device based on the
 202:Generated_Source\PSoC4/cyfitter_cfg.c **** *   settings in the Clock tab of the DWR.  This includes enabling the requested
 203:Generated_Source\PSoC4/cyfitter_cfg.c **** *   clocks and setting the necessary dividers to produce the desired frequency. 
 204:Generated_Source\PSoC4/cyfitter_cfg.c **** *
 205:Generated_Source\PSoC4/cyfitter_cfg.c **** * Parameters:
 206:Generated_Source\PSoC4/cyfitter_cfg.c **** *   void
 207:Generated_Source\PSoC4/cyfitter_cfg.c **** *
 208:Generated_Source\PSoC4/cyfitter_cfg.c **** * Return:
 209:Generated_Source\PSoC4/cyfitter_cfg.c **** *   void
 210:Generated_Source\PSoC4/cyfitter_cfg.c **** *
 211:Generated_Source\PSoC4/cyfitter_cfg.c **** *******************************************************************************/
 212:Generated_Source\PSoC4/cyfitter_cfg.c **** static void ClockSetup(void);
 213:Generated_Source\PSoC4/cyfitter_cfg.c **** CY_CFG_SECTION
 214:Generated_Source\PSoC4/cyfitter_cfg.c **** static void ClockSetup(void)
 215:Generated_Source\PSoC4/cyfitter_cfg.c **** {
 157              		.loc 1 215 0
 158              		.cfi_startproc
 159              		@ args = 0, pretend = 0, frame = 0
 160              		@ frame_needed = 0, uses_anonymous_args = 0
 161 0000 70B5     		push	{r4, r5, r6, lr}
 162              		.cfi_def_cfa_offset 16
 163              		.cfi_offset 4, -16
 164              		.cfi_offset 5, -12
 165              		.cfi_offset 6, -8
 166              		.cfi_offset 14, -4
 216:Generated_Source\PSoC4/cyfitter_cfg.c **** 
 217:Generated_Source\PSoC4/cyfitter_cfg.c **** 	/* Set Flash Cycles based on max possible frequency in case a glitch occurs during ClockSetup(). *
 218:Generated_Source\PSoC4/cyfitter_cfg.c **** 	CY_SET_REG32((void CYXDATA *)(CYREG_CPUSS_FLASH_CTL), (0x0012u));
 167              		.loc 1 218 0
 168 0002 1222     		movs	r2, #18
 169 0004 2B4B     		ldr	r3, .L9
 170 0006 1A60     		str	r2, [r3]
 219:Generated_Source\PSoC4/cyfitter_cfg.c **** 
 220:Generated_Source\PSoC4/cyfitter_cfg.c **** 	/* Start the WCO */
ARM GAS  C:\Users\Jacob\AppData\Local\Temp\ccGuJ9hg.s 			page 8


 221:Generated_Source\PSoC4/cyfitter_cfg.c **** 	CySysClkWcoStart();
 171              		.loc 1 221 0
 172 0008 FFF7FEFF 		bl	CySysClkWcoStart
 173              	.LVL17:
 222:Generated_Source\PSoC4/cyfitter_cfg.c **** 	CyDelayCycles(12000000u); /* WCO may take up to 500ms to start */
 174              		.loc 1 222 0
 175 000c 2A48     		ldr	r0, .L9+4
 176 000e FFF7FEFF 		bl	CyDelayCycles
 177              	.LVL18:
 223:Generated_Source\PSoC4/cyfitter_cfg.c **** 	(void)CySysClkWcoSetPowerMode(CY_SYS_CLK_WCO_LPM);    /* Switch to the low power mode */
 178              		.loc 1 223 0
 179 0012 0120     		movs	r0, #1
 180 0014 FFF7FEFF 		bl	CySysClkWcoSetPowerMode
 181              	.LVL19:
 224:Generated_Source\PSoC4/cyfitter_cfg.c **** 
 225:Generated_Source\PSoC4/cyfitter_cfg.c **** 	/* Setup and trim IMO based on desired frequency. */
 226:Generated_Source\PSoC4/cyfitter_cfg.c **** 	CySysClkWriteImoFreq(48u);
 182              		.loc 1 226 0
 183 0018 3020     		movs	r0, #48
 184 001a FFF7FEFF 		bl	CySysClkWriteImoFreq
 185              	.LVL20:
 227:Generated_Source\PSoC4/cyfitter_cfg.c **** 	/* CYDEV_CLK_ILO_CONFIG Starting address: CYDEV_CLK_ILO_CONFIG */
 228:Generated_Source\PSoC4/cyfitter_cfg.c **** 	CY_SET_REG32((void *)(CYREG_CLK_ILO_CONFIG), 0x80000006u);
 186              		.loc 1 228 0
 187 001e 274A     		ldr	r2, .L9+8
 188 0020 274B     		ldr	r3, .L9+12
 189 0022 1A60     		str	r2, [r3]
 229:Generated_Source\PSoC4/cyfitter_cfg.c **** 
 230:Generated_Source\PSoC4/cyfitter_cfg.c **** 	/* CYDEV_WDT_CONFIG Starting address: CYDEV_WDT_CONFIG */
 231:Generated_Source\PSoC4/cyfitter_cfg.c **** 	CY_SET_REG32((void *)(CYREG_WDT_CONFIG), 0x40000000u);
 190              		.loc 1 231 0
 191 0024 274C     		ldr	r4, .L9+16
 192 0026 8025     		movs	r5, #128
 193 0028 ED05     		lsls	r5, r5, #23
 194 002a 2560     		str	r5, [r4]
 232:Generated_Source\PSoC4/cyfitter_cfg.c **** 
 233:Generated_Source\PSoC4/cyfitter_cfg.c **** 
 234:Generated_Source\PSoC4/cyfitter_cfg.c **** 	/* Enable fast start mode for XO */
 235:Generated_Source\PSoC4/cyfitter_cfg.c **** 	CY_SET_REG32((void*)CYREG_BLE_BLERD_BB_XO, CY_GET_REG32((void*)CYREG_BLE_BLERD_BB_XO) | (uint32)0x
 195              		.loc 1 235 0
 196 002c 264A     		ldr	r2, .L9+20
 197 002e 1168     		ldr	r1, [r2]
 198 0030 0223     		movs	r3, #2
 199 0032 0B43     		orrs	r3, r1
 200 0034 1360     		str	r3, [r2]
 236:Generated_Source\PSoC4/cyfitter_cfg.c **** 	CY_SET_REG32((void *)(CYREG_BLE_BLERD_BB_XO_CAPTRIM), 0x00003E2Du);
 201              		.loc 1 236 0
 202 0036 254A     		ldr	r2, .L9+24
 203 0038 254B     		ldr	r3, .L9+28
 204 003a 1A60     		str	r2, [r3]
 237:Generated_Source\PSoC4/cyfitter_cfg.c **** 	/*Set XTAL(ECO) divider*/
 238:Generated_Source\PSoC4/cyfitter_cfg.c **** 	CY_SET_REG32((void *)(CYREG_BLE_BLESS_XTAL_CLK_DIV_CONFIG), 0x00000000u);
 205              		.loc 1 238 0
 206 003c 0022     		movs	r2, #0
 207 003e 254B     		ldr	r3, .L9+32
 208 0040 1A60     		str	r2, [r3]
 239:Generated_Source\PSoC4/cyfitter_cfg.c **** 	/* Disable Crystal Stable Interrupt before enabling ECO */
ARM GAS  C:\Users\Jacob\AppData\Local\Temp\ccGuJ9hg.s 			page 9


 240:Generated_Source\PSoC4/cyfitter_cfg.c **** 	CY_SET_REG32((void*)CYREG_BLE_BLESS_LL_DSM_CTRL, CY_GET_REG32((void*)CYREG_BLE_BLESS_LL_DSM_CTRL) 
 209              		.loc 1 240 0
 210 0042 254A     		ldr	r2, .L9+36
 211 0044 1368     		ldr	r3, [r2]
 212 0046 0821     		movs	r1, #8
 213 0048 8B43     		bics	r3, r1
 214 004a 1360     		str	r3, [r2]
 241:Generated_Source\PSoC4/cyfitter_cfg.c **** 	/* Start the ECO and do not check status since it is not needed for HFCLK */
 242:Generated_Source\PSoC4/cyfitter_cfg.c **** 	(void)CySysClkEcoStart(2000u);
 215              		.loc 1 242 0
 216 004c FA20     		movs	r0, #250
 217 004e C000     		lsls	r0, r0, #3
 218 0050 FFF7FEFF 		bl	CySysClkEcoStart
 219              	.LVL21:
 243:Generated_Source\PSoC4/cyfitter_cfg.c **** 	CyDelayUs(1500u); /* Wait to stabilize */
 220              		.loc 1 243 0
 221 0054 2148     		ldr	r0, .L9+40
 222 0056 FFF7FEFF 		bl	CyDelayUs
 223              	.LVL22:
 244:Generated_Source\PSoC4/cyfitter_cfg.c **** 
 245:Generated_Source\PSoC4/cyfitter_cfg.c **** 	/* Setup phase aligned clocks */
 246:Generated_Source\PSoC4/cyfitter_cfg.c **** 	CY_SET_REG32((void *)CYREG_PERI_DIV_16_CTL2, 0x00BB7F00u);
 224              		.loc 1 246 0
 225 005a 214A     		ldr	r2, .L9+44
 226 005c 214B     		ldr	r3, .L9+48
 227 005e 1A60     		str	r2, [r3]
 247:Generated_Source\PSoC4/cyfitter_cfg.c **** 	CY_SET_REG32((void *)CYREG_PERI_DIV_CMD, 0x8000FF42u);
 228              		.loc 1 247 0
 229 0060 214B     		ldr	r3, .L9+52
 230 0062 224A     		ldr	r2, .L9+56
 231 0064 1A60     		str	r2, [r3]
 248:Generated_Source\PSoC4/cyfitter_cfg.c **** 	CY_SET_REG32((void *)CYREG_PERI_DIV_16_CTL1, 0x00003300u);
 232              		.loc 1 248 0
 233 0066 CC21     		movs	r1, #204
 234 0068 8901     		lsls	r1, r1, #6
 235 006a 214A     		ldr	r2, .L9+60
 236 006c 1160     		str	r1, [r2]
 249:Generated_Source\PSoC4/cyfitter_cfg.c **** 	CY_SET_REG32((void *)CYREG_PERI_DIV_CMD, 0x8000FF41u);
 237              		.loc 1 249 0
 238 006e 214A     		ldr	r2, .L9+64
 239 0070 1A60     		str	r2, [r3]
 250:Generated_Source\PSoC4/cyfitter_cfg.c **** 	CY_SET_REG32((void *)CYREG_PERI_DIV_16_CTL0, 0x00000800u);
 240              		.loc 1 250 0
 241 0072 8021     		movs	r1, #128
 242 0074 0901     		lsls	r1, r1, #4
 243 0076 204A     		ldr	r2, .L9+68
 244 0078 1160     		str	r1, [r2]
 251:Generated_Source\PSoC4/cyfitter_cfg.c **** 	CY_SET_REG32((void *)CYREG_PERI_DIV_CMD, 0x8000FF40u);
 245              		.loc 1 251 0
 246 007a 204A     		ldr	r2, .L9+72
 247 007c 1A60     		str	r2, [r3]
 252:Generated_Source\PSoC4/cyfitter_cfg.c **** 
 253:Generated_Source\PSoC4/cyfitter_cfg.c **** 	/* CYDEV_CLK_IMO_CONFIG Starting address: CYDEV_CLK_IMO_CONFIG */
 254:Generated_Source\PSoC4/cyfitter_cfg.c **** 	CY_SET_REG32((void *)(CYREG_CLK_IMO_CONFIG), 0x82000000u);
 248              		.loc 1 254 0
 249 007e 8222     		movs	r2, #130
 250 0080 1206     		lsls	r2, r2, #24
ARM GAS  C:\Users\Jacob\AppData\Local\Temp\ccGuJ9hg.s 			page 10


 251 0082 1F4B     		ldr	r3, .L9+76
 252 0084 1A60     		str	r2, [r3]
 255:Generated_Source\PSoC4/cyfitter_cfg.c **** 
 256:Generated_Source\PSoC4/cyfitter_cfg.c **** 	/* CYDEV_CLK_SELECT Starting address: CYDEV_CLK_SELECT */
 257:Generated_Source\PSoC4/cyfitter_cfg.c **** 	CY_SET_REG32((void *)(CYREG_CLK_SELECT), 0x00040000u);
 253              		.loc 1 257 0
 254 0086 8022     		movs	r2, #128
 255 0088 D202     		lsls	r2, r2, #11
 256 008a 1E4B     		ldr	r3, .L9+80
 257 008c 1A60     		str	r2, [r3]
 258:Generated_Source\PSoC4/cyfitter_cfg.c **** 
 259:Generated_Source\PSoC4/cyfitter_cfg.c **** 	/* CYDEV_PERI_PCLK_CTL14 Starting address: CYDEV_PERI_PCLK_CTL14 */
 260:Generated_Source\PSoC4/cyfitter_cfg.c **** 	CY_SET_REG32((void *)(CYREG_PERI_PCLK_CTL14), 0x00000042u);
 258              		.loc 1 260 0
 259 008e 4222     		movs	r2, #66
 260 0090 1D4B     		ldr	r3, .L9+84
 261 0092 1A60     		str	r2, [r3]
 261:Generated_Source\PSoC4/cyfitter_cfg.c **** 
 262:Generated_Source\PSoC4/cyfitter_cfg.c **** 	/* CYDEV_PERI_PCLK_CTL12 Starting address: CYDEV_PERI_PCLK_CTL12 */
 263:Generated_Source\PSoC4/cyfitter_cfg.c **** 	CY_SET_REG32((void *)(CYREG_PERI_PCLK_CTL12), 0x00000041u);
 262              		.loc 1 263 0
 263 0094 013A     		subs	r2, r2, #1
 264 0096 1D4B     		ldr	r3, .L9+88
 265 0098 1A60     		str	r2, [r3]
 264:Generated_Source\PSoC4/cyfitter_cfg.c **** 
 265:Generated_Source\PSoC4/cyfitter_cfg.c **** 	/* CYDEV_PERI_PCLK_CTL6 Starting address: CYDEV_PERI_PCLK_CTL6 */
 266:Generated_Source\PSoC4/cyfitter_cfg.c **** 	CY_SET_REG32((void *)(CYREG_PERI_PCLK_CTL6), 0x00000040u);
 266              		.loc 1 266 0
 267 009a 013A     		subs	r2, r2, #1
 268 009c 1C4B     		ldr	r3, .L9+92
 269 009e 1A60     		str	r2, [r3]
 267:Generated_Source\PSoC4/cyfitter_cfg.c **** 
 268:Generated_Source\PSoC4/cyfitter_cfg.c **** 	(void)CyIntSetVector(8u, &CySysWdtIsr);
 270              		.loc 1 268 0
 271 00a0 1C49     		ldr	r1, .L9+96
 272 00a2 0820     		movs	r0, #8
 273 00a4 FFF7FEFF 		bl	CyIntSetVector
 274              	.LVL23:
 269:Generated_Source\PSoC4/cyfitter_cfg.c **** 	CyIntEnable(8u);
 275              		.loc 1 269 0
 276 00a8 0820     		movs	r0, #8
 277 00aa FFF7FEFF 		bl	CyIntEnable
 278              	.LVL24:
 270:Generated_Source\PSoC4/cyfitter_cfg.c **** 	CY_SET_REG32((void *)(CYREG_WDT_CONFIG), 0x40000000u);
 279              		.loc 1 270 0
 280 00ae 2560     		str	r5, [r4]
 271:Generated_Source\PSoC4/cyfitter_cfg.c **** }
 281              		.loc 1 271 0
 282              		@ sp needed
 283 00b0 70BD     		pop	{r4, r5, r6, pc}
 284              	.L10:
 285 00b2 C046     		.align	2
 286              	.L9:
 287 00b4 30001040 		.word	1074790448
 288 00b8 001BB700 		.word	12000000
 289 00bc 06000080 		.word	-2147483642
 290 00c0 04010B40 		.word	1074462980
ARM GAS  C:\Users\Jacob\AppData\Local\Temp\ccGuJ9hg.s 			page 11


 291 00c4 0C020B40 		.word	1074463244
 292 00c8 78002E40 		.word	1076756600
 293 00cc 2D3E0000 		.word	15917
 294 00d0 7C002E40 		.word	1076756604
 295 00d4 64F02E40 		.word	1076818020
 296 00d8 6CF02E40 		.word	1076818028
 297 00dc DC050000 		.word	1500
 298 00e0 007FBB00 		.word	12287744
 299 00e4 08030140 		.word	1073808136
 300 00e8 00000140 		.word	1073807360
 301 00ec 42FF0080 		.word	-2147418302
 302 00f0 04030140 		.word	1073808132
 303 00f4 41FF0080 		.word	-2147418303
 304 00f8 00030140 		.word	1073808128
 305 00fc 40FF0080 		.word	-2147418304
 306 0100 08010B40 		.word	1074462984
 307 0104 00010B40 		.word	1074462976
 308 0108 38010140 		.word	1073807672
 309 010c 30010140 		.word	1073807664
 310 0110 18010140 		.word	1073807640
 311 0114 00000000 		.word	CySysWdtIsr
 312              		.cfi_endproc
 313              	.LFE6:
 314              		.size	ClockSetup, .-ClockSetup
 315              		.section	.text.SetAnalogRoutingPumps,"ax",%progbits
 316              		.align	2
 317              		.global	SetAnalogRoutingPumps
 318              		.code	16
 319              		.thumb_func
 320              		.type	SetAnalogRoutingPumps, %function
 321              	SetAnalogRoutingPumps:
 322              	.LFB8:
 272:Generated_Source\PSoC4/cyfitter_cfg.c **** 
 273:Generated_Source\PSoC4/cyfitter_cfg.c **** 
 274:Generated_Source\PSoC4/cyfitter_cfg.c **** /* Analog API Functions */
 275:Generated_Source\PSoC4/cyfitter_cfg.c **** 
 276:Generated_Source\PSoC4/cyfitter_cfg.c **** 
 277:Generated_Source\PSoC4/cyfitter_cfg.c **** /*******************************************************************************
 278:Generated_Source\PSoC4/cyfitter_cfg.c **** * Function Name: AnalogSetDefault
 279:Generated_Source\PSoC4/cyfitter_cfg.c **** ********************************************************************************
 280:Generated_Source\PSoC4/cyfitter_cfg.c **** *
 281:Generated_Source\PSoC4/cyfitter_cfg.c **** * Summary:
 282:Generated_Source\PSoC4/cyfitter_cfg.c **** *  Sets up the analog portions of the chip to default values based on chip
 283:Generated_Source\PSoC4/cyfitter_cfg.c **** *  configuration options from the project.
 284:Generated_Source\PSoC4/cyfitter_cfg.c **** *
 285:Generated_Source\PSoC4/cyfitter_cfg.c **** * Parameters:
 286:Generated_Source\PSoC4/cyfitter_cfg.c **** *  void
 287:Generated_Source\PSoC4/cyfitter_cfg.c **** *
 288:Generated_Source\PSoC4/cyfitter_cfg.c **** * Return:
 289:Generated_Source\PSoC4/cyfitter_cfg.c **** *  void
 290:Generated_Source\PSoC4/cyfitter_cfg.c **** *
 291:Generated_Source\PSoC4/cyfitter_cfg.c **** *******************************************************************************/
 292:Generated_Source\PSoC4/cyfitter_cfg.c **** static void AnalogSetDefault(void);
 293:Generated_Source\PSoC4/cyfitter_cfg.c **** static void AnalogSetDefault(void)
 294:Generated_Source\PSoC4/cyfitter_cfg.c **** {
 295:Generated_Source\PSoC4/cyfitter_cfg.c **** 	CY_SET_XTND_REG32((void CYFAR *)CYREG_HSIOM_AMUX_SPLIT_CTL2, 0x00000033u);
 296:Generated_Source\PSoC4/cyfitter_cfg.c **** 	CY_SET_XTND_REG32((void CYFAR *)CYREG_CTBM0_DFT_CTRL, 0x00000003u);
ARM GAS  C:\Users\Jacob\AppData\Local\Temp\ccGuJ9hg.s 			page 12


 297:Generated_Source\PSoC4/cyfitter_cfg.c **** 	CY_SET_XTND_REG32((void CYFAR *)CYREG_CTBM1_DFT_CTRL, 0x00000003u);
 298:Generated_Source\PSoC4/cyfitter_cfg.c **** 	CY_SET_XTND_REG32((void CYFAR *)CYREG_SAR_CTRL, 0x80000000u);
 299:Generated_Source\PSoC4/cyfitter_cfg.c **** 	CY_SET_XTND_REG32((void CYFAR *)CYREG_SAR_MUX_SWITCH0, 0x000C0000u);
 300:Generated_Source\PSoC4/cyfitter_cfg.c **** 	CY_SET_XTND_REG32((void CYFAR *)CYREG_SAR_MUX_SWITCH_HW_CTRL, 0x000C0000u);
 301:Generated_Source\PSoC4/cyfitter_cfg.c **** 	CY_SET_XTND_REG32((void CYFAR *)CYREG_PASS_DSAB_DSAB_CTRL, 0x00000000u);
 302:Generated_Source\PSoC4/cyfitter_cfg.c **** 	SetAnalogRoutingPumps(1);
 303:Generated_Source\PSoC4/cyfitter_cfg.c **** }
 304:Generated_Source\PSoC4/cyfitter_cfg.c **** 
 305:Generated_Source\PSoC4/cyfitter_cfg.c **** 
 306:Generated_Source\PSoC4/cyfitter_cfg.c **** /*******************************************************************************
 307:Generated_Source\PSoC4/cyfitter_cfg.c **** * Function Name: SetAnalogRoutingPumps
 308:Generated_Source\PSoC4/cyfitter_cfg.c **** ********************************************************************************
 309:Generated_Source\PSoC4/cyfitter_cfg.c **** *
 310:Generated_Source\PSoC4/cyfitter_cfg.c **** * Summary:
 311:Generated_Source\PSoC4/cyfitter_cfg.c **** * Enables or disables the analog pumps feeding analog routing switches.
 312:Generated_Source\PSoC4/cyfitter_cfg.c **** * Intended to be called at startup, based on the Vdda system configuration;
 313:Generated_Source\PSoC4/cyfitter_cfg.c **** * may be called during operation when the user informs us that the Vdda voltage crossed the pump th
 314:Generated_Source\PSoC4/cyfitter_cfg.c **** *
 315:Generated_Source\PSoC4/cyfitter_cfg.c **** * Parameters:
 316:Generated_Source\PSoC4/cyfitter_cfg.c **** *  enabled - 1 to enable the pumps, 0 to disable the pumps
 317:Generated_Source\PSoC4/cyfitter_cfg.c **** *
 318:Generated_Source\PSoC4/cyfitter_cfg.c **** * Return:
 319:Generated_Source\PSoC4/cyfitter_cfg.c **** *  void
 320:Generated_Source\PSoC4/cyfitter_cfg.c **** *
 321:Generated_Source\PSoC4/cyfitter_cfg.c **** *******************************************************************************/
 322:Generated_Source\PSoC4/cyfitter_cfg.c **** void SetAnalogRoutingPumps(uint8 enabled)
 323:Generated_Source\PSoC4/cyfitter_cfg.c **** {
 323              		.loc 1 323 0
 324              		.cfi_startproc
 325              		@ args = 0, pretend = 0, frame = 0
 326              		@ frame_needed = 0, uses_anonymous_args = 0
 327              		@ link register save eliminated.
 328              	.LVL25:
 324:Generated_Source\PSoC4/cyfitter_cfg.c **** 	uint32 regValue = CY_GET_XTND_REG32((void *)(CYREG_SAR_PUMP_CTRL));
 329              		.loc 1 324 0
 330 0000 064B     		ldr	r3, .L14
 331 0002 1B68     		ldr	r3, [r3]
 332              	.LVL26:
 325:Generated_Source\PSoC4/cyfitter_cfg.c **** 	if (enabled != 0u)
 333              		.loc 1 325 0
 334 0004 0028     		cmp	r0, #0
 335 0006 03D0     		beq	.L12
 326:Generated_Source\PSoC4/cyfitter_cfg.c **** 	{
 327:Generated_Source\PSoC4/cyfitter_cfg.c **** 		regValue |= 0x80000000u;
 336              		.loc 1 327 0
 337 0008 8022     		movs	r2, #128
 338 000a 1206     		lsls	r2, r2, #24
 339 000c 1343     		orrs	r3, r2
 340              	.LVL27:
 341 000e 01E0     		b	.L13
 342              	.L12:
 328:Generated_Source\PSoC4/cyfitter_cfg.c **** 	}
 329:Generated_Source\PSoC4/cyfitter_cfg.c **** 	else
 330:Generated_Source\PSoC4/cyfitter_cfg.c **** 	{
 331:Generated_Source\PSoC4/cyfitter_cfg.c **** 		regValue &= ~0x80000000u;
 343              		.loc 1 331 0
 344 0010 5B00     		lsls	r3, r3, #1
ARM GAS  C:\Users\Jacob\AppData\Local\Temp\ccGuJ9hg.s 			page 13


 345              	.LVL28:
 346 0012 5B08     		lsrs	r3, r3, #1
 347              	.LVL29:
 348              	.L13:
 332:Generated_Source\PSoC4/cyfitter_cfg.c **** 	}
 333:Generated_Source\PSoC4/cyfitter_cfg.c **** 	CY_SET_XTND_REG32((void *)(CYREG_SAR_PUMP_CTRL), regValue);
 349              		.loc 1 333 0
 350 0014 014A     		ldr	r2, .L14
 351 0016 1360     		str	r3, [r2]
 334:Generated_Source\PSoC4/cyfitter_cfg.c **** }
 352              		.loc 1 334 0
 353              		@ sp needed
 354 0018 7047     		bx	lr
 355              	.L15:
 356 001a C046     		.align	2
 357              	.L14:
 358 001c 80033A40 		.word	1077543808
 359              		.cfi_endproc
 360              	.LFE8:
 361              		.size	SetAnalogRoutingPumps, .-SetAnalogRoutingPumps
 362              		.section	.text.AnalogSetDefault,"ax",%progbits
 363              		.align	2
 364              		.code	16
 365              		.thumb_func
 366              		.type	AnalogSetDefault, %function
 367              	AnalogSetDefault:
 368              	.LFB7:
 294:Generated_Source\PSoC4/cyfitter_cfg.c **** 	CY_SET_XTND_REG32((void CYFAR *)CYREG_HSIOM_AMUX_SPLIT_CTL2, 0x00000033u);
 369              		.loc 1 294 0
 370              		.cfi_startproc
 371              		@ args = 0, pretend = 0, frame = 0
 372              		@ frame_needed = 0, uses_anonymous_args = 0
 373 0000 10B5     		push	{r4, lr}
 374              		.cfi_def_cfa_offset 8
 375              		.cfi_offset 4, -8
 376              		.cfi_offset 14, -4
 295:Generated_Source\PSoC4/cyfitter_cfg.c **** 	CY_SET_XTND_REG32((void CYFAR *)CYREG_CTBM0_DFT_CTRL, 0x00000003u);
 377              		.loc 1 295 0
 378 0002 3322     		movs	r2, #51
 379 0004 0B4B     		ldr	r3, .L17
 380 0006 1A60     		str	r2, [r3]
 296:Generated_Source\PSoC4/cyfitter_cfg.c **** 	CY_SET_XTND_REG32((void CYFAR *)CYREG_CTBM1_DFT_CTRL, 0x00000003u);
 381              		.loc 1 296 0
 382 0008 0323     		movs	r3, #3
 383 000a 0B4A     		ldr	r2, .L17+4
 384 000c 1360     		str	r3, [r2]
 297:Generated_Source\PSoC4/cyfitter_cfg.c **** 	CY_SET_XTND_REG32((void CYFAR *)CYREG_SAR_CTRL, 0x80000000u);
 385              		.loc 1 297 0
 386 000e 0B4A     		ldr	r2, .L17+8
 387 0010 1360     		str	r3, [r2]
 298:Generated_Source\PSoC4/cyfitter_cfg.c **** 	CY_SET_XTND_REG32((void CYFAR *)CYREG_SAR_MUX_SWITCH0, 0x000C0000u);
 388              		.loc 1 298 0
 389 0012 8022     		movs	r2, #128
 390 0014 1206     		lsls	r2, r2, #24
 391 0016 0A4B     		ldr	r3, .L17+12
 392 0018 1A60     		str	r2, [r3]
 299:Generated_Source\PSoC4/cyfitter_cfg.c **** 	CY_SET_XTND_REG32((void CYFAR *)CYREG_SAR_MUX_SWITCH_HW_CTRL, 0x000C0000u);
ARM GAS  C:\Users\Jacob\AppData\Local\Temp\ccGuJ9hg.s 			page 14


 393              		.loc 1 299 0
 394 001a C023     		movs	r3, #192
 395 001c 1B03     		lsls	r3, r3, #12
 396 001e 094A     		ldr	r2, .L17+16
 397 0020 1360     		str	r3, [r2]
 300:Generated_Source\PSoC4/cyfitter_cfg.c **** 	CY_SET_XTND_REG32((void CYFAR *)CYREG_PASS_DSAB_DSAB_CTRL, 0x00000000u);
 398              		.loc 1 300 0
 399 0022 094A     		ldr	r2, .L17+20
 400 0024 1360     		str	r3, [r2]
 301:Generated_Source\PSoC4/cyfitter_cfg.c **** 	SetAnalogRoutingPumps(1);
 401              		.loc 1 301 0
 402 0026 0022     		movs	r2, #0
 403 0028 084B     		ldr	r3, .L17+24
 404 002a 1A60     		str	r2, [r3]
 302:Generated_Source\PSoC4/cyfitter_cfg.c **** }
 405              		.loc 1 302 0
 406 002c 0120     		movs	r0, #1
 407 002e FFF7FEFF 		bl	SetAnalogRoutingPumps
 408              	.LVL30:
 303:Generated_Source\PSoC4/cyfitter_cfg.c **** 
 409              		.loc 1 303 0
 410              		@ sp needed
 411 0032 10BD     		pop	{r4, pc}
 412              	.L18:
 413              		.align	2
 414              	.L17:
 415 0034 08210240 		.word	1073881352
 416 0038 30003040 		.word	1076887600
 417 003c 30003140 		.word	1076953136
 418 0040 00003A40 		.word	1077542912
 419 0044 00033A40 		.word	1077543680
 420 0048 40033A40 		.word	1077543744
 421 004c 000E3F40 		.word	1077874176
 422              		.cfi_endproc
 423              	.LFE7:
 424              		.size	AnalogSetDefault, .-AnalogSetDefault
 425              		.section	.psocinit
 426              		.align	2
 427              		.global	cyfitter_cfg
 428              		.code	16
 429              		.thumb_func
 430              		.type	cyfitter_cfg, %function
 431              	cyfitter_cfg:
 432              	.LFB9:
 335:Generated_Source\PSoC4/cyfitter_cfg.c **** 
 336:Generated_Source\PSoC4/cyfitter_cfg.c **** 
 337:Generated_Source\PSoC4/cyfitter_cfg.c **** 
 338:Generated_Source\PSoC4/cyfitter_cfg.c **** 
 339:Generated_Source\PSoC4/cyfitter_cfg.c **** /*******************************************************************************
 340:Generated_Source\PSoC4/cyfitter_cfg.c **** * Function Name: cyfitter_cfg
 341:Generated_Source\PSoC4/cyfitter_cfg.c **** ********************************************************************************
 342:Generated_Source\PSoC4/cyfitter_cfg.c **** * Summary:
 343:Generated_Source\PSoC4/cyfitter_cfg.c **** *  This function is called by the start-up code for the selected device. It
 344:Generated_Source\PSoC4/cyfitter_cfg.c **** *  performs all of the necessary device configuration based on the design
 345:Generated_Source\PSoC4/cyfitter_cfg.c **** *  settings.  This includes settings from the Design Wide Resources (DWR) such
 346:Generated_Source\PSoC4/cyfitter_cfg.c **** *  as Clocks and Pins as well as any component configuration that is necessary.
 347:Generated_Source\PSoC4/cyfitter_cfg.c **** *
ARM GAS  C:\Users\Jacob\AppData\Local\Temp\ccGuJ9hg.s 			page 15


 348:Generated_Source\PSoC4/cyfitter_cfg.c **** * Parameters:
 349:Generated_Source\PSoC4/cyfitter_cfg.c **** *   void
 350:Generated_Source\PSoC4/cyfitter_cfg.c **** *
 351:Generated_Source\PSoC4/cyfitter_cfg.c **** * Return:
 352:Generated_Source\PSoC4/cyfitter_cfg.c **** *   void
 353:Generated_Source\PSoC4/cyfitter_cfg.c **** *
 354:Generated_Source\PSoC4/cyfitter_cfg.c **** *******************************************************************************/
 355:Generated_Source\PSoC4/cyfitter_cfg.c **** CY_CFG_SECTION
 356:Generated_Source\PSoC4/cyfitter_cfg.c **** void cyfitter_cfg(void)
 357:Generated_Source\PSoC4/cyfitter_cfg.c **** {
 433              		.loc 1 357 0
 434              		.cfi_startproc
 435              		@ args = 0, pretend = 0, frame = 0
 436              		@ frame_needed = 0, uses_anonymous_args = 0
 437 0118 70B5     		push	{r4, r5, r6, lr}
 438              		.cfi_def_cfa_offset 16
 439              		.cfi_offset 4, -16
 440              		.cfi_offset 5, -12
 441              		.cfi_offset 6, -8
 442              		.cfi_offset 14, -4
 358:Generated_Source\PSoC4/cyfitter_cfg.c **** 	/* Disable interrupts by default. Let user enable if/when they want. */
 359:Generated_Source\PSoC4/cyfitter_cfg.c **** 	CyGlobalIntDisable;
 443              		.loc 1 359 0
 444              		.syntax divided
 445              	@ 359 "Generated_Source\PSoC4\cyfitter_cfg.c" 1
 446 011a 72B6     		CPSID   i
 447              	@ 0 "" 2
 360:Generated_Source\PSoC4/cyfitter_cfg.c **** 
 361:Generated_Source\PSoC4/cyfitter_cfg.c **** 	CY_SET_REG32((void *)(CYREG_BLE_BLESS_LL_DSM_CTRL), 0x00000000u);
 448              		.loc 1 361 0
 449              		.thumb
 450              		.syntax unified
 451 011c 0022     		movs	r2, #0
 452 011e 444B     		ldr	r3, .L24
 453 0120 1A60     		str	r2, [r3]
 454              	.LVL31:
 455              	.LBB3:
 362:Generated_Source\PSoC4/cyfitter_cfg.c **** 
 363:Generated_Source\PSoC4/cyfitter_cfg.c **** 	{
 364:Generated_Source\PSoC4/cyfitter_cfg.c **** 		static const uint32 CYCODE cy_cfg_addr_table[] = {
 365:Generated_Source\PSoC4/cyfitter_cfg.c **** 			0x400F0004u, /* Base address: 0x400F0000 Count: 4 */
 366:Generated_Source\PSoC4/cyfitter_cfg.c **** 			0x400F3075u, /* Base address: 0x400F3000 Count: 117 */
 367:Generated_Source\PSoC4/cyfitter_cfg.c **** 			0x400F3141u, /* Base address: 0x400F3100 Count: 65 */
 368:Generated_Source\PSoC4/cyfitter_cfg.c **** 			0x400F322Fu, /* Base address: 0x400F3200 Count: 47 */
 369:Generated_Source\PSoC4/cyfitter_cfg.c **** 			0x400F3355u, /* Base address: 0x400F3300 Count: 85 */
 370:Generated_Source\PSoC4/cyfitter_cfg.c **** 			0x400F4002u, /* Base address: 0x400F4000 Count: 2 */
 371:Generated_Source\PSoC4/cyfitter_cfg.c **** 			0x400F4109u, /* Base address: 0x400F4100 Count: 9 */
 372:Generated_Source\PSoC4/cyfitter_cfg.c **** 			0x400F4304u, /* Base address: 0x400F4300 Count: 4 */
 373:Generated_Source\PSoC4/cyfitter_cfg.c **** 			0x400F6002u, /* Base address: 0x400F6000 Count: 2 */
 374:Generated_Source\PSoC4/cyfitter_cfg.c **** 		};
 375:Generated_Source\PSoC4/cyfitter_cfg.c **** 
 376:Generated_Source\PSoC4/cyfitter_cfg.c **** 		static const cy_cfg_addrvalue_t CYCODE cy_cfg_data_table[] = {
 377:Generated_Source\PSoC4/cyfitter_cfg.c **** 			{0x80u, 0x38u},
 378:Generated_Source\PSoC4/cyfitter_cfg.c **** 			{0x81u, 0x0Fu},
 379:Generated_Source\PSoC4/cyfitter_cfg.c **** 			{0x82u, 0x0Du},
 380:Generated_Source\PSoC4/cyfitter_cfg.c **** 			{0x83u, 0x72u},
 381:Generated_Source\PSoC4/cyfitter_cfg.c **** 			{0x00u, 0x2Cu},
ARM GAS  C:\Users\Jacob\AppData\Local\Temp\ccGuJ9hg.s 			page 16


 382:Generated_Source\PSoC4/cyfitter_cfg.c **** 			{0x01u, 0x01u},
 383:Generated_Source\PSoC4/cyfitter_cfg.c **** 			{0x02u, 0x03u},
 384:Generated_Source\PSoC4/cyfitter_cfg.c **** 			{0x03u, 0x0Eu},
 385:Generated_Source\PSoC4/cyfitter_cfg.c **** 			{0x04u, 0xC0u},
 386:Generated_Source\PSoC4/cyfitter_cfg.c **** 			{0x05u, 0x27u},
 387:Generated_Source\PSoC4/cyfitter_cfg.c **** 			{0x09u, 0x27u},
 388:Generated_Source\PSoC4/cyfitter_cfg.c **** 			{0x0Au, 0x08u},
 389:Generated_Source\PSoC4/cyfitter_cfg.c **** 			{0x0Cu, 0x40u},
 390:Generated_Source\PSoC4/cyfitter_cfg.c **** 			{0x0Du, 0x20u},
 391:Generated_Source\PSoC4/cyfitter_cfg.c **** 			{0x0Eu, 0x80u},
 392:Generated_Source\PSoC4/cyfitter_cfg.c **** 			{0x12u, 0x0Cu},
 393:Generated_Source\PSoC4/cyfitter_cfg.c **** 			{0x13u, 0x40u},
 394:Generated_Source\PSoC4/cyfitter_cfg.c **** 			{0x14u, 0x80u},
 395:Generated_Source\PSoC4/cyfitter_cfg.c **** 			{0x16u, 0x40u},
 396:Generated_Source\PSoC4/cyfitter_cfg.c **** 			{0x18u, 0x31u},
 397:Generated_Source\PSoC4/cyfitter_cfg.c **** 			{0x1Au, 0x0Eu},
 398:Generated_Source\PSoC4/cyfitter_cfg.c **** 			{0x1Bu, 0x40u},
 399:Generated_Source\PSoC4/cyfitter_cfg.c **** 			{0x22u, 0x13u},
 400:Generated_Source\PSoC4/cyfitter_cfg.c **** 			{0x24u, 0xC0u},
 401:Generated_Source\PSoC4/cyfitter_cfg.c **** 			{0x25u, 0x04u},
 402:Generated_Source\PSoC4/cyfitter_cfg.c **** 			{0x27u, 0x11u},
 403:Generated_Source\PSoC4/cyfitter_cfg.c **** 			{0x28u, 0x31u},
 404:Generated_Source\PSoC4/cyfitter_cfg.c **** 			{0x2Au, 0x06u},
 405:Generated_Source\PSoC4/cyfitter_cfg.c **** 			{0x2Du, 0x02u},
 406:Generated_Source\PSoC4/cyfitter_cfg.c **** 			{0x2Fu, 0x11u},
 407:Generated_Source\PSoC4/cyfitter_cfg.c **** 			{0x31u, 0x07u},
 408:Generated_Source\PSoC4/cyfitter_cfg.c **** 			{0x32u, 0xC0u},
 409:Generated_Source\PSoC4/cyfitter_cfg.c **** 			{0x33u, 0x20u},
 410:Generated_Source\PSoC4/cyfitter_cfg.c **** 			{0x34u, 0x30u},
 411:Generated_Source\PSoC4/cyfitter_cfg.c **** 			{0x35u, 0x40u},
 412:Generated_Source\PSoC4/cyfitter_cfg.c **** 			{0x36u, 0x0Fu},
 413:Generated_Source\PSoC4/cyfitter_cfg.c **** 			{0x37u, 0x18u},
 414:Generated_Source\PSoC4/cyfitter_cfg.c **** 			{0x38u, 0x20u},
 415:Generated_Source\PSoC4/cyfitter_cfg.c **** 			{0x3Au, 0x80u},
 416:Generated_Source\PSoC4/cyfitter_cfg.c **** 			{0x3Eu, 0x10u},
 417:Generated_Source\PSoC4/cyfitter_cfg.c **** 			{0x3Fu, 0x50u},
 418:Generated_Source\PSoC4/cyfitter_cfg.c **** 			{0x40u, 0x02u},
 419:Generated_Source\PSoC4/cyfitter_cfg.c **** 			{0x47u, 0x04u},
 420:Generated_Source\PSoC4/cyfitter_cfg.c **** 			{0x49u, 0xFFu},
 421:Generated_Source\PSoC4/cyfitter_cfg.c **** 			{0x4Au, 0x07u},
 422:Generated_Source\PSoC4/cyfitter_cfg.c **** 			{0x4Bu, 0xFFu},
 423:Generated_Source\PSoC4/cyfitter_cfg.c **** 			{0x4Cu, 0x40u},
 424:Generated_Source\PSoC4/cyfitter_cfg.c **** 			{0x4Du, 0x20u},
 425:Generated_Source\PSoC4/cyfitter_cfg.c **** 			{0x4Eu, 0xF0u},
 426:Generated_Source\PSoC4/cyfitter_cfg.c **** 			{0x4Fu, 0x05u},
 427:Generated_Source\PSoC4/cyfitter_cfg.c **** 			{0x50u, 0x08u},
 428:Generated_Source\PSoC4/cyfitter_cfg.c **** 			{0x54u, 0x18u},
 429:Generated_Source\PSoC4/cyfitter_cfg.c **** 			{0x58u, 0x04u},
 430:Generated_Source\PSoC4/cyfitter_cfg.c **** 			{0x59u, 0x04u},
 431:Generated_Source\PSoC4/cyfitter_cfg.c **** 			{0x5Au, 0x04u},
 432:Generated_Source\PSoC4/cyfitter_cfg.c **** 			{0x5Bu, 0x04u},
 433:Generated_Source\PSoC4/cyfitter_cfg.c **** 			{0x5Cu, 0x11u},
 434:Generated_Source\PSoC4/cyfitter_cfg.c **** 			{0x5Du, 0x11u},
 435:Generated_Source\PSoC4/cyfitter_cfg.c **** 			{0x5Fu, 0x01u},
 436:Generated_Source\PSoC4/cyfitter_cfg.c **** 			{0x60u, 0x40u},
 437:Generated_Source\PSoC4/cyfitter_cfg.c **** 			{0x61u, 0xA8u},
 438:Generated_Source\PSoC4/cyfitter_cfg.c **** 			{0x62u, 0x40u},
ARM GAS  C:\Users\Jacob\AppData\Local\Temp\ccGuJ9hg.s 			page 17


 439:Generated_Source\PSoC4/cyfitter_cfg.c **** 			{0x63u, 0x20u},
 440:Generated_Source\PSoC4/cyfitter_cfg.c **** 			{0x80u, 0x09u},
 441:Generated_Source\PSoC4/cyfitter_cfg.c **** 			{0x81u, 0x80u},
 442:Generated_Source\PSoC4/cyfitter_cfg.c **** 			{0x82u, 0xD0u},
 443:Generated_Source\PSoC4/cyfitter_cfg.c **** 			{0x84u, 0x10u},
 444:Generated_Source\PSoC4/cyfitter_cfg.c **** 			{0x86u, 0xACu},
 445:Generated_Source\PSoC4/cyfitter_cfg.c **** 			{0x88u, 0x0Cu},
 446:Generated_Source\PSoC4/cyfitter_cfg.c **** 			{0x89u, 0x03u},
 447:Generated_Source\PSoC4/cyfitter_cfg.c **** 			{0x8Au, 0x71u},
 448:Generated_Source\PSoC4/cyfitter_cfg.c **** 			{0x8Bu, 0x44u},
 449:Generated_Source\PSoC4/cyfitter_cfg.c **** 			{0x8Cu, 0xDCu},
 450:Generated_Source\PSoC4/cyfitter_cfg.c **** 			{0x8Eu, 0x22u},
 451:Generated_Source\PSoC4/cyfitter_cfg.c **** 			{0x93u, 0x08u},
 452:Generated_Source\PSoC4/cyfitter_cfg.c **** 			{0x95u, 0x53u},
 453:Generated_Source\PSoC4/cyfitter_cfg.c **** 			{0x96u, 0x03u},
 454:Generated_Source\PSoC4/cyfitter_cfg.c **** 			{0x97u, 0x0Cu},
 455:Generated_Source\PSoC4/cyfitter_cfg.c **** 			{0x98u, 0x14u},
 456:Generated_Source\PSoC4/cyfitter_cfg.c **** 			{0xA1u, 0x20u},
 457:Generated_Source\PSoC4/cyfitter_cfg.c **** 			{0xA2u, 0x20u},
 458:Generated_Source\PSoC4/cyfitter_cfg.c **** 			{0xA3u, 0x45u},
 459:Generated_Source\PSoC4/cyfitter_cfg.c **** 			{0xA5u, 0x53u},
 460:Generated_Source\PSoC4/cyfitter_cfg.c **** 			{0xA7u, 0x04u},
 461:Generated_Source\PSoC4/cyfitter_cfg.c **** 			{0xA8u, 0x10u},
 462:Generated_Source\PSoC4/cyfitter_cfg.c **** 			{0xAAu, 0x40u},
 463:Generated_Source\PSoC4/cyfitter_cfg.c **** 			{0xADu, 0x0Au},
 464:Generated_Source\PSoC4/cyfitter_cfg.c **** 			{0xAFu, 0x54u},
 465:Generated_Source\PSoC4/cyfitter_cfg.c **** 			{0xB1u, 0x40u},
 466:Generated_Source\PSoC4/cyfitter_cfg.c **** 			{0xB2u, 0x1Fu},
 467:Generated_Source\PSoC4/cyfitter_cfg.c **** 			{0xB3u, 0x0Fu},
 468:Generated_Source\PSoC4/cyfitter_cfg.c **** 			{0xB4u, 0xE0u},
 469:Generated_Source\PSoC4/cyfitter_cfg.c **** 			{0xB5u, 0x80u},
 470:Generated_Source\PSoC4/cyfitter_cfg.c **** 			{0xB7u, 0x30u},
 471:Generated_Source\PSoC4/cyfitter_cfg.c **** 			{0xB9u, 0x80u},
 472:Generated_Source\PSoC4/cyfitter_cfg.c **** 			{0xBAu, 0x22u},
 473:Generated_Source\PSoC4/cyfitter_cfg.c **** 			{0xBBu, 0x08u},
 474:Generated_Source\PSoC4/cyfitter_cfg.c **** 			{0xBFu, 0x11u},
 475:Generated_Source\PSoC4/cyfitter_cfg.c **** 			{0xC0u, 0x64u},
 476:Generated_Source\PSoC4/cyfitter_cfg.c **** 			{0xC1u, 0x02u},
 477:Generated_Source\PSoC4/cyfitter_cfg.c **** 			{0xC5u, 0x0Bu},
 478:Generated_Source\PSoC4/cyfitter_cfg.c **** 			{0xC6u, 0xC0u},
 479:Generated_Source\PSoC4/cyfitter_cfg.c **** 			{0xC7u, 0xE0u},
 480:Generated_Source\PSoC4/cyfitter_cfg.c **** 			{0xC8u, 0x29u},
 481:Generated_Source\PSoC4/cyfitter_cfg.c **** 			{0xC9u, 0xFFu},
 482:Generated_Source\PSoC4/cyfitter_cfg.c **** 			{0xCAu, 0xFFu},
 483:Generated_Source\PSoC4/cyfitter_cfg.c **** 			{0xCBu, 0xFFu},
 484:Generated_Source\PSoC4/cyfitter_cfg.c **** 			{0xCEu, 0xF0u},
 485:Generated_Source\PSoC4/cyfitter_cfg.c **** 			{0xCFu, 0x44u},
 486:Generated_Source\PSoC4/cyfitter_cfg.c **** 			{0xD0u, 0x0Cu},
 487:Generated_Source\PSoC4/cyfitter_cfg.c **** 			{0xD4u, 0x01u},
 488:Generated_Source\PSoC4/cyfitter_cfg.c **** 			{0xD8u, 0x04u},
 489:Generated_Source\PSoC4/cyfitter_cfg.c **** 			{0xD9u, 0x04u},
 490:Generated_Source\PSoC4/cyfitter_cfg.c **** 			{0xDAu, 0x04u},
 491:Generated_Source\PSoC4/cyfitter_cfg.c **** 			{0xDBu, 0x04u},
 492:Generated_Source\PSoC4/cyfitter_cfg.c **** 			{0xDCu, 0x11u},
 493:Generated_Source\PSoC4/cyfitter_cfg.c **** 			{0xDDu, 0x11u},
 494:Generated_Source\PSoC4/cyfitter_cfg.c **** 			{0xDFu, 0x01u},
 495:Generated_Source\PSoC4/cyfitter_cfg.c **** 			{0xE6u, 0xC0u},
ARM GAS  C:\Users\Jacob\AppData\Local\Temp\ccGuJ9hg.s 			page 18


 496:Generated_Source\PSoC4/cyfitter_cfg.c **** 			{0xEAu, 0x40u},
 497:Generated_Source\PSoC4/cyfitter_cfg.c **** 			{0xEBu, 0x02u},
 498:Generated_Source\PSoC4/cyfitter_cfg.c **** 			{0x00u, 0x80u},
 499:Generated_Source\PSoC4/cyfitter_cfg.c **** 			{0x02u, 0x14u},
 500:Generated_Source\PSoC4/cyfitter_cfg.c **** 			{0x03u, 0x80u},
 501:Generated_Source\PSoC4/cyfitter_cfg.c **** 			{0x04u, 0x02u},
 502:Generated_Source\PSoC4/cyfitter_cfg.c **** 			{0x05u, 0x90u},
 503:Generated_Source\PSoC4/cyfitter_cfg.c **** 			{0x07u, 0x10u},
 504:Generated_Source\PSoC4/cyfitter_cfg.c **** 			{0x08u, 0x01u},
 505:Generated_Source\PSoC4/cyfitter_cfg.c **** 			{0x09u, 0x20u},
 506:Generated_Source\PSoC4/cyfitter_cfg.c **** 			{0x0Au, 0x20u},
 507:Generated_Source\PSoC4/cyfitter_cfg.c **** 			{0x0Eu, 0x10u},
 508:Generated_Source\PSoC4/cyfitter_cfg.c **** 			{0x0Fu, 0x08u},
 509:Generated_Source\PSoC4/cyfitter_cfg.c **** 			{0x10u, 0x80u},
 510:Generated_Source\PSoC4/cyfitter_cfg.c **** 			{0x11u, 0x04u},
 511:Generated_Source\PSoC4/cyfitter_cfg.c **** 			{0x12u, 0x08u},
 512:Generated_Source\PSoC4/cyfitter_cfg.c **** 			{0x14u, 0x40u},
 513:Generated_Source\PSoC4/cyfitter_cfg.c **** 			{0x16u, 0x04u},
 514:Generated_Source\PSoC4/cyfitter_cfg.c **** 			{0x19u, 0x8Cu},
 515:Generated_Source\PSoC4/cyfitter_cfg.c **** 			{0x1Au, 0x24u},
 516:Generated_Source\PSoC4/cyfitter_cfg.c **** 			{0x1Bu, 0x80u},
 517:Generated_Source\PSoC4/cyfitter_cfg.c **** 			{0x1Du, 0x30u},
 518:Generated_Source\PSoC4/cyfitter_cfg.c **** 			{0x1Eu, 0x10u},
 519:Generated_Source\PSoC4/cyfitter_cfg.c **** 			{0x1Fu, 0x12u},
 520:Generated_Source\PSoC4/cyfitter_cfg.c **** 			{0x20u, 0x06u},
 521:Generated_Source\PSoC4/cyfitter_cfg.c **** 			{0x21u, 0x05u},
 522:Generated_Source\PSoC4/cyfitter_cfg.c **** 			{0x23u, 0x40u},
 523:Generated_Source\PSoC4/cyfitter_cfg.c **** 			{0x24u, 0x42u},
 524:Generated_Source\PSoC4/cyfitter_cfg.c **** 			{0x26u, 0x08u},
 525:Generated_Source\PSoC4/cyfitter_cfg.c **** 			{0x27u, 0x19u},
 526:Generated_Source\PSoC4/cyfitter_cfg.c **** 			{0x29u, 0x04u},
 527:Generated_Source\PSoC4/cyfitter_cfg.c **** 			{0x2Au, 0x80u},
 528:Generated_Source\PSoC4/cyfitter_cfg.c **** 			{0x2Cu, 0xC0u},
 529:Generated_Source\PSoC4/cyfitter_cfg.c **** 			{0x2Du, 0x80u},
 530:Generated_Source\PSoC4/cyfitter_cfg.c **** 			{0x2Fu, 0x10u},
 531:Generated_Source\PSoC4/cyfitter_cfg.c **** 			{0x32u, 0x21u},
 532:Generated_Source\PSoC4/cyfitter_cfg.c **** 			{0x34u, 0x01u},
 533:Generated_Source\PSoC4/cyfitter_cfg.c **** 			{0x36u, 0x08u},
 534:Generated_Source\PSoC4/cyfitter_cfg.c **** 			{0x37u, 0x01u},
 535:Generated_Source\PSoC4/cyfitter_cfg.c **** 			{0x39u, 0x66u},
 536:Generated_Source\PSoC4/cyfitter_cfg.c **** 			{0x3Au, 0x10u},
 537:Generated_Source\PSoC4/cyfitter_cfg.c **** 			{0x3Du, 0x11u},
 538:Generated_Source\PSoC4/cyfitter_cfg.c **** 			{0x3Fu, 0x22u},
 539:Generated_Source\PSoC4/cyfitter_cfg.c **** 			{0x42u, 0x04u},
 540:Generated_Source\PSoC4/cyfitter_cfg.c **** 			{0x44u, 0x40u},
 541:Generated_Source\PSoC4/cyfitter_cfg.c **** 			{0x45u, 0x20u},
 542:Generated_Source\PSoC4/cyfitter_cfg.c **** 			{0x48u, 0x80u},
 543:Generated_Source\PSoC4/cyfitter_cfg.c **** 			{0x4Eu, 0x08u},
 544:Generated_Source\PSoC4/cyfitter_cfg.c **** 			{0x4Fu, 0x08u},
 545:Generated_Source\PSoC4/cyfitter_cfg.c **** 			{0x52u, 0x04u},
 546:Generated_Source\PSoC4/cyfitter_cfg.c **** 			{0x57u, 0x11u},
 547:Generated_Source\PSoC4/cyfitter_cfg.c **** 			{0x5Bu, 0x02u},
 548:Generated_Source\PSoC4/cyfitter_cfg.c **** 			{0x5Cu, 0x40u},
 549:Generated_Source\PSoC4/cyfitter_cfg.c **** 			{0x5Du, 0x11u},
 550:Generated_Source\PSoC4/cyfitter_cfg.c **** 			{0x5Fu, 0x08u},
 551:Generated_Source\PSoC4/cyfitter_cfg.c **** 			{0x60u, 0x04u},
 552:Generated_Source\PSoC4/cyfitter_cfg.c **** 			{0x62u, 0x80u},
ARM GAS  C:\Users\Jacob\AppData\Local\Temp\ccGuJ9hg.s 			page 19


 553:Generated_Source\PSoC4/cyfitter_cfg.c **** 			{0xC0u, 0xFFu},
 554:Generated_Source\PSoC4/cyfitter_cfg.c **** 			{0xC2u, 0x6Eu},
 555:Generated_Source\PSoC4/cyfitter_cfg.c **** 			{0xC4u, 0x5Eu},
 556:Generated_Source\PSoC4/cyfitter_cfg.c **** 			{0xCAu, 0xDAu},
 557:Generated_Source\PSoC4/cyfitter_cfg.c **** 			{0xCCu, 0xC5u},
 558:Generated_Source\PSoC4/cyfitter_cfg.c **** 			{0xCEu, 0xAFu},
 559:Generated_Source\PSoC4/cyfitter_cfg.c **** 			{0xD0u, 0xA4u},
 560:Generated_Source\PSoC4/cyfitter_cfg.c **** 			{0xD2u, 0x20u},
 561:Generated_Source\PSoC4/cyfitter_cfg.c **** 			{0xD6u, 0xF1u},
 562:Generated_Source\PSoC4/cyfitter_cfg.c **** 			{0xD8u, 0x0Cu},
 563:Generated_Source\PSoC4/cyfitter_cfg.c **** 			{0x03u, 0x02u},
 564:Generated_Source\PSoC4/cyfitter_cfg.c **** 			{0x09u, 0x04u},
 565:Generated_Source\PSoC4/cyfitter_cfg.c **** 			{0x0Fu, 0x01u},
 566:Generated_Source\PSoC4/cyfitter_cfg.c **** 			{0x13u, 0x02u},
 567:Generated_Source\PSoC4/cyfitter_cfg.c **** 			{0x14u, 0x04u},
 568:Generated_Source\PSoC4/cyfitter_cfg.c **** 			{0x1Au, 0x07u},
 569:Generated_Source\PSoC4/cyfitter_cfg.c **** 			{0x1Eu, 0x01u},
 570:Generated_Source\PSoC4/cyfitter_cfg.c **** 			{0x23u, 0x01u},
 571:Generated_Source\PSoC4/cyfitter_cfg.c **** 			{0x2Eu, 0x08u},
 572:Generated_Source\PSoC4/cyfitter_cfg.c **** 			{0x30u, 0x04u},
 573:Generated_Source\PSoC4/cyfitter_cfg.c **** 			{0x31u, 0x08u},
 574:Generated_Source\PSoC4/cyfitter_cfg.c **** 			{0x32u, 0x02u},
 575:Generated_Source\PSoC4/cyfitter_cfg.c **** 			{0x33u, 0x04u},
 576:Generated_Source\PSoC4/cyfitter_cfg.c **** 			{0x34u, 0x01u},
 577:Generated_Source\PSoC4/cyfitter_cfg.c **** 			{0x35u, 0x01u},
 578:Generated_Source\PSoC4/cyfitter_cfg.c **** 			{0x36u, 0x08u},
 579:Generated_Source\PSoC4/cyfitter_cfg.c **** 			{0x37u, 0x02u},
 580:Generated_Source\PSoC4/cyfitter_cfg.c **** 			{0x3Fu, 0x55u},
 581:Generated_Source\PSoC4/cyfitter_cfg.c **** 			{0x40u, 0x10u},
 582:Generated_Source\PSoC4/cyfitter_cfg.c **** 			{0x41u, 0x05u},
 583:Generated_Source\PSoC4/cyfitter_cfg.c **** 			{0x45u, 0xD1u},
 584:Generated_Source\PSoC4/cyfitter_cfg.c **** 			{0x46u, 0x02u},
 585:Generated_Source\PSoC4/cyfitter_cfg.c **** 			{0x48u, 0x07u},
 586:Generated_Source\PSoC4/cyfitter_cfg.c **** 			{0x49u, 0xFFu},
 587:Generated_Source\PSoC4/cyfitter_cfg.c **** 			{0x4Au, 0xFFu},
 588:Generated_Source\PSoC4/cyfitter_cfg.c **** 			{0x4Bu, 0xFFu},
 589:Generated_Source\PSoC4/cyfitter_cfg.c **** 			{0x4Du, 0xA0u},
 590:Generated_Source\PSoC4/cyfitter_cfg.c **** 			{0x4Fu, 0x04u},
 591:Generated_Source\PSoC4/cyfitter_cfg.c **** 			{0x50u, 0x18u},
 592:Generated_Source\PSoC4/cyfitter_cfg.c **** 			{0x52u, 0x80u},
 593:Generated_Source\PSoC4/cyfitter_cfg.c **** 			{0x54u, 0x05u},
 594:Generated_Source\PSoC4/cyfitter_cfg.c **** 			{0x58u, 0x04u},
 595:Generated_Source\PSoC4/cyfitter_cfg.c **** 			{0x59u, 0x04u},
 596:Generated_Source\PSoC4/cyfitter_cfg.c **** 			{0x5Au, 0x04u},
 597:Generated_Source\PSoC4/cyfitter_cfg.c **** 			{0x5Bu, 0x04u},
 598:Generated_Source\PSoC4/cyfitter_cfg.c **** 			{0x5Cu, 0x03u},
 599:Generated_Source\PSoC4/cyfitter_cfg.c **** 			{0x5Du, 0x33u},
 600:Generated_Source\PSoC4/cyfitter_cfg.c **** 			{0x5Fu, 0x01u},
 601:Generated_Source\PSoC4/cyfitter_cfg.c **** 			{0x60u, 0x40u},
 602:Generated_Source\PSoC4/cyfitter_cfg.c **** 			{0x62u, 0xC0u},
 603:Generated_Source\PSoC4/cyfitter_cfg.c **** 			{0x64u, 0x40u},
 604:Generated_Source\PSoC4/cyfitter_cfg.c **** 			{0x65u, 0x40u},
 605:Generated_Source\PSoC4/cyfitter_cfg.c **** 			{0x66u, 0xC0u},
 606:Generated_Source\PSoC4/cyfitter_cfg.c **** 			{0x68u, 0xC0u},
 607:Generated_Source\PSoC4/cyfitter_cfg.c **** 			{0x6Au, 0xC0u},
 608:Generated_Source\PSoC4/cyfitter_cfg.c **** 			{0x6Cu, 0xC0u},
 609:Generated_Source\PSoC4/cyfitter_cfg.c **** 			{0x6Eu, 0xC0u},
ARM GAS  C:\Users\Jacob\AppData\Local\Temp\ccGuJ9hg.s 			page 20


 610:Generated_Source\PSoC4/cyfitter_cfg.c **** 			{0x00u, 0x80u},
 611:Generated_Source\PSoC4/cyfitter_cfg.c **** 			{0x01u, 0x0Au},
 612:Generated_Source\PSoC4/cyfitter_cfg.c **** 			{0x03u, 0x08u},
 613:Generated_Source\PSoC4/cyfitter_cfg.c **** 			{0x08u, 0x90u},
 614:Generated_Source\PSoC4/cyfitter_cfg.c **** 			{0x0Au, 0x80u},
 615:Generated_Source\PSoC4/cyfitter_cfg.c **** 			{0x0Du, 0x80u},
 616:Generated_Source\PSoC4/cyfitter_cfg.c **** 			{0x0Eu, 0x20u},
 617:Generated_Source\PSoC4/cyfitter_cfg.c **** 			{0x0Fu, 0x08u},
 618:Generated_Source\PSoC4/cyfitter_cfg.c **** 			{0x10u, 0x80u},
 619:Generated_Source\PSoC4/cyfitter_cfg.c **** 			{0x13u, 0x54u},
 620:Generated_Source\PSoC4/cyfitter_cfg.c **** 			{0x17u, 0x80u},
 621:Generated_Source\PSoC4/cyfitter_cfg.c **** 			{0x19u, 0x06u},
 622:Generated_Source\PSoC4/cyfitter_cfg.c **** 			{0x1Au, 0x01u},
 623:Generated_Source\PSoC4/cyfitter_cfg.c **** 			{0x1Bu, 0x10u},
 624:Generated_Source\PSoC4/cyfitter_cfg.c **** 			{0x1Cu, 0x44u},
 625:Generated_Source\PSoC4/cyfitter_cfg.c **** 			{0x1Du, 0x80u},
 626:Generated_Source\PSoC4/cyfitter_cfg.c **** 			{0x1Eu, 0x20u},
 627:Generated_Source\PSoC4/cyfitter_cfg.c **** 			{0x1Fu, 0x40u},
 628:Generated_Source\PSoC4/cyfitter_cfg.c **** 			{0x21u, 0x40u},
 629:Generated_Source\PSoC4/cyfitter_cfg.c **** 			{0x22u, 0x55u},
 630:Generated_Source\PSoC4/cyfitter_cfg.c **** 			{0x26u, 0x88u},
 631:Generated_Source\PSoC4/cyfitter_cfg.c **** 			{0x27u, 0x48u},
 632:Generated_Source\PSoC4/cyfitter_cfg.c **** 			{0x28u, 0x10u},
 633:Generated_Source\PSoC4/cyfitter_cfg.c **** 			{0x29u, 0x06u},
 634:Generated_Source\PSoC4/cyfitter_cfg.c **** 			{0x2Au, 0x80u},
 635:Generated_Source\PSoC4/cyfitter_cfg.c **** 			{0x2Bu, 0x08u},
 636:Generated_Source\PSoC4/cyfitter_cfg.c **** 			{0x2Fu, 0x40u},
 637:Generated_Source\PSoC4/cyfitter_cfg.c **** 			{0x30u, 0x80u},
 638:Generated_Source\PSoC4/cyfitter_cfg.c **** 			{0x32u, 0x04u},
 639:Generated_Source\PSoC4/cyfitter_cfg.c **** 			{0x33u, 0x02u},
 640:Generated_Source\PSoC4/cyfitter_cfg.c **** 			{0x36u, 0x02u},
 641:Generated_Source\PSoC4/cyfitter_cfg.c **** 			{0x38u, 0x28u},
 642:Generated_Source\PSoC4/cyfitter_cfg.c **** 			{0x39u, 0x80u},
 643:Generated_Source\PSoC4/cyfitter_cfg.c **** 			{0x3Eu, 0x11u},
 644:Generated_Source\PSoC4/cyfitter_cfg.c **** 			{0x3Fu, 0x80u},
 645:Generated_Source\PSoC4/cyfitter_cfg.c **** 			{0x40u, 0x80u},
 646:Generated_Source\PSoC4/cyfitter_cfg.c **** 			{0x41u, 0x04u},
 647:Generated_Source\PSoC4/cyfitter_cfg.c **** 			{0x42u, 0x01u},
 648:Generated_Source\PSoC4/cyfitter_cfg.c **** 			{0x43u, 0x0Au},
 649:Generated_Source\PSoC4/cyfitter_cfg.c **** 			{0x45u, 0x80u},
 650:Generated_Source\PSoC4/cyfitter_cfg.c **** 			{0x48u, 0x01u},
 651:Generated_Source\PSoC4/cyfitter_cfg.c **** 			{0x4Au, 0x24u},
 652:Generated_Source\PSoC4/cyfitter_cfg.c **** 			{0x4Du, 0x01u},
 653:Generated_Source\PSoC4/cyfitter_cfg.c **** 			{0x4Fu, 0x88u},
 654:Generated_Source\PSoC4/cyfitter_cfg.c **** 			{0x52u, 0x02u},
 655:Generated_Source\PSoC4/cyfitter_cfg.c **** 			{0x57u, 0x40u},
 656:Generated_Source\PSoC4/cyfitter_cfg.c **** 			{0x5Au, 0x20u},
 657:Generated_Source\PSoC4/cyfitter_cfg.c **** 			{0x5Cu, 0x40u},
 658:Generated_Source\PSoC4/cyfitter_cfg.c **** 			{0x5Du, 0x01u},
 659:Generated_Source\PSoC4/cyfitter_cfg.c **** 			{0x5Fu, 0x08u},
 660:Generated_Source\PSoC4/cyfitter_cfg.c **** 			{0x69u, 0x64u},
 661:Generated_Source\PSoC4/cyfitter_cfg.c **** 			{0x70u, 0x94u},
 662:Generated_Source\PSoC4/cyfitter_cfg.c **** 			{0x73u, 0x14u},
 663:Generated_Source\PSoC4/cyfitter_cfg.c **** 			{0x77u, 0x80u},
 664:Generated_Source\PSoC4/cyfitter_cfg.c **** 			{0x83u, 0x12u},
 665:Generated_Source\PSoC4/cyfitter_cfg.c **** 			{0x84u, 0x40u},
 666:Generated_Source\PSoC4/cyfitter_cfg.c **** 			{0x86u, 0x80u},
ARM GAS  C:\Users\Jacob\AppData\Local\Temp\ccGuJ9hg.s 			page 21


 667:Generated_Source\PSoC4/cyfitter_cfg.c **** 			{0x8Au, 0x08u},
 668:Generated_Source\PSoC4/cyfitter_cfg.c **** 			{0x8Cu, 0x04u},
 669:Generated_Source\PSoC4/cyfitter_cfg.c **** 			{0x8Du, 0x02u},
 670:Generated_Source\PSoC4/cyfitter_cfg.c **** 			{0x8Eu, 0x04u},
 671:Generated_Source\PSoC4/cyfitter_cfg.c **** 			{0x8Fu, 0x40u},
 672:Generated_Source\PSoC4/cyfitter_cfg.c **** 			{0x91u, 0x08u},
 673:Generated_Source\PSoC4/cyfitter_cfg.c **** 			{0x92u, 0x10u},
 674:Generated_Source\PSoC4/cyfitter_cfg.c **** 			{0x93u, 0x40u},
 675:Generated_Source\PSoC4/cyfitter_cfg.c **** 			{0x95u, 0x64u},
 676:Generated_Source\PSoC4/cyfitter_cfg.c **** 			{0x96u, 0x02u},
 677:Generated_Source\PSoC4/cyfitter_cfg.c **** 			{0x99u, 0x08u},
 678:Generated_Source\PSoC4/cyfitter_cfg.c **** 			{0x9Eu, 0x80u},
 679:Generated_Source\PSoC4/cyfitter_cfg.c **** 			{0x9Fu, 0x02u},
 680:Generated_Source\PSoC4/cyfitter_cfg.c **** 			{0xA0u, 0x01u},
 681:Generated_Source\PSoC4/cyfitter_cfg.c **** 			{0xA3u, 0x02u},
 682:Generated_Source\PSoC4/cyfitter_cfg.c **** 			{0xA4u, 0x40u},
 683:Generated_Source\PSoC4/cyfitter_cfg.c **** 			{0xA6u, 0xA0u},
 684:Generated_Source\PSoC4/cyfitter_cfg.c **** 			{0xC0u, 0x0Fu},
 685:Generated_Source\PSoC4/cyfitter_cfg.c **** 			{0xC2u, 0xEBu},
 686:Generated_Source\PSoC4/cyfitter_cfg.c **** 			{0xC4u, 0x8Fu},
 687:Generated_Source\PSoC4/cyfitter_cfg.c **** 			{0xCAu, 0x8Fu},
 688:Generated_Source\PSoC4/cyfitter_cfg.c **** 			{0xCCu, 0x8Bu},
 689:Generated_Source\PSoC4/cyfitter_cfg.c **** 			{0xCEu, 0xBEu},
 690:Generated_Source\PSoC4/cyfitter_cfg.c **** 			{0xD0u, 0x1Bu},
 691:Generated_Source\PSoC4/cyfitter_cfg.c **** 			{0xD2u, 0x1Cu},
 692:Generated_Source\PSoC4/cyfitter_cfg.c **** 			{0xD6u, 0xD4u},
 693:Generated_Source\PSoC4/cyfitter_cfg.c **** 			{0xE2u, 0x10u},
 694:Generated_Source\PSoC4/cyfitter_cfg.c **** 			{0xE6u, 0x80u},
 695:Generated_Source\PSoC4/cyfitter_cfg.c **** 			{0x5Au, 0x80u},
 696:Generated_Source\PSoC4/cyfitter_cfg.c **** 			{0xD4u, 0x80u},
 697:Generated_Source\PSoC4/cyfitter_cfg.c **** 			{0x02u, 0x10u},
 698:Generated_Source\PSoC4/cyfitter_cfg.c **** 			{0x50u, 0x02u},
 699:Generated_Source\PSoC4/cyfitter_cfg.c **** 			{0x86u, 0x10u},
 700:Generated_Source\PSoC4/cyfitter_cfg.c **** 			{0x88u, 0x02u},
 701:Generated_Source\PSoC4/cyfitter_cfg.c **** 			{0x8Eu, 0x40u},
 702:Generated_Source\PSoC4/cyfitter_cfg.c **** 			{0x96u, 0x80u},
 703:Generated_Source\PSoC4/cyfitter_cfg.c **** 			{0xC0u, 0x10u},
 704:Generated_Source\PSoC4/cyfitter_cfg.c **** 			{0xD4u, 0x80u},
 705:Generated_Source\PSoC4/cyfitter_cfg.c **** 			{0xE0u, 0x40u},
 706:Generated_Source\PSoC4/cyfitter_cfg.c **** 			{0x54u, 0x02u},
 707:Generated_Source\PSoC4/cyfitter_cfg.c **** 			{0x8Cu, 0x02u},
 708:Generated_Source\PSoC4/cyfitter_cfg.c **** 			{0xD6u, 0x04u},
 709:Generated_Source\PSoC4/cyfitter_cfg.c **** 			{0xE4u, 0x02u},
 710:Generated_Source\PSoC4/cyfitter_cfg.c **** 			{0x10u, 0x0Au},
 711:Generated_Source\PSoC4/cyfitter_cfg.c **** 			{0x11u, 0x01u},
 712:Generated_Source\PSoC4/cyfitter_cfg.c **** 		};
 713:Generated_Source\PSoC4/cyfitter_cfg.c **** 
 714:Generated_Source\PSoC4/cyfitter_cfg.c **** 
 715:Generated_Source\PSoC4/cyfitter_cfg.c **** 
 716:Generated_Source\PSoC4/cyfitter_cfg.c **** 		CYPACKED typedef struct {
 717:Generated_Source\PSoC4/cyfitter_cfg.c **** 			void CYFAR *address;
 718:Generated_Source\PSoC4/cyfitter_cfg.c **** 			uint16 size;
 719:Generated_Source\PSoC4/cyfitter_cfg.c **** 		} CYPACKED_ATTR cfg_memset_t;
 720:Generated_Source\PSoC4/cyfitter_cfg.c **** 
 721:Generated_Source\PSoC4/cyfitter_cfg.c **** 
 722:Generated_Source\PSoC4/cyfitter_cfg.c **** 		CYPACKED typedef struct {
 723:Generated_Source\PSoC4/cyfitter_cfg.c **** 			void CYFAR *dest;
ARM GAS  C:\Users\Jacob\AppData\Local\Temp\ccGuJ9hg.s 			page 22


 724:Generated_Source\PSoC4/cyfitter_cfg.c **** 			const void CYCODE *src;
 725:Generated_Source\PSoC4/cyfitter_cfg.c **** 			uint16 size;
 726:Generated_Source\PSoC4/cyfitter_cfg.c **** 		} CYPACKED_ATTR cfg_memcpy_t;
 727:Generated_Source\PSoC4/cyfitter_cfg.c **** 
 728:Generated_Source\PSoC4/cyfitter_cfg.c **** 		static const cfg_memset_t CYCODE cfg_memset_list[] = {
 729:Generated_Source\PSoC4/cyfitter_cfg.c **** 			/* address, size */
 730:Generated_Source\PSoC4/cyfitter_cfg.c **** 			{(void CYFAR *)(CYDEV_UDB_P0_U0_BASE), 640u},
 731:Generated_Source\PSoC4/cyfitter_cfg.c **** 			{(void CYFAR *)(CYDEV_UDB_P1_ROUTE_BASE), 256u},
 732:Generated_Source\PSoC4/cyfitter_cfg.c **** 			{(void CYFAR *)(CYDEV_UDB_DSI0_BASE), 1024u},
 733:Generated_Source\PSoC4/cyfitter_cfg.c **** 		};
 734:Generated_Source\PSoC4/cyfitter_cfg.c **** 
 735:Generated_Source\PSoC4/cyfitter_cfg.c **** 		/* UDB_0_0_0_CONFIG Address: CYDEV_UDB_P1_U1_BASE Size (bytes): 128 */
 736:Generated_Source\PSoC4/cyfitter_cfg.c **** 		static const uint8 CYCODE BS_UDB_0_0_0_CONFIG_VAL[] = {
 737:Generated_Source\PSoC4/cyfitter_cfg.c **** 			0xF3u, 0x00u, 0x0Cu, 0x00u, 0x82u, 0x18u, 0x00u, 0x00u, 0x00u, 0x08u, 0xF3u, 0x00u, 0x41u, 0x5Cu
 738:Generated_Source\PSoC4/cyfitter_cfg.c **** 			0x1Cu, 0x7Fu, 0xE3u, 0x00u, 0x00u, 0x00u, 0x00u, 0x04u, 0x0Fu, 0x00u, 0xF0u, 0x00u, 0xFFu, 0x10u
 739:Generated_Source\PSoC4/cyfitter_cfg.c **** 			0x08u, 0x67u, 0x00u, 0x18u, 0x04u, 0x5Cu, 0x00u, 0x21u, 0x0Cu, 0x00u, 0x00u, 0x03u, 0xC3u, 0x04u
 740:Generated_Source\PSoC4/cyfitter_cfg.c **** 			0x0Fu, 0x20u, 0x2Cu, 0x80u, 0xC0u, 0x40u, 0x1Cu, 0x1Fu, 0x00u, 0x02u, 0x0Au, 0x80u, 0x00u, 0x00u
 741:Generated_Source\PSoC4/cyfitter_cfg.c **** 			0x63u, 0x04u, 0x01u, 0x00u, 0x05u, 0x0Eu, 0x00u, 0xC0u, 0x21u, 0xFFu, 0xFFu, 0xFFu, 0x62u, 0xA0u
 742:Generated_Source\PSoC4/cyfitter_cfg.c **** 			0x0Cu, 0x00u, 0x00u, 0x00u, 0x00u, 0x00u, 0x02u, 0x11u, 0x04u, 0x04u, 0x04u, 0x04u, 0x11u, 0x11u
 743:Generated_Source\PSoC4/cyfitter_cfg.c **** 			0x00u, 0x00u, 0x00u, 0x00u, 0x00u, 0x00u, 0x40u, 0x02u, 0x00u, 0x10u, 0x30u, 0x10u, 0x00u, 0x10u
 744:Generated_Source\PSoC4/cyfitter_cfg.c **** 			0x00u, 0x00u, 0x00u, 0x00u, 0x00u, 0x00u, 0x00u, 0x00u, 0x00u, 0x00u, 0x00u, 0x00u, 0x00u, 0x00u
 745:Generated_Source\PSoC4/cyfitter_cfg.c **** 
 746:Generated_Source\PSoC4/cyfitter_cfg.c **** 		static const cfg_memcpy_t CYCODE cfg_memcpy_list [] = {
 747:Generated_Source\PSoC4/cyfitter_cfg.c **** 			/* dest, src, size */
 748:Generated_Source\PSoC4/cyfitter_cfg.c **** 			{(void CYFAR *)(CYDEV_UDB_P1_U1_BASE), BS_UDB_0_0_0_CONFIG_VAL, 128u},
 749:Generated_Source\PSoC4/cyfitter_cfg.c **** 		};
 750:Generated_Source\PSoC4/cyfitter_cfg.c **** 
 751:Generated_Source\PSoC4/cyfitter_cfg.c **** 		uint8 CYDATA i;
 752:Generated_Source\PSoC4/cyfitter_cfg.c **** 
 753:Generated_Source\PSoC4/cyfitter_cfg.c **** 		/* Zero out critical memory blocks before beginning configuration */
 754:Generated_Source\PSoC4/cyfitter_cfg.c **** 		for (i = 0u; i < (sizeof(cfg_memset_list)/sizeof(cfg_memset_list[0])); i++)
 456              		.loc 1 754 0
 457 0122 0024     		movs	r4, #0
 458 0124 0FE0     		b	.L20
 459              	.LVL32:
 460              	.L21:
 461              	.LBB4:
 755:Generated_Source\PSoC4/cyfitter_cfg.c **** 		{
 756:Generated_Source\PSoC4/cyfitter_cfg.c **** 			const cfg_memset_t CYCODE * CYDATA ms = &cfg_memset_list[i];
 757:Generated_Source\PSoC4/cyfitter_cfg.c **** 			CYMEMZERO(ms->address, (size_t)(uint32)(ms->size));
 462              		.loc 1 757 0 discriminator 3
 463 0126 4348     		ldr	r0, .L24+4
 464 0128 6200     		lsls	r2, r4, #1
 465 012a 1319     		adds	r3, r2, r4
 466 012c 5900     		lsls	r1, r3, #1
 467 012e 0B00     		movs	r3, r1
 468 0130 4118     		adds	r1, r0, r1
 469 0132 8988     		ldrh	r1, [r1, #4]
 470 0134 1A5A     		ldrh	r2, [r3, r0]
 471 0136 C318     		adds	r3, r0, r3
 472 0138 5888     		ldrh	r0, [r3, #2]
 473 013a 0004     		lsls	r0, r0, #16
 474 013c 1043     		orrs	r0, r2
 475 013e FFF7FEFF 		bl	CYMEMZERO
 476              	.LVL33:
 477              	.LBE4:
 754:Generated_Source\PSoC4/cyfitter_cfg.c **** 		{
ARM GAS  C:\Users\Jacob\AppData\Local\Temp\ccGuJ9hg.s 			page 23


 478              		.loc 1 754 0 discriminator 3
 479 0142 0134     		adds	r4, r4, #1
 480              	.LVL34:
 481 0144 E4B2     		uxtb	r4, r4
 482              	.LVL35:
 483              	.L20:
 754:Generated_Source\PSoC4/cyfitter_cfg.c **** 		{
 484              		.loc 1 754 0 is_stmt 0 discriminator 1
 485 0146 022C     		cmp	r4, #2
 486 0148 EDD9     		bls	.L21
 487 014a 0024     		movs	r4, #0
 488              	.LVL36:
 489 014c 11E0     		b	.L22
 490              	.LVL37:
 491              	.L23:
 492              	.LBB5:
 758:Generated_Source\PSoC4/cyfitter_cfg.c **** 		}
 759:Generated_Source\PSoC4/cyfitter_cfg.c **** 
 760:Generated_Source\PSoC4/cyfitter_cfg.c **** 		/* Copy device configuration data into registers */
 761:Generated_Source\PSoC4/cyfitter_cfg.c **** 		for (i = 0u; i < (sizeof(cfg_memcpy_list)/sizeof(cfg_memcpy_list[0])); i++)
 762:Generated_Source\PSoC4/cyfitter_cfg.c **** 		{
 763:Generated_Source\PSoC4/cyfitter_cfg.c **** 			const cfg_memcpy_t CYCODE * CYDATA mc = &cfg_memcpy_list[i];
 764:Generated_Source\PSoC4/cyfitter_cfg.c **** 			void * CYDATA destPtr = mc->dest;
 493              		.loc 1 764 0 is_stmt 1 discriminator 3
 494 014e 394E     		ldr	r6, .L24+4
 495 0150 A200     		lsls	r2, r4, #2
 496 0152 1319     		adds	r3, r2, r4
 497 0154 5900     		lsls	r1, r3, #1
 498 0156 7118     		adds	r1, r6, r1
 499 0158 8D8A     		ldrh	r5, [r1, #20]
 500 015a C88A     		ldrh	r0, [r1, #22]
 501 015c 0004     		lsls	r0, r0, #16
 502 015e 2843     		orrs	r0, r5
 503              	.LVL38:
 765:Generated_Source\PSoC4/cyfitter_cfg.c **** 			const void CYCODE * CYDATA srcPtr = mc->src;
 504              		.loc 1 765 0 discriminator 3
 505 0160 0A8B     		ldrh	r2, [r1, #24]
 506 0162 498B     		ldrh	r1, [r1, #26]
 507 0164 0904     		lsls	r1, r1, #16
 508 0166 1143     		orrs	r1, r2
 509              	.LVL39:
 766:Generated_Source\PSoC4/cyfitter_cfg.c **** 			uint16 CYDATA numBytes = mc->size;
 767:Generated_Source\PSoC4/cyfitter_cfg.c **** 			CYCONFIGCPYCODE(destPtr, srcPtr, numBytes);
 510              		.loc 1 767 0 discriminator 3
 511 0168 8022     		movs	r2, #128
 512 016a FFF7FEFF 		bl	CYCONFIGCPYCODE
 513              	.LVL40:
 514              	.LBE5:
 761:Generated_Source\PSoC4/cyfitter_cfg.c **** 		{
 515              		.loc 1 761 0 discriminator 3
 516 016e 0134     		adds	r4, r4, #1
 517              	.LVL41:
 518 0170 E4B2     		uxtb	r4, r4
 519              	.LVL42:
 520              	.L22:
 761:Generated_Source\PSoC4/cyfitter_cfg.c **** 		{
 521              		.loc 1 761 0 is_stmt 0 discriminator 1
ARM GAS  C:\Users\Jacob\AppData\Local\Temp\ccGuJ9hg.s 			page 24


 522 0172 002C     		cmp	r4, #0
 523 0174 EBD0     		beq	.L23
 768:Generated_Source\PSoC4/cyfitter_cfg.c **** 		}
 769:Generated_Source\PSoC4/cyfitter_cfg.c **** 
 770:Generated_Source\PSoC4/cyfitter_cfg.c **** 		cfg_write_bytes32(cy_cfg_addr_table, cy_cfg_data_table);
 524              		.loc 1 770 0 is_stmt 1
 525 0176 2F49     		ldr	r1, .L24+4
 526 0178 2031     		adds	r1, r1, #32
 527 017a 2F48     		ldr	r0, .L24+8
 528 017c 4030     		adds	r0, r0, #64
 529 017e FFF7FEFF 		bl	cfg_write_bytes32
 530              	.LVL43:
 771:Generated_Source\PSoC4/cyfitter_cfg.c **** 
 772:Generated_Source\PSoC4/cyfitter_cfg.c **** 		/* Perform normal device configuration. Order is not critical for these items. */
 773:Generated_Source\PSoC4/cyfitter_cfg.c **** 		CY_SET_REG16((void *)(CYREG_UDB_BCTL0_DRV), 0x0A00u);
 531              		.loc 1 773 0
 532 0182 A022     		movs	r2, #160
 533 0184 1201     		lsls	r2, r2, #4
 534 0186 2D4B     		ldr	r3, .L24+12
 535 0188 1A80     		strh	r2, [r3]
 774:Generated_Source\PSoC4/cyfitter_cfg.c **** 		CY_SET_REG8((void *)(CYREG_UDB_BCTL0_DRV + 0x2u), 0x01u);
 536              		.loc 1 774 0
 537 018a 0122     		movs	r2, #1
 538 018c 2C4B     		ldr	r3, .L24+16
 539 018e 1A70     		strb	r2, [r3]
 775:Generated_Source\PSoC4/cyfitter_cfg.c **** 
 776:Generated_Source\PSoC4/cyfitter_cfg.c **** 		/* HSIOM Starting address: CYDEV_HSIOM_BASE */
 777:Generated_Source\PSoC4/cyfitter_cfg.c **** 		CY_SET_REG32((void *)(CYDEV_HSIOM_BASE), 0xEE000076u);
 540              		.loc 1 777 0
 541 0190 2C4A     		ldr	r2, .L24+20
 542 0192 2D4B     		ldr	r3, .L24+24
 543 0194 1A60     		str	r2, [r3]
 778:Generated_Source\PSoC4/cyfitter_cfg.c **** 		CY_SET_REG32((void *)(CYREG_HSIOM_PORT_SEL1), 0x00000030u);
 544              		.loc 1 778 0
 545 0196 3022     		movs	r2, #48
 546 0198 2C4B     		ldr	r3, .L24+28
 547 019a 1A60     		str	r2, [r3]
 779:Generated_Source\PSoC4/cyfitter_cfg.c **** 		CY_SET_REG32((void *)(CYREG_HSIOM_PORT_SEL3), 0x00000300u);
 548              		.loc 1 779 0
 549 019c C022     		movs	r2, #192
 550 019e 9200     		lsls	r2, r2, #2
 551 01a0 2B4B     		ldr	r3, .L24+32
 552 01a2 1A60     		str	r2, [r3]
 780:Generated_Source\PSoC4/cyfitter_cfg.c **** 
 781:Generated_Source\PSoC4/cyfitter_cfg.c **** 		/* UDB_PA_0 Starting address: CYDEV_UDB_PA0_BASE */
 782:Generated_Source\PSoC4/cyfitter_cfg.c **** 		CY_SET_REG32((void *)(CYDEV_UDB_PA0_BASE), 0x00990000u);
 553              		.loc 1 782 0
 554 01a4 9923     		movs	r3, #153
 555 01a6 1B04     		lsls	r3, r3, #16
 556 01a8 2A4A     		ldr	r2, .L24+36
 557 01aa 1360     		str	r3, [r2]
 783:Generated_Source\PSoC4/cyfitter_cfg.c **** 		CY_SET_REG32((void *)(CYREG_UDB_PA0_CFG8), 0x000A0000u);
 558              		.loc 1 783 0
 559 01ac A021     		movs	r1, #160
 560 01ae 0903     		lsls	r1, r1, #12
 561 01b0 294A     		ldr	r2, .L24+40
 562 01b2 1160     		str	r1, [r2]
ARM GAS  C:\Users\Jacob\AppData\Local\Temp\ccGuJ9hg.s 			page 25


 784:Generated_Source\PSoC4/cyfitter_cfg.c **** 
 785:Generated_Source\PSoC4/cyfitter_cfg.c **** 		/* UDB_PA_1 Starting address: CYDEV_UDB_PA1_BASE */
 786:Generated_Source\PSoC4/cyfitter_cfg.c **** 		CY_SET_REG32((void *)(CYDEV_UDB_PA1_BASE), 0x00990004u);
 563              		.loc 1 786 0
 564 01b4 2949     		ldr	r1, .L24+44
 565 01b6 2A4A     		ldr	r2, .L24+48
 566 01b8 1160     		str	r1, [r2]
 787:Generated_Source\PSoC4/cyfitter_cfg.c **** 		CY_SET_REG32((void *)(CYREG_UDB_PA1_CFG4), 0x00020000u);
 567              		.loc 1 787 0
 568 01ba 8021     		movs	r1, #128
 569 01bc 8902     		lsls	r1, r1, #10
 570 01be 294A     		ldr	r2, .L24+52
 571 01c0 1160     		str	r1, [r2]
 788:Generated_Source\PSoC4/cyfitter_cfg.c **** 		CY_SET_REG32((void *)(CYREG_UDB_PA1_CFG8), 0x00080000u);
 572              		.loc 1 788 0
 573 01c2 8021     		movs	r1, #128
 574 01c4 0903     		lsls	r1, r1, #12
 575 01c6 284A     		ldr	r2, .L24+56
 576 01c8 1160     		str	r1, [r2]
 789:Generated_Source\PSoC4/cyfitter_cfg.c **** 
 790:Generated_Source\PSoC4/cyfitter_cfg.c **** 		/* UDB_PA_2 Starting address: CYDEV_UDB_PA2_BASE */
 791:Generated_Source\PSoC4/cyfitter_cfg.c **** 		CY_SET_REG32((void *)(CYDEV_UDB_PA2_BASE), 0x00990000u);
 577              		.loc 1 791 0
 578 01ca 284A     		ldr	r2, .L24+60
 579 01cc 1360     		str	r3, [r2]
 792:Generated_Source\PSoC4/cyfitter_cfg.c **** 
 793:Generated_Source\PSoC4/cyfitter_cfg.c **** 		/* UDB_PA_3 Starting address: CYDEV_UDB_PA3_BASE */
 794:Generated_Source\PSoC4/cyfitter_cfg.c **** 		CY_SET_REG32((void *)(CYDEV_UDB_PA3_BASE), 0x00990000u);
 580              		.loc 1 794 0
 581 01ce 284A     		ldr	r2, .L24+64
 582 01d0 1360     		str	r3, [r2]
 795:Generated_Source\PSoC4/cyfitter_cfg.c **** 		CY_SET_REG32((void *)(CYREG_UDB_PA3_CFG8), 0x00300000u);
 583              		.loc 1 795 0
 584 01d2 C022     		movs	r2, #192
 585 01d4 9203     		lsls	r2, r2, #14
 586 01d6 274B     		ldr	r3, .L24+68
 587 01d8 1A60     		str	r2, [r3]
 796:Generated_Source\PSoC4/cyfitter_cfg.c **** 
 797:Generated_Source\PSoC4/cyfitter_cfg.c **** 		/* Enable UDB array and digital routing */
 798:Generated_Source\PSoC4/cyfitter_cfg.c **** 		CY_SET_XTND_REG8((void *)CYREG_UDB_UDBIF_WAIT_CFG, (uint8)((CY_GET_XTND_REG8((void *)CYREG_UDB_UD
 588              		.loc 1 798 0
 589 01da 2749     		ldr	r1, .L24+72
 590 01dc 0B78     		ldrb	r3, [r1]
 591 01de 3C22     		movs	r2, #60
 592 01e0 9343     		bics	r3, r2
 593 01e2 1422     		movs	r2, #20
 594 01e4 1343     		orrs	r3, r2
 595 01e6 DBB2     		uxtb	r3, r3
 596 01e8 0B70     		strb	r3, [r1]
 799:Generated_Source\PSoC4/cyfitter_cfg.c **** 		CY_SET_XTND_REG8((void *)CYREG_UDB_UDBIF_BANK_CTL, (uint8)(CY_GET_XTND_REG8((void *)CYREG_UDB_UDB
 597              		.loc 1 799 0
 598 01ea 244A     		ldr	r2, .L24+76
 599 01ec 1178     		ldrb	r1, [r2]
 600 01ee 1623     		movs	r3, #22
 601 01f0 0B43     		orrs	r3, r1
 602 01f2 DBB2     		uxtb	r3, r3
 603 01f4 1370     		strb	r3, [r2]
ARM GAS  C:\Users\Jacob\AppData\Local\Temp\ccGuJ9hg.s 			page 26


 604              	.LBE3:
 800:Generated_Source\PSoC4/cyfitter_cfg.c **** 	}
 801:Generated_Source\PSoC4/cyfitter_cfg.c **** 
 802:Generated_Source\PSoC4/cyfitter_cfg.c **** 	/* Perform second pass device configuration. These items must be configured in specific order afte
 803:Generated_Source\PSoC4/cyfitter_cfg.c **** 	/* IOPINS0_0 Starting address: CYDEV_GPIO_PRT0_BASE */
 804:Generated_Source\PSoC4/cyfitter_cfg.c **** 	CY_SET_REG32((void *)(CYDEV_GPIO_PRT0_BASE), 0x00000003u);
 605              		.loc 1 804 0
 606 01f6 0322     		movs	r2, #3
 607 01f8 214B     		ldr	r3, .L24+80
 608 01fa 1A60     		str	r2, [r3]
 805:Generated_Source\PSoC4/cyfitter_cfg.c **** 	CY_SET_REG32((void *)(CYREG_GPIO_PRT0_PC), 0x00D80000u);
 609              		.loc 1 805 0
 610 01fc D823     		movs	r3, #216
 611 01fe 1B04     		lsls	r3, r3, #16
 612 0200 2049     		ldr	r1, .L24+84
 613 0202 0B60     		str	r3, [r1]
 806:Generated_Source\PSoC4/cyfitter_cfg.c **** 	CY_SET_REG32((void *)(CYREG_GPIO_PRT0_PC2), 0x00000003u);
 614              		.loc 1 806 0
 615 0204 2049     		ldr	r1, .L24+88
 616 0206 0A60     		str	r2, [r1]
 807:Generated_Source\PSoC4/cyfitter_cfg.c **** 
 808:Generated_Source\PSoC4/cyfitter_cfg.c **** 	/* IOPINS0_1 Starting address: CYDEV_GPIO_PRT1_BASE */
 809:Generated_Source\PSoC4/cyfitter_cfg.c **** 	CY_SET_REG32((void *)(CYDEV_GPIO_PRT1_BASE), 0x00000002u);
 617              		.loc 1 809 0
 618 0208 0221     		movs	r1, #2
 619 020a 204A     		ldr	r2, .L24+92
 620 020c 1160     		str	r1, [r2]
 810:Generated_Source\PSoC4/cyfitter_cfg.c **** 	CY_SET_REG32((void *)(CYREG_GPIO_PRT1_PC), 0x00000031u);
 621              		.loc 1 810 0
 622 020e 2F31     		adds	r1, r1, #47
 623 0210 1F4A     		ldr	r2, .L24+96
 624 0212 1160     		str	r1, [r2]
 811:Generated_Source\PSoC4/cyfitter_cfg.c **** 
 812:Generated_Source\PSoC4/cyfitter_cfg.c **** 	/* IOPINS0_2 Starting address: CYDEV_GPIO_PRT2_BASE */
 813:Generated_Source\PSoC4/cyfitter_cfg.c **** 	CY_SET_REG32((void *)(CYREG_GPIO_PRT2_PC), 0x00D80000u);
 625              		.loc 1 813 0
 626 0214 1F4A     		ldr	r2, .L24+100
 627 0216 1360     		str	r3, [r2]
 814:Generated_Source\PSoC4/cyfitter_cfg.c **** 
 815:Generated_Source\PSoC4/cyfitter_cfg.c **** 	/* IOPINS0_3 Starting address: CYDEV_GPIO_PRT3_BASE */
 816:Generated_Source\PSoC4/cyfitter_cfg.c **** 	CY_SET_REG32((void *)(CYDEV_GPIO_PRT3_BASE), 0x00000004u);
 628              		.loc 1 816 0
 629 0218 0422     		movs	r2, #4
 630 021a 1F4B     		ldr	r3, .L24+104
 631 021c 1A60     		str	r2, [r3]
 817:Generated_Source\PSoC4/cyfitter_cfg.c **** 	CY_SET_REG32((void *)(CYREG_GPIO_PRT3_PC), 0x00000180u);
 632              		.loc 1 817 0
 633 021e 7D32     		adds	r2, r2, #125
 634 0220 FF32     		adds	r2, r2, #255
 635 0222 1E4B     		ldr	r3, .L24+108
 636 0224 1A60     		str	r2, [r3]
 818:Generated_Source\PSoC4/cyfitter_cfg.c **** 
 819:Generated_Source\PSoC4/cyfitter_cfg.c **** 
 820:Generated_Source\PSoC4/cyfitter_cfg.c **** 	/* Setup clocks based on selections from Clock DWR */
 821:Generated_Source\PSoC4/cyfitter_cfg.c **** 	ClockSetup();
 637              		.loc 1 821 0
 638 0226 FFF7EBFE 		bl	ClockSetup
ARM GAS  C:\Users\Jacob\AppData\Local\Temp\ccGuJ9hg.s 			page 27


 639              	.LVL44:
 822:Generated_Source\PSoC4/cyfitter_cfg.c **** 
 823:Generated_Source\PSoC4/cyfitter_cfg.c **** 	/* Perform basic analog initialization to defaults */
 824:Generated_Source\PSoC4/cyfitter_cfg.c **** 	AnalogSetDefault();
 640              		.loc 1 824 0
 641 022a FFF7FEFF 		bl	AnalogSetDefault
 642              	.LVL45:
 825:Generated_Source\PSoC4/cyfitter_cfg.c **** 
 826:Generated_Source\PSoC4/cyfitter_cfg.c **** }
 643              		.loc 1 826 0
 644              		@ sp needed
 645              	.LVL46:
 646 022e 70BD     		pop	{r4, r5, r6, pc}
 647              	.L25:
 648              		.align	2
 649              	.L24:
 650 0230 6CF02E40 		.word	1076818028
 651 0234 00000000 		.word	.LANCHOR0
 652 0238 80020000 		.word	.LANCHOR1
 653 023c 00600F40 		.word	1074749440
 654 0240 02600F40 		.word	1074749442
 655 0244 760000EE 		.word	-301989770
 656 0248 00000240 		.word	1073872896
 657 024c 00010240 		.word	1073873152
 658 0250 00030240 		.word	1073873664
 659 0254 00500F40 		.word	1074745344
 660 0258 08500F40 		.word	1074745352
 661 025c 04009900 		.word	10027012
 662 0260 10500F40 		.word	1074745360
 663 0264 14500F40 		.word	1074745364
 664 0268 18500F40 		.word	1074745368
 665 026c 20500F40 		.word	1074745376
 666 0270 30500F40 		.word	1074745392
 667 0274 38500F40 		.word	1074745400
 668 0278 01700F40 		.word	1074753537
 669 027c 00700F40 		.word	1074753536
 670 0280 00000440 		.word	1074003968
 671 0284 08000440 		.word	1074003976
 672 0288 18000440 		.word	1074003992
 673 028c 00010440 		.word	1074004224
 674 0290 08010440 		.word	1074004232
 675 0294 08020440 		.word	1074004488
 676 0298 00030440 		.word	1074004736
 677 029c 08030440 		.word	1074004744
 678              		.cfi_endproc
 679              	.LFE9:
 680              		.size	cyfitter_cfg, .-cyfitter_cfg
 681              		.section	.rodata
 682              		.align	2
 683              		.set	.LANCHOR0,. + 0
 684              		.set	.LANCHOR1,. + 640
 685              		.type	cfg_memset_list.4927, %object
 686              		.size	cfg_memset_list.4927, 18
 687              	cfg_memset_list.4927:
 688 0000 00300F40 		.word	1074737152
 689 0004 8002     		.short	640
 690 0006 00330F40 		.4byte	1074737920
ARM GAS  C:\Users\Jacob\AppData\Local\Temp\ccGuJ9hg.s 			page 28


 691 000a 0001     		.short	256
 692 000c 00400F40 		.word	1074741248
 693 0010 0004     		.short	1024
 694 0012 0000     		.space	2
 695              		.type	cfg_memcpy_list.4929, %object
 696              		.size	cfg_memcpy_list.4929, 10
 697              	cfg_memcpy_list.4929:
 698 0014 80320F40 		.word	1074737792
 699 0018 E4020000 		.word	BS_UDB_0_0_0_CONFIG_VAL.4928
 700 001c 8000     		.short	128
 701 001e 0000     		.space	2
 702              		.type	cy_cfg_data_table.4917, %object
 703              		.size	cy_cfg_data_table.4917, 670
 704              	cy_cfg_data_table.4917:
 705 0020 80       		.byte	-128
 706 0021 38       		.byte	56
 707 0022 81       		.byte	-127
 708 0023 0F       		.byte	15
 709 0024 82       		.byte	-126
 710 0025 0D       		.byte	13
 711 0026 83       		.byte	-125
 712 0027 72       		.byte	114
 713 0028 00       		.byte	0
 714 0029 2C       		.byte	44
 715 002a 01       		.byte	1
 716 002b 01       		.byte	1
 717 002c 02       		.byte	2
 718 002d 03       		.byte	3
 719 002e 03       		.byte	3
 720 002f 0E       		.byte	14
 721 0030 04       		.byte	4
 722 0031 C0       		.byte	-64
 723 0032 05       		.byte	5
 724 0033 27       		.byte	39
 725 0034 09       		.byte	9
 726 0035 27       		.byte	39
 727 0036 0A       		.byte	10
 728 0037 08       		.byte	8
 729 0038 0C       		.byte	12
 730 0039 40       		.byte	64
 731 003a 0D       		.byte	13
 732 003b 20       		.byte	32
 733 003c 0E       		.byte	14
 734 003d 80       		.byte	-128
 735 003e 12       		.byte	18
 736 003f 0C       		.byte	12
 737 0040 13       		.byte	19
 738 0041 40       		.byte	64
 739 0042 14       		.byte	20
 740 0043 80       		.byte	-128
 741 0044 16       		.byte	22
 742 0045 40       		.byte	64
 743 0046 18       		.byte	24
 744 0047 31       		.byte	49
 745 0048 1A       		.byte	26
 746 0049 0E       		.byte	14
 747 004a 1B       		.byte	27
ARM GAS  C:\Users\Jacob\AppData\Local\Temp\ccGuJ9hg.s 			page 29


 748 004b 40       		.byte	64
 749 004c 22       		.byte	34
 750 004d 13       		.byte	19
 751 004e 24       		.byte	36
 752 004f C0       		.byte	-64
 753 0050 25       		.byte	37
 754 0051 04       		.byte	4
 755 0052 27       		.byte	39
 756 0053 11       		.byte	17
 757 0054 28       		.byte	40
 758 0055 31       		.byte	49
 759 0056 2A       		.byte	42
 760 0057 06       		.byte	6
 761 0058 2D       		.byte	45
 762 0059 02       		.byte	2
 763 005a 2F       		.byte	47
 764 005b 11       		.byte	17
 765 005c 31       		.byte	49
 766 005d 07       		.byte	7
 767 005e 32       		.byte	50
 768 005f C0       		.byte	-64
 769 0060 33       		.byte	51
 770 0061 20       		.byte	32
 771 0062 34       		.byte	52
 772 0063 30       		.byte	48
 773 0064 35       		.byte	53
 774 0065 40       		.byte	64
 775 0066 36       		.byte	54
 776 0067 0F       		.byte	15
 777 0068 37       		.byte	55
 778 0069 18       		.byte	24
 779 006a 38       		.byte	56
 780 006b 20       		.byte	32
 781 006c 3A       		.byte	58
 782 006d 80       		.byte	-128
 783 006e 3E       		.byte	62
 784 006f 10       		.byte	16
 785 0070 3F       		.byte	63
 786 0071 50       		.byte	80
 787 0072 40       		.byte	64
 788 0073 02       		.byte	2
 789 0074 47       		.byte	71
 790 0075 04       		.byte	4
 791 0076 49       		.byte	73
 792 0077 FF       		.byte	-1
 793 0078 4A       		.byte	74
 794 0079 07       		.byte	7
 795 007a 4B       		.byte	75
 796 007b FF       		.byte	-1
 797 007c 4C       		.byte	76
 798 007d 40       		.byte	64
 799 007e 4D       		.byte	77
 800 007f 20       		.byte	32
 801 0080 4E       		.byte	78
 802 0081 F0       		.byte	-16
 803 0082 4F       		.byte	79
 804 0083 05       		.byte	5
ARM GAS  C:\Users\Jacob\AppData\Local\Temp\ccGuJ9hg.s 			page 30


 805 0084 50       		.byte	80
 806 0085 08       		.byte	8
 807 0086 54       		.byte	84
 808 0087 18       		.byte	24
 809 0088 58       		.byte	88
 810 0089 04       		.byte	4
 811 008a 59       		.byte	89
 812 008b 04       		.byte	4
 813 008c 5A       		.byte	90
 814 008d 04       		.byte	4
 815 008e 5B       		.byte	91
 816 008f 04       		.byte	4
 817 0090 5C       		.byte	92
 818 0091 11       		.byte	17
 819 0092 5D       		.byte	93
 820 0093 11       		.byte	17
 821 0094 5F       		.byte	95
 822 0095 01       		.byte	1
 823 0096 60       		.byte	96
 824 0097 40       		.byte	64
 825 0098 61       		.byte	97
 826 0099 A8       		.byte	-88
 827 009a 62       		.byte	98
 828 009b 40       		.byte	64
 829 009c 63       		.byte	99
 830 009d 20       		.byte	32
 831 009e 80       		.byte	-128
 832 009f 09       		.byte	9
 833 00a0 81       		.byte	-127
 834 00a1 80       		.byte	-128
 835 00a2 82       		.byte	-126
 836 00a3 D0       		.byte	-48
 837 00a4 84       		.byte	-124
 838 00a5 10       		.byte	16
 839 00a6 86       		.byte	-122
 840 00a7 AC       		.byte	-84
 841 00a8 88       		.byte	-120
 842 00a9 0C       		.byte	12
 843 00aa 89       		.byte	-119
 844 00ab 03       		.byte	3
 845 00ac 8A       		.byte	-118
 846 00ad 71       		.byte	113
 847 00ae 8B       		.byte	-117
 848 00af 44       		.byte	68
 849 00b0 8C       		.byte	-116
 850 00b1 DC       		.byte	-36
 851 00b2 8E       		.byte	-114
 852 00b3 22       		.byte	34
 853 00b4 93       		.byte	-109
 854 00b5 08       		.byte	8
 855 00b6 95       		.byte	-107
 856 00b7 53       		.byte	83
 857 00b8 96       		.byte	-106
 858 00b9 03       		.byte	3
 859 00ba 97       		.byte	-105
 860 00bb 0C       		.byte	12
 861 00bc 98       		.byte	-104
ARM GAS  C:\Users\Jacob\AppData\Local\Temp\ccGuJ9hg.s 			page 31


 862 00bd 14       		.byte	20
 863 00be A1       		.byte	-95
 864 00bf 20       		.byte	32
 865 00c0 A2       		.byte	-94
 866 00c1 20       		.byte	32
 867 00c2 A3       		.byte	-93
 868 00c3 45       		.byte	69
 869 00c4 A5       		.byte	-91
 870 00c5 53       		.byte	83
 871 00c6 A7       		.byte	-89
 872 00c7 04       		.byte	4
 873 00c8 A8       		.byte	-88
 874 00c9 10       		.byte	16
 875 00ca AA       		.byte	-86
 876 00cb 40       		.byte	64
 877 00cc AD       		.byte	-83
 878 00cd 0A       		.byte	10
 879 00ce AF       		.byte	-81
 880 00cf 54       		.byte	84
 881 00d0 B1       		.byte	-79
 882 00d1 40       		.byte	64
 883 00d2 B2       		.byte	-78
 884 00d3 1F       		.byte	31
 885 00d4 B3       		.byte	-77
 886 00d5 0F       		.byte	15
 887 00d6 B4       		.byte	-76
 888 00d7 E0       		.byte	-32
 889 00d8 B5       		.byte	-75
 890 00d9 80       		.byte	-128
 891 00da B7       		.byte	-73
 892 00db 30       		.byte	48
 893 00dc B9       		.byte	-71
 894 00dd 80       		.byte	-128
 895 00de BA       		.byte	-70
 896 00df 22       		.byte	34
 897 00e0 BB       		.byte	-69
 898 00e1 08       		.byte	8
 899 00e2 BF       		.byte	-65
 900 00e3 11       		.byte	17
 901 00e4 C0       		.byte	-64
 902 00e5 64       		.byte	100
 903 00e6 C1       		.byte	-63
 904 00e7 02       		.byte	2
 905 00e8 C5       		.byte	-59
 906 00e9 0B       		.byte	11
 907 00ea C6       		.byte	-58
 908 00eb C0       		.byte	-64
 909 00ec C7       		.byte	-57
 910 00ed E0       		.byte	-32
 911 00ee C8       		.byte	-56
 912 00ef 29       		.byte	41
 913 00f0 C9       		.byte	-55
 914 00f1 FF       		.byte	-1
 915 00f2 CA       		.byte	-54
 916 00f3 FF       		.byte	-1
 917 00f4 CB       		.byte	-53
 918 00f5 FF       		.byte	-1
ARM GAS  C:\Users\Jacob\AppData\Local\Temp\ccGuJ9hg.s 			page 32


 919 00f6 CE       		.byte	-50
 920 00f7 F0       		.byte	-16
 921 00f8 CF       		.byte	-49
 922 00f9 44       		.byte	68
 923 00fa D0       		.byte	-48
 924 00fb 0C       		.byte	12
 925 00fc D4       		.byte	-44
 926 00fd 01       		.byte	1
 927 00fe D8       		.byte	-40
 928 00ff 04       		.byte	4
 929 0100 D9       		.byte	-39
 930 0101 04       		.byte	4
 931 0102 DA       		.byte	-38
 932 0103 04       		.byte	4
 933 0104 DB       		.byte	-37
 934 0105 04       		.byte	4
 935 0106 DC       		.byte	-36
 936 0107 11       		.byte	17
 937 0108 DD       		.byte	-35
 938 0109 11       		.byte	17
 939 010a DF       		.byte	-33
 940 010b 01       		.byte	1
 941 010c E6       		.byte	-26
 942 010d C0       		.byte	-64
 943 010e EA       		.byte	-22
 944 010f 40       		.byte	64
 945 0110 EB       		.byte	-21
 946 0111 02       		.byte	2
 947 0112 00       		.byte	0
 948 0113 80       		.byte	-128
 949 0114 02       		.byte	2
 950 0115 14       		.byte	20
 951 0116 03       		.byte	3
 952 0117 80       		.byte	-128
 953 0118 04       		.byte	4
 954 0119 02       		.byte	2
 955 011a 05       		.byte	5
 956 011b 90       		.byte	-112
 957 011c 07       		.byte	7
 958 011d 10       		.byte	16
 959 011e 08       		.byte	8
 960 011f 01       		.byte	1
 961 0120 09       		.byte	9
 962 0121 20       		.byte	32
 963 0122 0A       		.byte	10
 964 0123 20       		.byte	32
 965 0124 0E       		.byte	14
 966 0125 10       		.byte	16
 967 0126 0F       		.byte	15
 968 0127 08       		.byte	8
 969 0128 10       		.byte	16
 970 0129 80       		.byte	-128
 971 012a 11       		.byte	17
 972 012b 04       		.byte	4
 973 012c 12       		.byte	18
 974 012d 08       		.byte	8
 975 012e 14       		.byte	20
ARM GAS  C:\Users\Jacob\AppData\Local\Temp\ccGuJ9hg.s 			page 33


 976 012f 40       		.byte	64
 977 0130 16       		.byte	22
 978 0131 04       		.byte	4
 979 0132 19       		.byte	25
 980 0133 8C       		.byte	-116
 981 0134 1A       		.byte	26
 982 0135 24       		.byte	36
 983 0136 1B       		.byte	27
 984 0137 80       		.byte	-128
 985 0138 1D       		.byte	29
 986 0139 30       		.byte	48
 987 013a 1E       		.byte	30
 988 013b 10       		.byte	16
 989 013c 1F       		.byte	31
 990 013d 12       		.byte	18
 991 013e 20       		.byte	32
 992 013f 06       		.byte	6
 993 0140 21       		.byte	33
 994 0141 05       		.byte	5
 995 0142 23       		.byte	35
 996 0143 40       		.byte	64
 997 0144 24       		.byte	36
 998 0145 42       		.byte	66
 999 0146 26       		.byte	38
 1000 0147 08       		.byte	8
 1001 0148 27       		.byte	39
 1002 0149 19       		.byte	25
 1003 014a 29       		.byte	41
 1004 014b 04       		.byte	4
 1005 014c 2A       		.byte	42
 1006 014d 80       		.byte	-128
 1007 014e 2C       		.byte	44
 1008 014f C0       		.byte	-64
 1009 0150 2D       		.byte	45
 1010 0151 80       		.byte	-128
 1011 0152 2F       		.byte	47
 1012 0153 10       		.byte	16
 1013 0154 32       		.byte	50
 1014 0155 21       		.byte	33
 1015 0156 34       		.byte	52
 1016 0157 01       		.byte	1
 1017 0158 36       		.byte	54
 1018 0159 08       		.byte	8
 1019 015a 37       		.byte	55
 1020 015b 01       		.byte	1
 1021 015c 39       		.byte	57
 1022 015d 66       		.byte	102
 1023 015e 3A       		.byte	58
 1024 015f 10       		.byte	16
 1025 0160 3D       		.byte	61
 1026 0161 11       		.byte	17
 1027 0162 3F       		.byte	63
 1028 0163 22       		.byte	34
 1029 0164 42       		.byte	66
 1030 0165 04       		.byte	4
 1031 0166 44       		.byte	68
 1032 0167 40       		.byte	64
ARM GAS  C:\Users\Jacob\AppData\Local\Temp\ccGuJ9hg.s 			page 34


 1033 0168 45       		.byte	69
 1034 0169 20       		.byte	32
 1035 016a 48       		.byte	72
 1036 016b 80       		.byte	-128
 1037 016c 4E       		.byte	78
 1038 016d 08       		.byte	8
 1039 016e 4F       		.byte	79
 1040 016f 08       		.byte	8
 1041 0170 52       		.byte	82
 1042 0171 04       		.byte	4
 1043 0172 57       		.byte	87
 1044 0173 11       		.byte	17
 1045 0174 5B       		.byte	91
 1046 0175 02       		.byte	2
 1047 0176 5C       		.byte	92
 1048 0177 40       		.byte	64
 1049 0178 5D       		.byte	93
 1050 0179 11       		.byte	17
 1051 017a 5F       		.byte	95
 1052 017b 08       		.byte	8
 1053 017c 60       		.byte	96
 1054 017d 04       		.byte	4
 1055 017e 62       		.byte	98
 1056 017f 80       		.byte	-128
 1057 0180 C0       		.byte	-64
 1058 0181 FF       		.byte	-1
 1059 0182 C2       		.byte	-62
 1060 0183 6E       		.byte	110
 1061 0184 C4       		.byte	-60
 1062 0185 5E       		.byte	94
 1063 0186 CA       		.byte	-54
 1064 0187 DA       		.byte	-38
 1065 0188 CC       		.byte	-52
 1066 0189 C5       		.byte	-59
 1067 018a CE       		.byte	-50
 1068 018b AF       		.byte	-81
 1069 018c D0       		.byte	-48
 1070 018d A4       		.byte	-92
 1071 018e D2       		.byte	-46
 1072 018f 20       		.byte	32
 1073 0190 D6       		.byte	-42
 1074 0191 F1       		.byte	-15
 1075 0192 D8       		.byte	-40
 1076 0193 0C       		.byte	12
 1077 0194 03       		.byte	3
 1078 0195 02       		.byte	2
 1079 0196 09       		.byte	9
 1080 0197 04       		.byte	4
 1081 0198 0F       		.byte	15
 1082 0199 01       		.byte	1
 1083 019a 13       		.byte	19
 1084 019b 02       		.byte	2
 1085 019c 14       		.byte	20
 1086 019d 04       		.byte	4
 1087 019e 1A       		.byte	26
 1088 019f 07       		.byte	7
 1089 01a0 1E       		.byte	30
ARM GAS  C:\Users\Jacob\AppData\Local\Temp\ccGuJ9hg.s 			page 35


 1090 01a1 01       		.byte	1
 1091 01a2 23       		.byte	35
 1092 01a3 01       		.byte	1
 1093 01a4 2E       		.byte	46
 1094 01a5 08       		.byte	8
 1095 01a6 30       		.byte	48
 1096 01a7 04       		.byte	4
 1097 01a8 31       		.byte	49
 1098 01a9 08       		.byte	8
 1099 01aa 32       		.byte	50
 1100 01ab 02       		.byte	2
 1101 01ac 33       		.byte	51
 1102 01ad 04       		.byte	4
 1103 01ae 34       		.byte	52
 1104 01af 01       		.byte	1
 1105 01b0 35       		.byte	53
 1106 01b1 01       		.byte	1
 1107 01b2 36       		.byte	54
 1108 01b3 08       		.byte	8
 1109 01b4 37       		.byte	55
 1110 01b5 02       		.byte	2
 1111 01b6 3F       		.byte	63
 1112 01b7 55       		.byte	85
 1113 01b8 40       		.byte	64
 1114 01b9 10       		.byte	16
 1115 01ba 41       		.byte	65
 1116 01bb 05       		.byte	5
 1117 01bc 45       		.byte	69
 1118 01bd D1       		.byte	-47
 1119 01be 46       		.byte	70
 1120 01bf 02       		.byte	2
 1121 01c0 48       		.byte	72
 1122 01c1 07       		.byte	7
 1123 01c2 49       		.byte	73
 1124 01c3 FF       		.byte	-1
 1125 01c4 4A       		.byte	74
 1126 01c5 FF       		.byte	-1
 1127 01c6 4B       		.byte	75
 1128 01c7 FF       		.byte	-1
 1129 01c8 4D       		.byte	77
 1130 01c9 A0       		.byte	-96
 1131 01ca 4F       		.byte	79
 1132 01cb 04       		.byte	4
 1133 01cc 50       		.byte	80
 1134 01cd 18       		.byte	24
 1135 01ce 52       		.byte	82
 1136 01cf 80       		.byte	-128
 1137 01d0 54       		.byte	84
 1138 01d1 05       		.byte	5
 1139 01d2 58       		.byte	88
 1140 01d3 04       		.byte	4
 1141 01d4 59       		.byte	89
 1142 01d5 04       		.byte	4
 1143 01d6 5A       		.byte	90
 1144 01d7 04       		.byte	4
 1145 01d8 5B       		.byte	91
 1146 01d9 04       		.byte	4
ARM GAS  C:\Users\Jacob\AppData\Local\Temp\ccGuJ9hg.s 			page 36


 1147 01da 5C       		.byte	92
 1148 01db 03       		.byte	3
 1149 01dc 5D       		.byte	93
 1150 01dd 33       		.byte	51
 1151 01de 5F       		.byte	95
 1152 01df 01       		.byte	1
 1153 01e0 60       		.byte	96
 1154 01e1 40       		.byte	64
 1155 01e2 62       		.byte	98
 1156 01e3 C0       		.byte	-64
 1157 01e4 64       		.byte	100
 1158 01e5 40       		.byte	64
 1159 01e6 65       		.byte	101
 1160 01e7 40       		.byte	64
 1161 01e8 66       		.byte	102
 1162 01e9 C0       		.byte	-64
 1163 01ea 68       		.byte	104
 1164 01eb C0       		.byte	-64
 1165 01ec 6A       		.byte	106
 1166 01ed C0       		.byte	-64
 1167 01ee 6C       		.byte	108
 1168 01ef C0       		.byte	-64
 1169 01f0 6E       		.byte	110
 1170 01f1 C0       		.byte	-64
 1171 01f2 00       		.byte	0
 1172 01f3 80       		.byte	-128
 1173 01f4 01       		.byte	1
 1174 01f5 0A       		.byte	10
 1175 01f6 03       		.byte	3
 1176 01f7 08       		.byte	8
 1177 01f8 08       		.byte	8
 1178 01f9 90       		.byte	-112
 1179 01fa 0A       		.byte	10
 1180 01fb 80       		.byte	-128
 1181 01fc 0D       		.byte	13
 1182 01fd 80       		.byte	-128
 1183 01fe 0E       		.byte	14
 1184 01ff 20       		.byte	32
 1185 0200 0F       		.byte	15
 1186 0201 08       		.byte	8
 1187 0202 10       		.byte	16
 1188 0203 80       		.byte	-128
 1189 0204 13       		.byte	19
 1190 0205 54       		.byte	84
 1191 0206 17       		.byte	23
 1192 0207 80       		.byte	-128
 1193 0208 19       		.byte	25
 1194 0209 06       		.byte	6
 1195 020a 1A       		.byte	26
 1196 020b 01       		.byte	1
 1197 020c 1B       		.byte	27
 1198 020d 10       		.byte	16
 1199 020e 1C       		.byte	28
 1200 020f 44       		.byte	68
 1201 0210 1D       		.byte	29
 1202 0211 80       		.byte	-128
 1203 0212 1E       		.byte	30
ARM GAS  C:\Users\Jacob\AppData\Local\Temp\ccGuJ9hg.s 			page 37


 1204 0213 20       		.byte	32
 1205 0214 1F       		.byte	31
 1206 0215 40       		.byte	64
 1207 0216 21       		.byte	33
 1208 0217 40       		.byte	64
 1209 0218 22       		.byte	34
 1210 0219 55       		.byte	85
 1211 021a 26       		.byte	38
 1212 021b 88       		.byte	-120
 1213 021c 27       		.byte	39
 1214 021d 48       		.byte	72
 1215 021e 28       		.byte	40
 1216 021f 10       		.byte	16
 1217 0220 29       		.byte	41
 1218 0221 06       		.byte	6
 1219 0222 2A       		.byte	42
 1220 0223 80       		.byte	-128
 1221 0224 2B       		.byte	43
 1222 0225 08       		.byte	8
 1223 0226 2F       		.byte	47
 1224 0227 40       		.byte	64
 1225 0228 30       		.byte	48
 1226 0229 80       		.byte	-128
 1227 022a 32       		.byte	50
 1228 022b 04       		.byte	4
 1229 022c 33       		.byte	51
 1230 022d 02       		.byte	2
 1231 022e 36       		.byte	54
 1232 022f 02       		.byte	2
 1233 0230 38       		.byte	56
 1234 0231 28       		.byte	40
 1235 0232 39       		.byte	57
 1236 0233 80       		.byte	-128
 1237 0234 3E       		.byte	62
 1238 0235 11       		.byte	17
 1239 0236 3F       		.byte	63
 1240 0237 80       		.byte	-128
 1241 0238 40       		.byte	64
 1242 0239 80       		.byte	-128
 1243 023a 41       		.byte	65
 1244 023b 04       		.byte	4
 1245 023c 42       		.byte	66
 1246 023d 01       		.byte	1
 1247 023e 43       		.byte	67
 1248 023f 0A       		.byte	10
 1249 0240 45       		.byte	69
 1250 0241 80       		.byte	-128
 1251 0242 48       		.byte	72
 1252 0243 01       		.byte	1
 1253 0244 4A       		.byte	74
 1254 0245 24       		.byte	36
 1255 0246 4D       		.byte	77
 1256 0247 01       		.byte	1
 1257 0248 4F       		.byte	79
 1258 0249 88       		.byte	-120
 1259 024a 52       		.byte	82
 1260 024b 02       		.byte	2
ARM GAS  C:\Users\Jacob\AppData\Local\Temp\ccGuJ9hg.s 			page 38


 1261 024c 57       		.byte	87
 1262 024d 40       		.byte	64
 1263 024e 5A       		.byte	90
 1264 024f 20       		.byte	32
 1265 0250 5C       		.byte	92
 1266 0251 40       		.byte	64
 1267 0252 5D       		.byte	93
 1268 0253 01       		.byte	1
 1269 0254 5F       		.byte	95
 1270 0255 08       		.byte	8
 1271 0256 69       		.byte	105
 1272 0257 64       		.byte	100
 1273 0258 70       		.byte	112
 1274 0259 94       		.byte	-108
 1275 025a 73       		.byte	115
 1276 025b 14       		.byte	20
 1277 025c 77       		.byte	119
 1278 025d 80       		.byte	-128
 1279 025e 83       		.byte	-125
 1280 025f 12       		.byte	18
 1281 0260 84       		.byte	-124
 1282 0261 40       		.byte	64
 1283 0262 86       		.byte	-122
 1284 0263 80       		.byte	-128
 1285 0264 8A       		.byte	-118
 1286 0265 08       		.byte	8
 1287 0266 8C       		.byte	-116
 1288 0267 04       		.byte	4
 1289 0268 8D       		.byte	-115
 1290 0269 02       		.byte	2
 1291 026a 8E       		.byte	-114
 1292 026b 04       		.byte	4
 1293 026c 8F       		.byte	-113
 1294 026d 40       		.byte	64
 1295 026e 91       		.byte	-111
 1296 026f 08       		.byte	8
 1297 0270 92       		.byte	-110
 1298 0271 10       		.byte	16
 1299 0272 93       		.byte	-109
 1300 0273 40       		.byte	64
 1301 0274 95       		.byte	-107
 1302 0275 64       		.byte	100
 1303 0276 96       		.byte	-106
 1304 0277 02       		.byte	2
 1305 0278 99       		.byte	-103
 1306 0279 08       		.byte	8
 1307 027a 9E       		.byte	-98
 1308 027b 80       		.byte	-128
 1309 027c 9F       		.byte	-97
 1310 027d 02       		.byte	2
 1311 027e A0       		.byte	-96
 1312 027f 01       		.byte	1
 1313 0280 A3       		.byte	-93
 1314 0281 02       		.byte	2
 1315 0282 A4       		.byte	-92
 1316 0283 40       		.byte	64
 1317 0284 A6       		.byte	-90
ARM GAS  C:\Users\Jacob\AppData\Local\Temp\ccGuJ9hg.s 			page 39


 1318 0285 A0       		.byte	-96
 1319 0286 C0       		.byte	-64
 1320 0287 0F       		.byte	15
 1321 0288 C2       		.byte	-62
 1322 0289 EB       		.byte	-21
 1323 028a C4       		.byte	-60
 1324 028b 8F       		.byte	-113
 1325 028c CA       		.byte	-54
 1326 028d 8F       		.byte	-113
 1327 028e CC       		.byte	-52
 1328 028f 8B       		.byte	-117
 1329 0290 CE       		.byte	-50
 1330 0291 BE       		.byte	-66
 1331 0292 D0       		.byte	-48
 1332 0293 1B       		.byte	27
 1333 0294 D2       		.byte	-46
 1334 0295 1C       		.byte	28
 1335 0296 D6       		.byte	-42
 1336 0297 D4       		.byte	-44
 1337 0298 E2       		.byte	-30
 1338 0299 10       		.byte	16
 1339 029a E6       		.byte	-26
 1340 029b 80       		.byte	-128
 1341 029c 5A       		.byte	90
 1342 029d 80       		.byte	-128
 1343 029e D4       		.byte	-44
 1344 029f 80       		.byte	-128
 1345 02a0 02       		.byte	2
 1346 02a1 10       		.byte	16
 1347 02a2 50       		.byte	80
 1348 02a3 02       		.byte	2
 1349 02a4 86       		.byte	-122
 1350 02a5 10       		.byte	16
 1351 02a6 88       		.byte	-120
 1352 02a7 02       		.byte	2
 1353 02a8 8E       		.byte	-114
 1354 02a9 40       		.byte	64
 1355 02aa 96       		.byte	-106
 1356 02ab 80       		.byte	-128
 1357 02ac C0       		.byte	-64
 1358 02ad 10       		.byte	16
 1359 02ae D4       		.byte	-44
 1360 02af 80       		.byte	-128
 1361 02b0 E0       		.byte	-32
 1362 02b1 40       		.byte	64
 1363 02b2 54       		.byte	84
 1364 02b3 02       		.byte	2
 1365 02b4 8C       		.byte	-116
 1366 02b5 02       		.byte	2
 1367 02b6 D6       		.byte	-42
 1368 02b7 04       		.byte	4
 1369 02b8 E4       		.byte	-28
 1370 02b9 02       		.byte	2
 1371 02ba 10       		.byte	16
 1372 02bb 0A       		.byte	10
 1373 02bc 11       		.byte	17
 1374 02bd 01       		.byte	1
ARM GAS  C:\Users\Jacob\AppData\Local\Temp\ccGuJ9hg.s 			page 40


 1375 02be 0000     		.space	2
 1376              		.type	cy_cfg_addr_table.4916, %object
 1377              		.size	cy_cfg_addr_table.4916, 36
 1378              	cy_cfg_addr_table.4916:
 1379 02c0 04000F40 		.word	1074724868
 1380 02c4 75300F40 		.word	1074737269
 1381 02c8 41310F40 		.word	1074737473
 1382 02cc 2F320F40 		.word	1074737711
 1383 02d0 55330F40 		.word	1074738005
 1384 02d4 02400F40 		.word	1074741250
 1385 02d8 09410F40 		.word	1074741513
 1386 02dc 04430F40 		.word	1074742020
 1387 02e0 02600F40 		.word	1074749442
 1388              		.type	BS_UDB_0_0_0_CONFIG_VAL.4928, %object
 1389              		.size	BS_UDB_0_0_0_CONFIG_VAL.4928, 128
 1390              	BS_UDB_0_0_0_CONFIG_VAL.4928:
 1391 02e4 F3       		.byte	-13
 1392 02e5 00       		.byte	0
 1393 02e6 0C       		.byte	12
 1394 02e7 00       		.byte	0
 1395 02e8 82       		.byte	-126
 1396 02e9 18       		.byte	24
 1397 02ea 00       		.byte	0
 1398 02eb 00       		.byte	0
 1399 02ec 00       		.byte	0
 1400 02ed 08       		.byte	8
 1401 02ee F3       		.byte	-13
 1402 02ef 00       		.byte	0
 1403 02f0 41       		.byte	65
 1404 02f1 5C       		.byte	92
 1405 02f2 00       		.byte	0
 1406 02f3 22       		.byte	34
 1407 02f4 1C       		.byte	28
 1408 02f5 7F       		.byte	127
 1409 02f6 E3       		.byte	-29
 1410 02f7 00       		.byte	0
 1411 02f8 00       		.byte	0
 1412 02f9 00       		.byte	0
 1413 02fa 00       		.byte	0
 1414 02fb 04       		.byte	4
 1415 02fc 0F       		.byte	15
 1416 02fd 00       		.byte	0
 1417 02fe F0       		.byte	-16
 1418 02ff 00       		.byte	0
 1419 0300 FF       		.byte	-1
 1420 0301 10       		.byte	16
 1421 0302 00       		.byte	0
 1422 0303 00       		.byte	0
 1423 0304 08       		.byte	8
 1424 0305 67       		.byte	103
 1425 0306 00       		.byte	0
 1426 0307 18       		.byte	24
 1427 0308 04       		.byte	4
 1428 0309 5C       		.byte	92
 1429 030a 00       		.byte	0
 1430 030b 21       		.byte	33
 1431 030c 0C       		.byte	12
ARM GAS  C:\Users\Jacob\AppData\Local\Temp\ccGuJ9hg.s 			page 41


 1432 030d 00       		.byte	0
 1433 030e 00       		.byte	0
 1434 030f 03       		.byte	3
 1435 0310 C3       		.byte	-61
 1436 0311 04       		.byte	4
 1437 0312 00       		.byte	0
 1438 0313 80       		.byte	-128
 1439 0314 0F       		.byte	15
 1440 0315 20       		.byte	32
 1441 0316 2C       		.byte	44
 1442 0317 80       		.byte	-128
 1443 0318 C0       		.byte	-64
 1444 0319 40       		.byte	64
 1445 031a 1C       		.byte	28
 1446 031b 1F       		.byte	31
 1447 031c 00       		.byte	0
 1448 031d 02       		.byte	2
 1449 031e 0A       		.byte	10
 1450 031f 80       		.byte	-128
 1451 0320 00       		.byte	0
 1452 0321 00       		.byte	0
 1453 0322 00       		.byte	0
 1454 0323 10       		.byte	16
 1455 0324 63       		.byte	99
 1456 0325 04       		.byte	4
 1457 0326 01       		.byte	1
 1458 0327 00       		.byte	0
 1459 0328 05       		.byte	5
 1460 0329 0E       		.byte	14
 1461 032a 00       		.byte	0
 1462 032b C0       		.byte	-64
 1463 032c 21       		.byte	33
 1464 032d FF       		.byte	-1
 1465 032e FF       		.byte	-1
 1466 032f FF       		.byte	-1
 1467 0330 62       		.byte	98
 1468 0331 A0       		.byte	-96
 1469 0332 F0       		.byte	-16
 1470 0333 41       		.byte	65
 1471 0334 0C       		.byte	12
 1472 0335 00       		.byte	0
 1473 0336 00       		.byte	0
 1474 0337 00       		.byte	0
 1475 0338 00       		.byte	0
 1476 0339 00       		.byte	0
 1477 033a 02       		.byte	2
 1478 033b 11       		.byte	17
 1479 033c 04       		.byte	4
 1480 033d 04       		.byte	4
 1481 033e 04       		.byte	4
 1482 033f 04       		.byte	4
 1483 0340 11       		.byte	17
 1484 0341 11       		.byte	17
 1485 0342 00       		.byte	0
 1486 0343 01       		.byte	1
 1487 0344 00       		.byte	0
 1488 0345 00       		.byte	0
ARM GAS  C:\Users\Jacob\AppData\Local\Temp\ccGuJ9hg.s 			page 42


 1489 0346 00       		.byte	0
 1490 0347 00       		.byte	0
 1491 0348 00       		.byte	0
 1492 0349 00       		.byte	0
 1493 034a 40       		.byte	64
 1494 034b 02       		.byte	2
 1495 034c 00       		.byte	0
 1496 034d 10       		.byte	16
 1497 034e 30       		.byte	48
 1498 034f 10       		.byte	16
 1499 0350 00       		.byte	0
 1500 0351 10       		.byte	16
 1501 0352 10       		.byte	16
 1502 0353 12       		.byte	18
 1503 0354 00       		.byte	0
 1504 0355 00       		.byte	0
 1505 0356 00       		.byte	0
 1506 0357 00       		.byte	0
 1507 0358 00       		.byte	0
 1508 0359 00       		.byte	0
 1509 035a 00       		.byte	0
 1510 035b 00       		.byte	0
 1511 035c 00       		.byte	0
 1512 035d 00       		.byte	0
 1513 035e 00       		.byte	0
 1514 035f 00       		.byte	0
 1515 0360 00       		.byte	0
 1516 0361 00       		.byte	0
 1517 0362 00       		.byte	0
 1518 0363 00       		.byte	0
 1519              		.text
 1520              	.Letext0:
 1521              		.file 2 "c:\\program files (x86)\\cypress\\psoc creator\\4.1\\psoc creator\\import\\gnu\\arm\\5.4.
 1522              		.file 3 "Generated_Source\\PSoC4\\cytypes.h"
 1523              		.file 4 "Generated_Source\\PSoC4\\CyLFClk.h"
 1524              		.file 5 "Generated_Source\\PSoC4\\CyLib.h"