ARM GAS  C:\Users\Jacob\AppData\Local\Temp\cc5xZwnv.s 			page 1


   1              		.syntax unified
   2              		.cpu cortex-m0
   3              		.fpu softvfp
   4              		.eabi_attribute 20, 1
   5              		.eabi_attribute 21, 1
   6              		.eabi_attribute 23, 3
   7              		.eabi_attribute 24, 1
   8              		.eabi_attribute 25, 1
   9              		.eabi_attribute 26, 1
  10              		.eabi_attribute 30, 1
  11              		.eabi_attribute 34, 0
  12              		.eabi_attribute 18, 4
  13              		.thumb
  14              		.syntax unified
  15              		.file	"main.c"
  16              		.text
  17              	.Ltext0:
  18              		.cfi_sections	.debug_frame
  19              		.section	.text.testFlex,"ax",%progbits
  20              		.align	2
  21              		.global	testFlex
  22              		.code	16
  23              		.thumb_func
  24              		.type	testFlex, %function
  25              	testFlex:
  26              	.LFB36:
  27              		.file 1 "main.c"
   1:main.c        **** /* ========================================
   2:main.c        ****  *
   3:main.c        ****  * Copyright YOUR COMPANY, THE YEAR
   4:main.c        ****  * All Rights Reserved
   5:main.c        ****  * UNPUBLISHED, LICENSED SOFTWARE.
   6:main.c        ****  *
   7:main.c        ****  * CONFIDENTIAL AND PROPRIETARY INFORMATION
   8:main.c        ****  * WHICH IS THE PROPERTY OF your company.
   9:main.c        ****  *
  10:main.c        ****  * ========================================
  11:main.c        **** */
  12:main.c        **** #include "project.h"
  13:main.c        **** #include <stdio.h>
  14:main.c        **** #include <stdlib.h>
  15:main.c        **** 
  16:main.c        **** void testFlex(){
  28              		.loc 1 16 0
  29              		.cfi_startproc
  30              		@ args = 0, pretend = 0, frame = 48
  31              		@ frame_needed = 0, uses_anonymous_args = 0
  32 0000 30B5     		push	{r4, r5, lr}
  33              		.cfi_def_cfa_offset 12
  34              		.cfi_offset 4, -12
  35              		.cfi_offset 5, -8
  36              		.cfi_offset 14, -4
  37 0002 8DB0     		sub	sp, sp, #52
  38              		.cfi_def_cfa_offset 64
  17:main.c        ****     int analog1, analog2;
  18:main.c        ****     char buffer[] = "Flex Sensor 1: 2016\n Flex Sensor 2: 2017";
  39              		.loc 1 18 0
ARM GAS  C:\Users\Jacob\AppData\Local\Temp\cc5xZwnv.s 			page 2


  40 0004 01A9     		add	r1, sp, #4
  41 0006 1648     		ldr	r0, .L4
  42 0008 0B00     		movs	r3, r1
  43 000a 0200     		movs	r2, r0
  44 000c 13CA     		ldmia	r2!, {r0, r1, r4}
  45 000e 13C3     		stmia	r3!, {r0, r1, r4}
  46 0010 13CA     		ldmia	r2!, {r0, r1, r4}
  47 0012 13C3     		stmia	r3!, {r0, r1, r4}
  48 0014 13CA     		ldmia	r2!, {r0, r1, r4}
  49 0016 13C3     		stmia	r3!, {r0, r1, r4}
  50 0018 1168     		ldr	r1, [r2]
  51 001a 1960     		str	r1, [r3]
  52 001c 1279     		ldrb	r2, [r2, #4]
  53 001e 1A71     		strb	r2, [r3, #4]
  19:main.c        ****     adc_Start();
  54              		.loc 1 19 0
  55 0020 FFF7FEFF 		bl	adc_Start
  56              	.LVL0:
  20:main.c        ****     adc_StartConvert();
  57              		.loc 1 20 0
  58 0024 FFF7FEFF 		bl	adc_StartConvert
  59              	.LVL1:
  21:main.c        ****     uart_Start();
  60              		.loc 1 21 0
  61 0028 FFF7FEFF 		bl	uart_Start
  62              	.LVL2:
  63              	.LBB2:
  22:main.c        ****     for(int i=0;i<100;i++){
  64              		.loc 1 22 0
  65 002c 0024     		movs	r4, #0
  66 002e 13E0     		b	.L2
  67              	.LVL3:
  68              	.L3:
  23:main.c        ****         adc_IsEndConversion(adc_WAIT_FOR_RESULT);
  69              		.loc 1 23 0 discriminator 3
  70 0030 0220     		movs	r0, #2
  71 0032 FFF7FEFF 		bl	adc_IsEndConversion
  72              	.LVL4:
  24:main.c        ****         analog1 = adc_GetResult16(0);
  73              		.loc 1 24 0 discriminator 3
  74 0036 0020     		movs	r0, #0
  75 0038 FFF7FEFF 		bl	adc_GetResult16
  76              	.LVL5:
  77 003c 0500     		movs	r5, r0
  78              	.LVL6:
  25:main.c        ****         analog2 = adc_GetResult16(1);
  79              		.loc 1 25 0 discriminator 3
  80 003e 0120     		movs	r0, #1
  81              	.LVL7:
  82 0040 FFF7FEFF 		bl	adc_GetResult16
  83              	.LVL8:
  84 0044 0300     		movs	r3, r0
  85              	.LVL9:
  26:main.c        ****         sprintf(buffer, "Flex Sensor 1: %d\n Flex Sensor 2: %d", analog1, analog2);
  86              		.loc 1 26 0 discriminator 3
  87 0046 2A00     		movs	r2, r5
  88 0048 0649     		ldr	r1, .L4+4
ARM GAS  C:\Users\Jacob\AppData\Local\Temp\cc5xZwnv.s 			page 3


  89 004a 01A8     		add	r0, sp, #4
  90              	.LVL10:
  91 004c FFF7FEFF 		bl	sprintf
  92              	.LVL11:
  27:main.c        ****         uart_PutString(buffer);
  93              		.loc 1 27 0 discriminator 3
  94 0050 01A8     		add	r0, sp, #4
  95 0052 FFF7FEFF 		bl	uart_PutString
  96              	.LVL12:
  22:main.c        ****         adc_IsEndConversion(adc_WAIT_FOR_RESULT);
  97              		.loc 1 22 0 discriminator 3
  98 0056 0134     		adds	r4, r4, #1
  99              	.LVL13:
 100              	.L2:
  22:main.c        ****         adc_IsEndConversion(adc_WAIT_FOR_RESULT);
 101              		.loc 1 22 0 is_stmt 0 discriminator 1
 102 0058 632C     		cmp	r4, #99
 103 005a E9DD     		ble	.L3
 104              	.LBE2:
  28:main.c        ****     }
  29:main.c        **** }
 105              		.loc 1 29 0 is_stmt 1
 106 005c 0DB0     		add	sp, sp, #52
 107              		@ sp needed
 108              	.LVL14:
 109 005e 30BD     		pop	{r4, r5, pc}
 110              	.L5:
 111              		.align	2
 112              	.L4:
 113 0060 28000000 		.word	.LC0
 114 0064 00000000 		.word	.LC2
 115              		.cfi_endproc
 116              	.LFE36:
 117              		.size	testFlex, .-testFlex
 118              		.section	.text.testMotor,"ax",%progbits
 119              		.align	2
 120              		.global	testMotor
 121              		.code	16
 122              		.thumb_func
 123              		.type	testMotor, %function
 124              	testMotor:
 125              	.LFB37:
  30:main.c        **** 
  31:main.c        **** void testMotor(){
 126              		.loc 1 31 0
 127              		.cfi_startproc
 128              		@ args = 0, pretend = 0, frame = 0
 129              		@ frame_needed = 0, uses_anonymous_args = 0
 130 0000 10B5     		push	{r4, lr}
 131              		.cfi_def_cfa_offset 8
 132              		.cfi_offset 4, -8
 133              		.cfi_offset 14, -4
  32:main.c        ****     motorA_Write(0);
 134              		.loc 1 32 0
 135 0002 0020     		movs	r0, #0
 136 0004 FFF7FEFF 		bl	motorA_Write
 137              	.LVL15:
ARM GAS  C:\Users\Jacob\AppData\Local\Temp\cc5xZwnv.s 			page 4


  33:main.c        ****     motorB_Write(1);
 138              		.loc 1 33 0
 139 0008 0120     		movs	r0, #1
 140 000a FFF7FEFF 		bl	motorB_Write
 141              	.LVL16:
  34:main.c        ****     CyDelay(2000);
 142              		.loc 1 34 0
 143 000e FA20     		movs	r0, #250
 144 0010 C000     		lsls	r0, r0, #3
 145 0012 FFF7FEFF 		bl	CyDelay
 146              	.LVL17:
  35:main.c        ****     motorA_Write(1);
 147              		.loc 1 35 0
 148 0016 0120     		movs	r0, #1
 149 0018 FFF7FEFF 		bl	motorA_Write
 150              	.LVL18:
  36:main.c        ****     motorB_Write(0);
 151              		.loc 1 36 0
 152 001c 0020     		movs	r0, #0
 153 001e FFF7FEFF 		bl	motorB_Write
 154              	.LVL19:
  37:main.c        **** }
 155              		.loc 1 37 0
 156              		@ sp needed
 157 0022 10BD     		pop	{r4, pc}
 158              		.cfi_endproc
 159              	.LFE37:
 160              		.size	testMotor, .-testMotor
 161              		.section	.text.testBuzzer,"ax",%progbits
 162              		.align	2
 163              		.global	testBuzzer
 164              		.code	16
 165              		.thumb_func
 166              		.type	testBuzzer, %function
 167              	testBuzzer:
 168              	.LFB38:
  38:main.c        **** 
  39:main.c        **** void testBuzzer(){
 169              		.loc 1 39 0
 170              		.cfi_startproc
 171              		@ args = 0, pretend = 0, frame = 0
 172              		@ frame_needed = 0, uses_anonymous_args = 0
 173 0000 10B5     		push	{r4, lr}
 174              		.cfi_def_cfa_offset 8
 175              		.cfi_offset 4, -8
 176              		.cfi_offset 14, -4
  40:main.c        ****     pwmBuzzer_Start();
 177              		.loc 1 40 0
 178 0002 FFF7FEFF 		bl	pwmBuzzer_Start
 179              	.LVL20:
  41:main.c        ****     pwmBuzzer_WriteCompare(50);
 180              		.loc 1 41 0
 181 0006 3220     		movs	r0, #50
 182 0008 FFF7FEFF 		bl	pwmBuzzer_WriteCompare
 183              	.LVL21:
  42:main.c        ****     CyDelay(3000);
 184              		.loc 1 42 0
ARM GAS  C:\Users\Jacob\AppData\Local\Temp\cc5xZwnv.s 			page 5


 185 000c 0348     		ldr	r0, .L8
 186 000e FFF7FEFF 		bl	CyDelay
 187              	.LVL22:
  43:main.c        ****     pwmBuzzer_WriteCompare(0);
 188              		.loc 1 43 0
 189 0012 0020     		movs	r0, #0
 190 0014 FFF7FEFF 		bl	pwmBuzzer_WriteCompare
 191              	.LVL23:
  44:main.c        **** }
 192              		.loc 1 44 0
 193              		@ sp needed
 194 0018 10BD     		pop	{r4, pc}
 195              	.L9:
 196 001a C046     		.align	2
 197              	.L8:
 198 001c B80B0000 		.word	3000
 199              		.cfi_endproc
 200              	.LFE38:
 201              		.size	testBuzzer, .-testBuzzer
 202              		.section	.text.testSubsystems,"ax",%progbits
 203              		.align	2
 204              		.global	testSubsystems
 205              		.code	16
 206              		.thumb_func
 207              		.type	testSubsystems, %function
 208              	testSubsystems:
 209              	.LFB39:
  45:main.c        **** 
  46:main.c        **** void testSubsystems(){
 210              		.loc 1 46 0
 211              		.cfi_startproc
 212              		@ args = 0, pretend = 0, frame = 0
 213              		@ frame_needed = 0, uses_anonymous_args = 0
 214 0000 10B5     		push	{r4, lr}
 215              		.cfi_def_cfa_offset 8
 216              		.cfi_offset 4, -8
 217              		.cfi_offset 14, -4
  47:main.c        ****     testFlex();
 218              		.loc 1 47 0
 219 0002 FFF7FEFF 		bl	testFlex
 220              	.LVL24:
  48:main.c        ****     testMotor();
 221              		.loc 1 48 0
 222 0006 FFF7FEFF 		bl	testMotor
 223              	.LVL25:
  49:main.c        ****     testBuzzer();
 224              		.loc 1 49 0
 225 000a FFF7FEFF 		bl	testBuzzer
 226              	.LVL26:
  50:main.c        **** }
 227              		.loc 1 50 0
 228              		@ sp needed
 229 000e 10BD     		pop	{r4, pc}
 230              		.cfi_endproc
 231              	.LFE39:
 232              		.size	testSubsystems, .-testSubsystems
 233              		.section	.text.main,"ax",%progbits
ARM GAS  C:\Users\Jacob\AppData\Local\Temp\cc5xZwnv.s 			page 6


 234              		.align	2
 235              		.global	main
 236              		.code	16
 237              		.thumb_func
 238              		.type	main, %function
 239              	main:
 240              	.LFB40:
  51:main.c        **** 
  52:main.c        **** int main(void)
  53:main.c        **** {
 241              		.loc 1 53 0
 242              		.cfi_startproc
 243              		@ Volatile: function does not return.
 244              		@ args = 0, pretend = 0, frame = 0
 245              		@ frame_needed = 0, uses_anonymous_args = 0
 246 0000 10B5     		push	{r4, lr}
 247              		.cfi_def_cfa_offset 8
 248              		.cfi_offset 4, -8
 249              		.cfi_offset 14, -4
  54:main.c        ****     CyGlobalIntEnable; /* Enable global interrupts. */
 250              		.loc 1 54 0
 251              		.syntax divided
 252              	@ 54 "main.c" 1
 253 0002 62B6     		CPSIE   i
 254              	@ 0 "" 2
  55:main.c        **** 
  56:main.c        ****     /* Place your initialization/startup code here (e.g. MyInst_Start()) */
  57:main.c        ****     testSubsystems();
 255              		.loc 1 57 0
 256              		.thumb
 257              		.syntax unified
 258 0004 FFF7FEFF 		bl	testSubsystems
 259              	.LVL27:
 260              	.L12:
 261 0008 FEE7     		b	.L12
 262              		.cfi_endproc
 263              	.LFE40:
 264              		.size	main, .-main
 265 000a C046     		.section	.rodata.str1.4,"aMS",%progbits,1
 266              		.align	2
 267              	.LC2:
 268 0000 466C6578 		.ascii	"Flex Sensor 1: %d\012 Flex Sensor 2: %d\000"
 268      2053656E 
 268      736F7220 
 268      313A2025 
 268      640A2046 
 269 0025 000000   		.space	3
 270              	.LC0:
 271 0028 466C6578 		.ascii	"Flex Sensor 1: 2016\012 Flex Sensor 2: 2017\000"
 271      2053656E 
 271      736F7220 
 271      313A2032 
 271      3031360A 
 272              		.text
 273              	.Letext0:
 274              		.file 2 "Generated_Source\\PSoC4/adc.h"
 275              		.file 3 "c:\\program files (x86)\\cypress\\psoc creator\\4.1\\psoc creator\\import\\gnu\\arm\\5.4.
ARM GAS  C:\Users\Jacob\AppData\Local\Temp\cc5xZwnv.s 			page 7


 276              		.file 4 "Generated_Source\\PSoC4/uart.h"
 277              		.file 5 "Generated_Source\\PSoC4/motorA.h"
 278              		.file 6 "Generated_Source\\PSoC4/motorB.h"
 279              		.file 7 "Generated_Source\\PSoC4/CyLib.h"
 280              		.file 8 "Generated_Source\\PSoC4/pwmBuzzer.h"