ARM GAS  C:\Users\Jacob\AppData\Local\Temp\ccyJuMPt.s 			page 1


   1              		.syntax unified
   2              		.cpu cortex-m3
   3              		.fpu softvfp
   4              		.eabi_attribute 20, 1
   5              		.eabi_attribute 21, 1
   6              		.eabi_attribute 23, 3
   7              		.eabi_attribute 24, 1
   8              		.eabi_attribute 25, 1
   9              		.eabi_attribute 26, 1
  10              		.eabi_attribute 30, 1
  11              		.eabi_attribute 34, 1
  12              		.eabi_attribute 18, 4
  13              		.thumb
  14              		.syntax unified
  15              		.file	"main.c"
  16              		.text
  17              	.Ltext0:
  18              		.cfi_sections	.debug_frame
  19              		.global	__aeabi_fmul
  20              		.global	__aeabi_fadd
  21              		.global	__aeabi_f2iz
  22              		.section	.text.theta1,"ax",%progbits
  23              		.align	2
  24              		.global	theta1
  25              		.thumb
  26              		.thumb_func
  27              		.type	theta1, %function
  28              	theta1:
  29              	.LFB63:
  30              		.file 1 "main.c"
   1:main.c        **** /* ========================================
   2:main.c        ****  *
   3:main.c        ****  * Copyright YOUR COMPANY, THE YEAR
   4:main.c        ****  * All Rights Reserved
   5:main.c        ****  * UNPUBLISHED, LICENSED SOFTWARE.
   6:main.c        ****  *
   7:main.c        ****  * CONFIDENTIAL AND PROPRIETARY INFORMATION
   8:main.c        ****  * WHICH IS THE PROPERTY OF your company.
   9:main.c        ****  *
  10:main.c        ****  * ========================================
  11:main.c        **** */
  12:main.c        **** #include "project.h"
  13:main.c        **** #include "math.h"
  14:main.c        **** //#include "stdio.h"
  15:main.c        **** #include "stdlib.h"
  16:main.c        **** 
  17:main.c        **** #define rad2deg 180.0/3.14159
  18:main.c        **** 
  19:main.c        **** int theta1(float angle){
  31              		.loc 1 19 0
  32              		.cfi_startproc
  33              		@ args = 0, pretend = 0, frame = 0
  34              		@ frame_needed = 0, uses_anonymous_args = 0
  35              	.LVL0:
  36 0000 08B5     		push	{r3, lr}
  37              		.cfi_def_cfa_offset 8
  38              		.cfi_offset 3, -8
ARM GAS  C:\Users\Jacob\AppData\Local\Temp\ccyJuMPt.s 			page 2


  39              		.cfi_offset 14, -4
  40              	.LVL1:
  20:main.c        ****     int max_comp = 6200, min_comp = 1600, max_angle=180, min_angle=0;
  21:main.c        ****     int compare;
  22:main.c        ****     compare = (max_comp-min_comp)/(max_angle-min_angle)*(angle-min_angle) + min_comp;
  41              		.loc 1 22 0
  42 0002 0449     		ldr	r1, .L3
  43 0004 FFF7FEFF 		bl	__aeabi_fmul
  44              	.LVL2:
  45 0008 0349     		ldr	r1, .L3+4
  46 000a FFF7FEFF 		bl	__aeabi_fadd
  47              	.LVL3:
  48 000e FFF7FEFF 		bl	__aeabi_f2iz
  49              	.LVL4:
  23:main.c        ****     return compare;
  24:main.c        **** }
  50              		.loc 1 24 0
  51 0012 08BD     		pop	{r3, pc}
  52              	.L4:
  53              		.align	2
  54              	.L3:
  55 0014 0000C841 		.word	1103626240
  56 0018 0000C844 		.word	1153957888
  57              		.cfi_endproc
  58              	.LFE63:
  59              		.size	theta1, .-theta1
  60              		.section	.text.theta2,"ax",%progbits
  61              		.align	2
  62              		.global	theta2
  63              		.thumb
  64              		.thumb_func
  65              		.type	theta2, %function
  66              	theta2:
  67              	.LFB64:
  25:main.c        **** int theta2(float angle){
  68              		.loc 1 25 0
  69              		.cfi_startproc
  70              		@ args = 0, pretend = 0, frame = 0
  71              		@ frame_needed = 0, uses_anonymous_args = 0
  72              	.LVL5:
  73 0000 08B5     		push	{r3, lr}
  74              		.cfi_def_cfa_offset 8
  75              		.cfi_offset 3, -8
  76              		.cfi_offset 14, -4
  77              	.LVL6:
  26:main.c        ****     int max_comp = 6750, min_comp = 2050, max_angle=90, min_angle=-90;
  27:main.c        ****     int compare;
  28:main.c        ****     compare = (max_comp-min_comp)/(max_angle-min_angle)*(angle-min_angle) + min_comp;
  78              		.loc 1 28 0
  79 0002 0649     		ldr	r1, .L7
  80 0004 FFF7FEFF 		bl	__aeabi_fadd
  81              	.LVL7:
  82 0008 0549     		ldr	r1, .L7+4
  83 000a FFF7FEFF 		bl	__aeabi_fmul
  84              	.LVL8:
  85 000e 0549     		ldr	r1, .L7+8
  86 0010 FFF7FEFF 		bl	__aeabi_fadd
ARM GAS  C:\Users\Jacob\AppData\Local\Temp\ccyJuMPt.s 			page 3


  87              	.LVL9:
  88 0014 FFF7FEFF 		bl	__aeabi_f2iz
  89              	.LVL10:
  29:main.c        ****     return compare;
  30:main.c        **** }
  90              		.loc 1 30 0
  91 0018 08BD     		pop	{r3, pc}
  92              	.L8:
  93 001a 00BF     		.align	2
  94              	.L7:
  95 001c 0000B442 		.word	1119092736
  96 0020 0000D041 		.word	1104150528
  97 0024 00200045 		.word	1157636096
  98              		.cfi_endproc
  99              	.LFE64:
 100              		.size	theta2, .-theta2
 101              		.section	.text.main,"ax",%progbits
 102              		.align	2
 103              		.global	main
 104              		.thumb
 105              		.thumb_func
 106              		.type	main, %function
 107              	main:
 108              	.LFB65:
  31:main.c        **** 
  32:main.c        **** int main(void)
  33:main.c        **** {
 109              		.loc 1 33 0
 110              		.cfi_startproc
 111              		@ args = 0, pretend = 0, frame = 0
 112              		@ frame_needed = 0, uses_anonymous_args = 0
 113 0000 08B5     		push	{r3, lr}
 114              		.cfi_def_cfa_offset 8
 115              		.cfi_offset 3, -8
 116              		.cfi_offset 14, -4
  34:main.c        ****     lcd_Start();
 117              		.loc 1 34 0
 118 0002 FFF7FEFF 		bl	lcd_Start
 119              	.LVL11:
  35:main.c        ****     lcd_ClearDisplay();
 120              		.loc 1 35 0
 121 0006 0120     		movs	r0, #1
 122 0008 FFF7FEFF 		bl	lcd_WriteControl
 123              	.LVL12:
  36:main.c        ****     lcd_Position(0,0);
 124              		.loc 1 36 0
 125 000c 0021     		movs	r1, #0
 126 000e 0846     		mov	r0, r1
 127 0010 FFF7FEFF 		bl	lcd_Position
 128              	.LVL13:
  37:main.c        ****         
  38:main.c        ****     servoPwm_Start();
 129              		.loc 1 38 0
 130 0014 FFF7FEFF 		bl	servoPwm_Start
 131              	.LVL14:
  39:main.c        ****     motorPwm_Start();
 132              		.loc 1 39 0
ARM GAS  C:\Users\Jacob\AppData\Local\Temp\ccyJuMPt.s 			page 4


 133 0018 FFF7FEFF 		bl	motorPwm_Start
 134              	.LVL15:
  40:main.c        ****     enc_Start();    
 135              		.loc 1 40 0
 136 001c FFF7FEFF 		bl	enc_Start
 137              	.LVL16:
  41:main.c        ****     
  42:main.c        ****     int count, error, target;
  43:main.c        ****     
  44:main.c        ****     float x = 3.0;//5:9
  45:main.c        ****     float y = 9.0;
  46:main.c        ****     
  47:main.c        ****     float a2 = 6.0, a4=5.5;
  48:main.c        ****     float r1 = sqrt(x*x+y*y); //eq 1
  49:main.c        ****     float phi1 = acos((a4*a4-a2*a2-r1*r1)/(-2.0*a2*r1)); //eq 2
  50:main.c        ****     float phi2 = atan(y/x); //eq 3
  51:main.c        ****     float T1 = phi2-phi1;
  52:main.c        ****     float phi3 = acos((r1*r1-a2*a2-a4*a4)/(-2.0*a2*a4)); //eq 5
  53:main.c        ****     float T2 = 3.14159-phi3;
  54:main.c        ****     //T1=1, T2=0;
  55:main.c        ****     
  56:main.c        ****     lcd_PrintNumber((int)(T1*100));
 138              		.loc 1 56 0
 139 0020 4320     		movs	r0, #67
 140 0022 FFF7FEFF 		bl	lcd_PrintU32Number
 141              	.LVL17:
  57:main.c        ****     enc_SetCounter(0);
 142              		.loc 1 57 0
 143 0026 0020     		movs	r0, #0
 144 0028 FFF7FEFF 		bl	enc_SetCounter
 145              	.LVL18:
  58:main.c        **** 
  59:main.c        ****     /* Place your initialization/startup code here (e.g. MyInst_Start()) */
  60:main.c        ****     mag_Write(1);
 146              		.loc 1 60 0
 147 002c 0120     		movs	r0, #1
 148 002e FFF7FEFF 		bl	mag_Write
 149              	.LVL19:
  61:main.c        ****     CyDelay(2000);
 150              		.loc 1 61 0
 151 0032 4FF4FA60 		mov	r0, #2000
 152 0036 FFF7FEFF 		bl	CyDelay
 153              	.LVL20:
  62:main.c        ****     mag_Write(0);
 154              		.loc 1 62 0
 155 003a 0020     		movs	r0, #0
 156 003c FFF7FEFF 		bl	mag_Write
 157              	.LVL21:
  63:main.c        ****     
  64:main.c        ****     target = -300;
  65:main.c        ****     count = enc_GetCounter();
 158              		.loc 1 65 0
 159 0040 FFF7FEFF 		bl	enc_GetCounter
 160              	.LVL22:
  66:main.c        ****     error = abs(target - count);
 161              		.loc 1 66 0
 162 0044 C0F17F40 		rsb	r0, r0, #-16777216
ARM GAS  C:\Users\Jacob\AppData\Local\Temp\ccyJuMPt.s 			page 5


 163              	.LVL23:
 164 0048 00F57F00 		add	r0, r0, #16711680
 165 004c 00F57E40 		add	r0, r0, #65024
 166 0050 D430     		adds	r0, r0, #212
 167 0052 80EAE073 		eor	r3, r0, r0, asr #31
 168 0056 A3EBE073 		sub	r3, r3, r0, asr #31
 169              	.LVL24:
  67:main.c        ****     while(error > 10){
 170              		.loc 1 67 0
 171 005a 12E0     		b	.L10
 172              	.L11:
  68:main.c        ****         motorPwm_WriteCompare1(0);
 173              		.loc 1 68 0
 174 005c 0020     		movs	r0, #0
 175 005e FFF7FEFF 		bl	motorPwm_WriteCompare1
 176              	.LVL25:
  69:main.c        ****         motorPwm_WriteCompare2(100);
 177              		.loc 1 69 0
 178 0062 6420     		movs	r0, #100
 179 0064 FFF7FEFF 		bl	motorPwm_WriteCompare2
 180              	.LVL26:
  70:main.c        ****         count = enc_GetCounter();
 181              		.loc 1 70 0
 182 0068 FFF7FEFF 		bl	enc_GetCounter
 183              	.LVL27:
  71:main.c        ****         error = abs(target - count);
 184              		.loc 1 71 0
 185 006c C0F17F40 		rsb	r0, r0, #-16777216
 186              	.LVL28:
 187 0070 00F57F00 		add	r0, r0, #16711680
 188 0074 00F57E40 		add	r0, r0, #65024
 189 0078 D430     		adds	r0, r0, #212
 190 007a 80EAE073 		eor	r3, r0, r0, asr #31
 191 007e A3EBE073 		sub	r3, r3, r0, asr #31
 192              	.LVL29:
 193              	.L10:
  67:main.c        ****         motorPwm_WriteCompare1(0);
 194              		.loc 1 67 0
 195 0082 0A2B     		cmp	r3, #10
 196 0084 EADC     		bgt	.L11
  72:main.c        ****     }
  73:main.c        ****     motorPwm_WriteCompare1(0);
 197              		.loc 1 73 0
 198 0086 0020     		movs	r0, #0
 199 0088 FFF7FEFF 		bl	motorPwm_WriteCompare1
 200              	.LVL30:
  74:main.c        ****     motorPwm_WriteCompare2(0);
 201              		.loc 1 74 0
 202 008c 0020     		movs	r0, #0
 203 008e FFF7FEFF 		bl	motorPwm_WriteCompare2
 204              	.LVL31:
  75:main.c        ****     
  76:main.c        ****     servoPwm_WriteCompare1(theta1(0)); //servo 1 full clockwise
 205              		.loc 1 76 0
 206 0092 0020     		movs	r0, #0
 207 0094 FFF7FEFF 		bl	theta1
 208              	.LVL32:
ARM GAS  C:\Users\Jacob\AppData\Local\Temp\ccyJuMPt.s 			page 6


 209 0098 80B2     		uxth	r0, r0
 210 009a FFF7FEFF 		bl	servoPwm_WriteCompare1
 211              	.LVL33:
  77:main.c        ****     servoPwm_WriteCompare2(theta2(90)); //servo 2 full clockwise
 212              		.loc 1 77 0
 213 009e 1B48     		ldr	r0, .L16
 214 00a0 FFF7FEFF 		bl	theta2
 215              	.LVL34:
 216 00a4 80B2     		uxth	r0, r0
 217 00a6 FFF7FEFF 		bl	servoPwm_WriteCompare2
 218              	.LVL35:
  78:main.c        ****     CyDelay(2000);
 219              		.loc 1 78 0
 220 00aa 4FF4FA60 		mov	r0, #2000
 221 00ae FFF7FEFF 		bl	CyDelay
 222              	.LVL36:
  79:main.c        ****         
  80:main.c        ****     target = 0;
  81:main.c        ****     count = enc_GetCounter();
 223              		.loc 1 81 0
 224 00b2 FFF7FEFF 		bl	enc_GetCounter
 225              	.LVL37:
  82:main.c        ****     error = abs(target - count);
 226              		.loc 1 82 0
 227 00b6 0028     		cmp	r0, #0
 228 00b8 B8BF     		it	lt
 229 00ba 4042     		rsblt	r0, r0, #0
 230              	.LVL38:
  83:main.c        ****     while(error > 10){
 231              		.loc 1 83 0
 232 00bc 0AE0     		b	.L12
 233              	.L13:
  84:main.c        ****         motorPwm_WriteCompare1(100);
 234              		.loc 1 84 0
 235 00be 6420     		movs	r0, #100
 236              	.LVL39:
 237 00c0 FFF7FEFF 		bl	motorPwm_WriteCompare1
 238              	.LVL40:
  85:main.c        ****         motorPwm_WriteCompare2(0);
 239              		.loc 1 85 0
 240 00c4 0020     		movs	r0, #0
 241 00c6 FFF7FEFF 		bl	motorPwm_WriteCompare2
 242              	.LVL41:
  86:main.c        ****         count = enc_GetCounter();
 243              		.loc 1 86 0
 244 00ca FFF7FEFF 		bl	enc_GetCounter
 245              	.LVL42:
  87:main.c        ****         error = abs(target - count);
 246              		.loc 1 87 0
 247 00ce 0028     		cmp	r0, #0
 248 00d0 B8BF     		it	lt
 249 00d2 4042     		rsblt	r0, r0, #0
 250              	.LVL43:
 251              	.L12:
  83:main.c        ****         motorPwm_WriteCompare1(100);
 252              		.loc 1 83 0
 253 00d4 0A28     		cmp	r0, #10
ARM GAS  C:\Users\Jacob\AppData\Local\Temp\ccyJuMPt.s 			page 7


 254 00d6 F2DC     		bgt	.L13
  88:main.c        ****     }
  89:main.c        ****     motorPwm_WriteCompare1(0);
 255              		.loc 1 89 0
 256 00d8 0020     		movs	r0, #0
 257              	.LVL44:
 258 00da FFF7FEFF 		bl	motorPwm_WriteCompare1
 259              	.LVL45:
  90:main.c        ****     motorPwm_WriteCompare2(0);
 260              		.loc 1 90 0
 261 00de 0020     		movs	r0, #0
 262 00e0 FFF7FEFF 		bl	motorPwm_WriteCompare2
 263              	.LVL46:
 264              	.L14:
  91:main.c        **** 
  92:main.c        ****     for(;;)
  93:main.c        ****     {
  94:main.c        ****         servoPwm_WriteCompare1(theta1(T1*rad2deg)); //servo 1 full clockwise
 265              		.loc 1 94 0 discriminator 1
 266 00e4 0A48     		ldr	r0, .L16+4
 267 00e6 FFF7FEFF 		bl	theta1
 268              	.LVL47:
 269 00ea 80B2     		uxth	r0, r0
 270 00ec FFF7FEFF 		bl	servoPwm_WriteCompare1
 271              	.LVL48:
  95:main.c        ****         servoPwm_WriteCompare2(theta2(T2*rad2deg)); //servo 2 full clockwise
 272              		.loc 1 95 0 discriminator 1
 273 00f0 0848     		ldr	r0, .L16+8
 274 00f2 FFF7FEFF 		bl	theta2
 275              	.LVL49:
 276 00f6 80B2     		uxth	r0, r0
 277 00f8 FFF7FEFF 		bl	servoPwm_WriteCompare2
 278              	.LVL50:
  96:main.c        ****         CyDelay(2000);
 279              		.loc 1 96 0 discriminator 1
 280 00fc 4FF4FA60 		mov	r0, #2000
 281 0100 FFF7FEFF 		bl	CyDelay
 282              	.LVL51:
  97:main.c        ****        mag_Write(0);
 283              		.loc 1 97 0 discriminator 1
 284 0104 0020     		movs	r0, #0
 285 0106 FFF7FEFF 		bl	mag_Write
 286              	.LVL52:
 287 010a EBE7     		b	.L14
 288              	.L17:
 289              		.align	2
 290              	.L16:
 291 010c 0000B442 		.word	1119092736
 292 0110 DE461B42 		.word	1109083870
 293 0114 6CD18942 		.word	1116328300
 294              		.cfi_endproc
 295              	.LFE65:
 296              		.size	main, .-main
 297              		.text
 298              	.Letext0:
 299              		.file 2 "c:\\program files (x86)\\cypress\\psoc creator\\4.1\\psoc creator\\import\\gnu\\arm\\5.4.
 300              		.file 3 "c:\\program files (x86)\\cypress\\psoc creator\\4.1\\psoc creator\\import\\gnu\\arm\\5.4.
ARM GAS  C:\Users\Jacob\AppData\Local\Temp\ccyJuMPt.s 			page 8


 301              		.file 4 "Generated_Source\\PSoC5/cytypes.h"
 302              		.file 5 "Generated_Source\\PSoC5/lcd.h"
 303              		.file 6 "Generated_Source\\PSoC5/servoPwm.h"
 304              		.file 7 "Generated_Source\\PSoC5/motorPwm.h"
 305              		.file 8 "Generated_Source\\PSoC5/enc.h"
 306              		.file 9 "Generated_Source\\PSoC5/mag.h"
 307              		.file 10 "Generated_Source\\PSoC5/CyLib.h"
 308              		.file 11 "Generated_Source\\PSoC5/core_cm3.h"