ARM GAS  C:\Users\Jacob\AppData\Local\Temp\ccWbZkNb.s 			page 1


   1              		.syntax unified
   2              		.cpu cortex-m3
   3              		.fpu softvfp
   4              		.eabi_attribute 20, 1
   5              		.eabi_attribute 21, 1
   6              		.eabi_attribute 23, 3
   7              		.eabi_attribute 24, 1
   8              		.eabi_attribute 25, 1
   9              		.eabi_attribute 26, 1
  10              		.eabi_attribute 30, 1
  11              		.eabi_attribute 34, 1
  12              		.eabi_attribute 18, 4
  13              		.thumb
  14              		.syntax unified
  15              		.file	"servoPwm.c"
  16              		.text
  17              	.Ltext0:
  18              		.cfi_sections	.debug_frame
  19              		.section	.text.servoPwm_Enable,"ax",%progbits
  20              		.align	2
  21              		.global	servoPwm_Enable
  22              		.thumb
  23              		.thumb_func
  24              		.type	servoPwm_Enable, %function
  25              	servoPwm_Enable:
  26              	.LFB2:
  27              		.file 1 "Generated_Source\\PSoC5\\servoPwm.c"
   1:Generated_Source\PSoC5/servoPwm.c **** /*******************************************************************************
   2:Generated_Source\PSoC5/servoPwm.c **** * File Name: servoPwm.c
   3:Generated_Source\PSoC5/servoPwm.c **** * Version 3.30
   4:Generated_Source\PSoC5/servoPwm.c **** *
   5:Generated_Source\PSoC5/servoPwm.c **** * Description:
   6:Generated_Source\PSoC5/servoPwm.c **** *  The PWM User Module consist of an 8 or 16-bit counter with two 8 or 16-bit
   7:Generated_Source\PSoC5/servoPwm.c **** *  comparitors. Each instance of this user module is capable of generating
   8:Generated_Source\PSoC5/servoPwm.c **** *  two PWM outputs with the same period. The pulse width is selectable between
   9:Generated_Source\PSoC5/servoPwm.c **** *  1 and 255/65535. The period is selectable between 2 and 255/65536 clocks.
  10:Generated_Source\PSoC5/servoPwm.c **** *  The compare value output may be configured to be active when the present
  11:Generated_Source\PSoC5/servoPwm.c **** *  counter is less than or less than/equal to the compare value.
  12:Generated_Source\PSoC5/servoPwm.c **** *  A terminal count output is also provided. It generates a pulse one clock
  13:Generated_Source\PSoC5/servoPwm.c **** *  width wide when the counter is equal to zero.
  14:Generated_Source\PSoC5/servoPwm.c **** *
  15:Generated_Source\PSoC5/servoPwm.c **** * Note:
  16:Generated_Source\PSoC5/servoPwm.c **** *
  17:Generated_Source\PSoC5/servoPwm.c **** *******************************************************************************
  18:Generated_Source\PSoC5/servoPwm.c **** * Copyright 2008-2014, Cypress Semiconductor Corporation.  All rights reserved.
  19:Generated_Source\PSoC5/servoPwm.c **** * You may use this file only in accordance with the license, terms, conditions,
  20:Generated_Source\PSoC5/servoPwm.c **** * disclaimers, and limitations in the end user license agreement accompanying
  21:Generated_Source\PSoC5/servoPwm.c **** * the software package with which this file was provided.
  22:Generated_Source\PSoC5/servoPwm.c **** ********************************************************************************/
  23:Generated_Source\PSoC5/servoPwm.c **** 
  24:Generated_Source\PSoC5/servoPwm.c **** #include "servoPwm.h"
  25:Generated_Source\PSoC5/servoPwm.c **** 
  26:Generated_Source\PSoC5/servoPwm.c **** /* Error message for removed <resource> through optimization */
  27:Generated_Source\PSoC5/servoPwm.c **** #ifdef servoPwm_PWMUDB_genblk1_ctrlreg__REMOVED
  28:Generated_Source\PSoC5/servoPwm.c ****     #error PWM_v3_30 detected with a constant 0 for the enable or \
  29:Generated_Source\PSoC5/servoPwm.c ****          constant 1 for reset. This will prevent the component from operating.
  30:Generated_Source\PSoC5/servoPwm.c **** #endif /* servoPwm_PWMUDB_genblk1_ctrlreg__REMOVED */
ARM GAS  C:\Users\Jacob\AppData\Local\Temp\ccWbZkNb.s 			page 2


  31:Generated_Source\PSoC5/servoPwm.c **** 
  32:Generated_Source\PSoC5/servoPwm.c **** uint8 servoPwm_initVar = 0u;
  33:Generated_Source\PSoC5/servoPwm.c **** 
  34:Generated_Source\PSoC5/servoPwm.c **** 
  35:Generated_Source\PSoC5/servoPwm.c **** /*******************************************************************************
  36:Generated_Source\PSoC5/servoPwm.c **** * Function Name: servoPwm_Start
  37:Generated_Source\PSoC5/servoPwm.c **** ********************************************************************************
  38:Generated_Source\PSoC5/servoPwm.c **** *
  39:Generated_Source\PSoC5/servoPwm.c **** * Summary:
  40:Generated_Source\PSoC5/servoPwm.c **** *  The start function initializes the pwm with the default values, the
  41:Generated_Source\PSoC5/servoPwm.c **** *  enables the counter to begin counting.  It does not enable interrupts,
  42:Generated_Source\PSoC5/servoPwm.c **** *  the EnableInt command should be called if interrupt generation is required.
  43:Generated_Source\PSoC5/servoPwm.c **** *
  44:Generated_Source\PSoC5/servoPwm.c **** * Parameters:
  45:Generated_Source\PSoC5/servoPwm.c **** *  None
  46:Generated_Source\PSoC5/servoPwm.c **** *
  47:Generated_Source\PSoC5/servoPwm.c **** * Return:
  48:Generated_Source\PSoC5/servoPwm.c **** *  None
  49:Generated_Source\PSoC5/servoPwm.c **** *
  50:Generated_Source\PSoC5/servoPwm.c **** * Global variables:
  51:Generated_Source\PSoC5/servoPwm.c **** *  servoPwm_initVar: Is modified when this function is called for the
  52:Generated_Source\PSoC5/servoPwm.c **** *   first time. Is used to ensure that initialization happens only once.
  53:Generated_Source\PSoC5/servoPwm.c **** *
  54:Generated_Source\PSoC5/servoPwm.c **** *******************************************************************************/
  55:Generated_Source\PSoC5/servoPwm.c **** void servoPwm_Start(void) 
  56:Generated_Source\PSoC5/servoPwm.c **** {
  57:Generated_Source\PSoC5/servoPwm.c ****     /* If not Initialized then initialize all required hardware and software */
  58:Generated_Source\PSoC5/servoPwm.c ****     if(servoPwm_initVar == 0u)
  59:Generated_Source\PSoC5/servoPwm.c ****     {
  60:Generated_Source\PSoC5/servoPwm.c ****         servoPwm_Init();
  61:Generated_Source\PSoC5/servoPwm.c ****         servoPwm_initVar = 1u;
  62:Generated_Source\PSoC5/servoPwm.c ****     }
  63:Generated_Source\PSoC5/servoPwm.c ****     servoPwm_Enable();
  64:Generated_Source\PSoC5/servoPwm.c **** 
  65:Generated_Source\PSoC5/servoPwm.c **** }
  66:Generated_Source\PSoC5/servoPwm.c **** 
  67:Generated_Source\PSoC5/servoPwm.c **** 
  68:Generated_Source\PSoC5/servoPwm.c **** /*******************************************************************************
  69:Generated_Source\PSoC5/servoPwm.c **** * Function Name: servoPwm_Init
  70:Generated_Source\PSoC5/servoPwm.c **** ********************************************************************************
  71:Generated_Source\PSoC5/servoPwm.c **** *
  72:Generated_Source\PSoC5/servoPwm.c **** * Summary:
  73:Generated_Source\PSoC5/servoPwm.c **** *  Initialize component's parameters to the parameters set by user in the
  74:Generated_Source\PSoC5/servoPwm.c **** *  customizer of the component placed onto schematic. Usually called in
  75:Generated_Source\PSoC5/servoPwm.c **** *  servoPwm_Start().
  76:Generated_Source\PSoC5/servoPwm.c **** *
  77:Generated_Source\PSoC5/servoPwm.c **** * Parameters:
  78:Generated_Source\PSoC5/servoPwm.c **** *  None
  79:Generated_Source\PSoC5/servoPwm.c **** *
  80:Generated_Source\PSoC5/servoPwm.c **** * Return:
  81:Generated_Source\PSoC5/servoPwm.c **** *  None
  82:Generated_Source\PSoC5/servoPwm.c **** *
  83:Generated_Source\PSoC5/servoPwm.c **** *******************************************************************************/
  84:Generated_Source\PSoC5/servoPwm.c **** void servoPwm_Init(void) 
  85:Generated_Source\PSoC5/servoPwm.c **** {
  86:Generated_Source\PSoC5/servoPwm.c ****     #if (servoPwm_UsingFixedFunction || servoPwm_UseControl)
  87:Generated_Source\PSoC5/servoPwm.c ****         uint8 ctrl;
ARM GAS  C:\Users\Jacob\AppData\Local\Temp\ccWbZkNb.s 			page 3


  88:Generated_Source\PSoC5/servoPwm.c ****     #endif /* (servoPwm_UsingFixedFunction || servoPwm_UseControl) */
  89:Generated_Source\PSoC5/servoPwm.c **** 
  90:Generated_Source\PSoC5/servoPwm.c ****     #if(!servoPwm_UsingFixedFunction)
  91:Generated_Source\PSoC5/servoPwm.c ****         #if(servoPwm_UseStatus)
  92:Generated_Source\PSoC5/servoPwm.c ****             /* Interrupt State Backup for Critical Region*/
  93:Generated_Source\PSoC5/servoPwm.c ****             uint8 servoPwm_interruptState;
  94:Generated_Source\PSoC5/servoPwm.c ****         #endif /* (servoPwm_UseStatus) */
  95:Generated_Source\PSoC5/servoPwm.c ****     #endif /* (!servoPwm_UsingFixedFunction) */
  96:Generated_Source\PSoC5/servoPwm.c **** 
  97:Generated_Source\PSoC5/servoPwm.c ****     #if (servoPwm_UsingFixedFunction)
  98:Generated_Source\PSoC5/servoPwm.c ****         /* You are allowed to write the compare value (FF only) */
  99:Generated_Source\PSoC5/servoPwm.c ****         servoPwm_CONTROL |= servoPwm_CFG0_MODE;
 100:Generated_Source\PSoC5/servoPwm.c ****         #if (servoPwm_DeadBand2_4)
 101:Generated_Source\PSoC5/servoPwm.c ****             servoPwm_CONTROL |= servoPwm_CFG0_DB;
 102:Generated_Source\PSoC5/servoPwm.c ****         #endif /* (servoPwm_DeadBand2_4) */
 103:Generated_Source\PSoC5/servoPwm.c **** 
 104:Generated_Source\PSoC5/servoPwm.c ****         ctrl = servoPwm_CONTROL3 & ((uint8 )(~servoPwm_CTRL_CMPMODE1_MASK));
 105:Generated_Source\PSoC5/servoPwm.c ****         servoPwm_CONTROL3 = ctrl | servoPwm_DEFAULT_COMPARE1_MODE;
 106:Generated_Source\PSoC5/servoPwm.c **** 
 107:Generated_Source\PSoC5/servoPwm.c ****          /* Clear and Set SYNCTC and SYNCCMP bits of RT1 register */
 108:Generated_Source\PSoC5/servoPwm.c ****         servoPwm_RT1 &= ((uint8)(~servoPwm_RT1_MASK));
 109:Generated_Source\PSoC5/servoPwm.c ****         servoPwm_RT1 |= servoPwm_SYNC;
 110:Generated_Source\PSoC5/servoPwm.c **** 
 111:Generated_Source\PSoC5/servoPwm.c ****         /*Enable DSI Sync all all inputs of the PWM*/
 112:Generated_Source\PSoC5/servoPwm.c ****         servoPwm_RT1 &= ((uint8)(~servoPwm_SYNCDSI_MASK));
 113:Generated_Source\PSoC5/servoPwm.c ****         servoPwm_RT1 |= servoPwm_SYNCDSI_EN;
 114:Generated_Source\PSoC5/servoPwm.c **** 
 115:Generated_Source\PSoC5/servoPwm.c ****     #elif (servoPwm_UseControl)
 116:Generated_Source\PSoC5/servoPwm.c ****         /* Set the default compare mode defined in the parameter */
 117:Generated_Source\PSoC5/servoPwm.c ****         ctrl = servoPwm_CONTROL & ((uint8)(~servoPwm_CTRL_CMPMODE2_MASK)) &
 118:Generated_Source\PSoC5/servoPwm.c ****                 ((uint8)(~servoPwm_CTRL_CMPMODE1_MASK));
 119:Generated_Source\PSoC5/servoPwm.c ****         servoPwm_CONTROL = ctrl | servoPwm_DEFAULT_COMPARE2_MODE |
 120:Generated_Source\PSoC5/servoPwm.c ****                                    servoPwm_DEFAULT_COMPARE1_MODE;
 121:Generated_Source\PSoC5/servoPwm.c ****     #endif /* (servoPwm_UsingFixedFunction) */
 122:Generated_Source\PSoC5/servoPwm.c **** 
 123:Generated_Source\PSoC5/servoPwm.c ****     #if (!servoPwm_UsingFixedFunction)
 124:Generated_Source\PSoC5/servoPwm.c ****         #if (servoPwm_Resolution == 8)
 125:Generated_Source\PSoC5/servoPwm.c ****             /* Set FIFO 0 to 1 byte register for period*/
 126:Generated_Source\PSoC5/servoPwm.c ****             servoPwm_AUX_CONTROLDP0 |= (servoPwm_AUX_CTRL_FIFO0_CLR);
 127:Generated_Source\PSoC5/servoPwm.c ****         #else /* (servoPwm_Resolution == 16)*/
 128:Generated_Source\PSoC5/servoPwm.c ****             /* Set FIFO 0 to 1 byte register for period */
 129:Generated_Source\PSoC5/servoPwm.c ****             servoPwm_AUX_CONTROLDP0 |= (servoPwm_AUX_CTRL_FIFO0_CLR);
 130:Generated_Source\PSoC5/servoPwm.c ****             servoPwm_AUX_CONTROLDP1 |= (servoPwm_AUX_CTRL_FIFO0_CLR);
 131:Generated_Source\PSoC5/servoPwm.c ****         #endif /* (servoPwm_Resolution == 8) */
 132:Generated_Source\PSoC5/servoPwm.c **** 
 133:Generated_Source\PSoC5/servoPwm.c ****         servoPwm_WriteCounter(servoPwm_INIT_PERIOD_VALUE);
 134:Generated_Source\PSoC5/servoPwm.c ****     #endif /* (!servoPwm_UsingFixedFunction) */
 135:Generated_Source\PSoC5/servoPwm.c **** 
 136:Generated_Source\PSoC5/servoPwm.c ****     servoPwm_WritePeriod(servoPwm_INIT_PERIOD_VALUE);
 137:Generated_Source\PSoC5/servoPwm.c **** 
 138:Generated_Source\PSoC5/servoPwm.c ****         #if (servoPwm_UseOneCompareMode)
 139:Generated_Source\PSoC5/servoPwm.c ****             servoPwm_WriteCompare(servoPwm_INIT_COMPARE_VALUE1);
 140:Generated_Source\PSoC5/servoPwm.c ****         #else
 141:Generated_Source\PSoC5/servoPwm.c ****             servoPwm_WriteCompare1(servoPwm_INIT_COMPARE_VALUE1);
 142:Generated_Source\PSoC5/servoPwm.c ****             servoPwm_WriteCompare2(servoPwm_INIT_COMPARE_VALUE2);
 143:Generated_Source\PSoC5/servoPwm.c ****         #endif /* (servoPwm_UseOneCompareMode) */
 144:Generated_Source\PSoC5/servoPwm.c **** 
ARM GAS  C:\Users\Jacob\AppData\Local\Temp\ccWbZkNb.s 			page 4


 145:Generated_Source\PSoC5/servoPwm.c ****         #if (servoPwm_KillModeMinTime)
 146:Generated_Source\PSoC5/servoPwm.c ****             servoPwm_WriteKillTime(servoPwm_MinimumKillTime);
 147:Generated_Source\PSoC5/servoPwm.c ****         #endif /* (servoPwm_KillModeMinTime) */
 148:Generated_Source\PSoC5/servoPwm.c **** 
 149:Generated_Source\PSoC5/servoPwm.c ****         #if (servoPwm_DeadBandUsed)
 150:Generated_Source\PSoC5/servoPwm.c ****             servoPwm_WriteDeadTime(servoPwm_INIT_DEAD_TIME);
 151:Generated_Source\PSoC5/servoPwm.c ****         #endif /* (servoPwm_DeadBandUsed) */
 152:Generated_Source\PSoC5/servoPwm.c **** 
 153:Generated_Source\PSoC5/servoPwm.c ****     #if (servoPwm_UseStatus || servoPwm_UsingFixedFunction)
 154:Generated_Source\PSoC5/servoPwm.c ****         servoPwm_SetInterruptMode(servoPwm_INIT_INTERRUPTS_MODE);
 155:Generated_Source\PSoC5/servoPwm.c ****     #endif /* (servoPwm_UseStatus || servoPwm_UsingFixedFunction) */
 156:Generated_Source\PSoC5/servoPwm.c **** 
 157:Generated_Source\PSoC5/servoPwm.c ****     #if (servoPwm_UsingFixedFunction)
 158:Generated_Source\PSoC5/servoPwm.c ****         /* Globally Enable the Fixed Function Block chosen */
 159:Generated_Source\PSoC5/servoPwm.c ****         servoPwm_GLOBAL_ENABLE |= servoPwm_BLOCK_EN_MASK;
 160:Generated_Source\PSoC5/servoPwm.c ****         /* Set the Interrupt source to come from the status register */
 161:Generated_Source\PSoC5/servoPwm.c ****         servoPwm_CONTROL2 |= servoPwm_CTRL2_IRQ_SEL;
 162:Generated_Source\PSoC5/servoPwm.c ****     #else
 163:Generated_Source\PSoC5/servoPwm.c ****         #if(servoPwm_UseStatus)
 164:Generated_Source\PSoC5/servoPwm.c **** 
 165:Generated_Source\PSoC5/servoPwm.c ****             /* CyEnterCriticalRegion and CyExitCriticalRegion are used to mark following region cri
 166:Generated_Source\PSoC5/servoPwm.c ****             /* Enter Critical Region*/
 167:Generated_Source\PSoC5/servoPwm.c ****             servoPwm_interruptState = CyEnterCriticalSection();
 168:Generated_Source\PSoC5/servoPwm.c ****             /* Use the interrupt output of the status register for IRQ output */
 169:Generated_Source\PSoC5/servoPwm.c ****             servoPwm_STATUS_AUX_CTRL |= servoPwm_STATUS_ACTL_INT_EN_MASK;
 170:Generated_Source\PSoC5/servoPwm.c **** 
 171:Generated_Source\PSoC5/servoPwm.c ****              /* Exit Critical Region*/
 172:Generated_Source\PSoC5/servoPwm.c ****             CyExitCriticalSection(servoPwm_interruptState);
 173:Generated_Source\PSoC5/servoPwm.c **** 
 174:Generated_Source\PSoC5/servoPwm.c ****             /* Clear the FIFO to enable the servoPwm_STATUS_FIFOFULL
 175:Generated_Source\PSoC5/servoPwm.c ****                    bit to be set on FIFO full. */
 176:Generated_Source\PSoC5/servoPwm.c ****             servoPwm_ClearFIFO();
 177:Generated_Source\PSoC5/servoPwm.c ****         #endif /* (servoPwm_UseStatus) */
 178:Generated_Source\PSoC5/servoPwm.c ****     #endif /* (servoPwm_UsingFixedFunction) */
 179:Generated_Source\PSoC5/servoPwm.c **** }
 180:Generated_Source\PSoC5/servoPwm.c **** 
 181:Generated_Source\PSoC5/servoPwm.c **** 
 182:Generated_Source\PSoC5/servoPwm.c **** /*******************************************************************************
 183:Generated_Source\PSoC5/servoPwm.c **** * Function Name: servoPwm_Enable
 184:Generated_Source\PSoC5/servoPwm.c **** ********************************************************************************
 185:Generated_Source\PSoC5/servoPwm.c **** *
 186:Generated_Source\PSoC5/servoPwm.c **** * Summary:
 187:Generated_Source\PSoC5/servoPwm.c **** *  Enables the PWM block operation
 188:Generated_Source\PSoC5/servoPwm.c **** *
 189:Generated_Source\PSoC5/servoPwm.c **** * Parameters:
 190:Generated_Source\PSoC5/servoPwm.c **** *  None
 191:Generated_Source\PSoC5/servoPwm.c **** *
 192:Generated_Source\PSoC5/servoPwm.c **** * Return:
 193:Generated_Source\PSoC5/servoPwm.c **** *  None
 194:Generated_Source\PSoC5/servoPwm.c **** *
 195:Generated_Source\PSoC5/servoPwm.c **** * Side Effects:
 196:Generated_Source\PSoC5/servoPwm.c **** *  This works only if software enable mode is chosen
 197:Generated_Source\PSoC5/servoPwm.c **** *
 198:Generated_Source\PSoC5/servoPwm.c **** *******************************************************************************/
 199:Generated_Source\PSoC5/servoPwm.c **** void servoPwm_Enable(void) 
 200:Generated_Source\PSoC5/servoPwm.c **** {
  28              		.loc 1 200 0
ARM GAS  C:\Users\Jacob\AppData\Local\Temp\ccWbZkNb.s 			page 5


  29              		.cfi_startproc
  30              		@ args = 0, pretend = 0, frame = 0
  31              		@ frame_needed = 0, uses_anonymous_args = 0
  32              		@ link register save eliminated.
 201:Generated_Source\PSoC5/servoPwm.c ****     /* Globally Enable the Fixed Function Block chosen */
 202:Generated_Source\PSoC5/servoPwm.c ****     #if (servoPwm_UsingFixedFunction)
 203:Generated_Source\PSoC5/servoPwm.c ****         servoPwm_GLOBAL_ENABLE |= servoPwm_BLOCK_EN_MASK;
 204:Generated_Source\PSoC5/servoPwm.c ****         servoPwm_GLOBAL_STBY_ENABLE |= servoPwm_BLOCK_STBY_EN_MASK;
 205:Generated_Source\PSoC5/servoPwm.c ****     #endif /* (servoPwm_UsingFixedFunction) */
 206:Generated_Source\PSoC5/servoPwm.c **** 
 207:Generated_Source\PSoC5/servoPwm.c ****     /* Enable the PWM from the control register  */
 208:Generated_Source\PSoC5/servoPwm.c ****     #if (servoPwm_UseControl || servoPwm_UsingFixedFunction)
 209:Generated_Source\PSoC5/servoPwm.c ****         servoPwm_CONTROL |= servoPwm_CTRL_ENABLE;
  33              		.loc 1 209 0
  34 0000 024A     		ldr	r2, .L2
  35 0002 1378     		ldrb	r3, [r2]	@ zero_extendqisi2
  36 0004 43F08003 		orr	r3, r3, #128
  37 0008 1370     		strb	r3, [r2]
  38 000a 7047     		bx	lr
  39              	.L3:
  40              		.align	2
  41              	.L2:
  42 000c 78640040 		.word	1073767544
  43              		.cfi_endproc
  44              	.LFE2:
  45              		.size	servoPwm_Enable, .-servoPwm_Enable
  46              		.section	.text.servoPwm_Stop,"ax",%progbits
  47              		.align	2
  48              		.global	servoPwm_Stop
  49              		.thumb
  50              		.thumb_func
  51              		.type	servoPwm_Stop, %function
  52              	servoPwm_Stop:
  53              	.LFB3:
 210:Generated_Source\PSoC5/servoPwm.c ****     #endif /* (servoPwm_UseControl || servoPwm_UsingFixedFunction) */
 211:Generated_Source\PSoC5/servoPwm.c **** }
 212:Generated_Source\PSoC5/servoPwm.c **** 
 213:Generated_Source\PSoC5/servoPwm.c **** 
 214:Generated_Source\PSoC5/servoPwm.c **** /*******************************************************************************
 215:Generated_Source\PSoC5/servoPwm.c **** * Function Name: servoPwm_Stop
 216:Generated_Source\PSoC5/servoPwm.c **** ********************************************************************************
 217:Generated_Source\PSoC5/servoPwm.c **** *
 218:Generated_Source\PSoC5/servoPwm.c **** * Summary:
 219:Generated_Source\PSoC5/servoPwm.c **** *  The stop function halts the PWM, but does not change any modes or disable
 220:Generated_Source\PSoC5/servoPwm.c **** *  interrupts.
 221:Generated_Source\PSoC5/servoPwm.c **** *
 222:Generated_Source\PSoC5/servoPwm.c **** * Parameters:
 223:Generated_Source\PSoC5/servoPwm.c **** *  None
 224:Generated_Source\PSoC5/servoPwm.c **** *
 225:Generated_Source\PSoC5/servoPwm.c **** * Return:
 226:Generated_Source\PSoC5/servoPwm.c **** *  None
 227:Generated_Source\PSoC5/servoPwm.c **** *
 228:Generated_Source\PSoC5/servoPwm.c **** * Side Effects:
 229:Generated_Source\PSoC5/servoPwm.c **** *  If the Enable mode is set to Hardware only then this function
 230:Generated_Source\PSoC5/servoPwm.c **** *  has no effect on the operation of the PWM
 231:Generated_Source\PSoC5/servoPwm.c **** *
 232:Generated_Source\PSoC5/servoPwm.c **** *******************************************************************************/
ARM GAS  C:\Users\Jacob\AppData\Local\Temp\ccWbZkNb.s 			page 6


 233:Generated_Source\PSoC5/servoPwm.c **** void servoPwm_Stop(void) 
 234:Generated_Source\PSoC5/servoPwm.c **** {
  54              		.loc 1 234 0
  55              		.cfi_startproc
  56              		@ args = 0, pretend = 0, frame = 0
  57              		@ frame_needed = 0, uses_anonymous_args = 0
  58              		@ link register save eliminated.
 235:Generated_Source\PSoC5/servoPwm.c ****     #if (servoPwm_UseControl || servoPwm_UsingFixedFunction)
 236:Generated_Source\PSoC5/servoPwm.c ****         servoPwm_CONTROL &= ((uint8)(~servoPwm_CTRL_ENABLE));
  59              		.loc 1 236 0
  60 0000 024A     		ldr	r2, .L5
  61 0002 1378     		ldrb	r3, [r2]	@ zero_extendqisi2
  62 0004 03F07F03 		and	r3, r3, #127
  63 0008 1370     		strb	r3, [r2]
  64 000a 7047     		bx	lr
  65              	.L6:
  66              		.align	2
  67              	.L5:
  68 000c 78640040 		.word	1073767544
  69              		.cfi_endproc
  70              	.LFE3:
  71              		.size	servoPwm_Stop, .-servoPwm_Stop
  72              		.section	.text.servoPwm_WriteCounter,"ax",%progbits
  73              		.align	2
  74              		.global	servoPwm_WriteCounter
  75              		.thumb
  76              		.thumb_func
  77              		.type	servoPwm_WriteCounter, %function
  78              	servoPwm_WriteCounter:
  79              	.LFB4:
 237:Generated_Source\PSoC5/servoPwm.c ****     #endif /* (servoPwm_UseControl || servoPwm_UsingFixedFunction) */
 238:Generated_Source\PSoC5/servoPwm.c **** 
 239:Generated_Source\PSoC5/servoPwm.c ****     /* Globally disable the Fixed Function Block chosen */
 240:Generated_Source\PSoC5/servoPwm.c ****     #if (servoPwm_UsingFixedFunction)
 241:Generated_Source\PSoC5/servoPwm.c ****         servoPwm_GLOBAL_ENABLE &= ((uint8)(~servoPwm_BLOCK_EN_MASK));
 242:Generated_Source\PSoC5/servoPwm.c ****         servoPwm_GLOBAL_STBY_ENABLE &= ((uint8)(~servoPwm_BLOCK_STBY_EN_MASK));
 243:Generated_Source\PSoC5/servoPwm.c ****     #endif /* (servoPwm_UsingFixedFunction) */
 244:Generated_Source\PSoC5/servoPwm.c **** }
 245:Generated_Source\PSoC5/servoPwm.c **** 
 246:Generated_Source\PSoC5/servoPwm.c **** #if (servoPwm_UseOneCompareMode)
 247:Generated_Source\PSoC5/servoPwm.c ****     #if (servoPwm_CompareMode1SW)
 248:Generated_Source\PSoC5/servoPwm.c **** 
 249:Generated_Source\PSoC5/servoPwm.c **** 
 250:Generated_Source\PSoC5/servoPwm.c ****         /*******************************************************************************
 251:Generated_Source\PSoC5/servoPwm.c ****         * Function Name: servoPwm_SetCompareMode
 252:Generated_Source\PSoC5/servoPwm.c ****         ********************************************************************************
 253:Generated_Source\PSoC5/servoPwm.c ****         *
 254:Generated_Source\PSoC5/servoPwm.c ****         * Summary:
 255:Generated_Source\PSoC5/servoPwm.c ****         *  This function writes the Compare Mode for the pwm output when in Dither mode,
 256:Generated_Source\PSoC5/servoPwm.c ****         *  Center Align Mode or One Output Mode.
 257:Generated_Source\PSoC5/servoPwm.c ****         *
 258:Generated_Source\PSoC5/servoPwm.c ****         * Parameters:
 259:Generated_Source\PSoC5/servoPwm.c ****         *  comparemode:  The new compare mode for the PWM output. Use the compare types
 260:Generated_Source\PSoC5/servoPwm.c ****         *                defined in the H file as input arguments.
 261:Generated_Source\PSoC5/servoPwm.c ****         *
 262:Generated_Source\PSoC5/servoPwm.c ****         * Return:
 263:Generated_Source\PSoC5/servoPwm.c ****         *  None
ARM GAS  C:\Users\Jacob\AppData\Local\Temp\ccWbZkNb.s 			page 7


 264:Generated_Source\PSoC5/servoPwm.c ****         *
 265:Generated_Source\PSoC5/servoPwm.c ****         *******************************************************************************/
 266:Generated_Source\PSoC5/servoPwm.c ****         void servoPwm_SetCompareMode(uint8 comparemode) 
 267:Generated_Source\PSoC5/servoPwm.c ****         {
 268:Generated_Source\PSoC5/servoPwm.c ****             #if(servoPwm_UsingFixedFunction)
 269:Generated_Source\PSoC5/servoPwm.c **** 
 270:Generated_Source\PSoC5/servoPwm.c ****                 #if(0 != servoPwm_CTRL_CMPMODE1_SHIFT)
 271:Generated_Source\PSoC5/servoPwm.c ****                     uint8 comparemodemasked = ((uint8)((uint8)comparemode << servoPwm_CTRL_CMPMODE1
 272:Generated_Source\PSoC5/servoPwm.c ****                 #else
 273:Generated_Source\PSoC5/servoPwm.c ****                     uint8 comparemodemasked = comparemode;
 274:Generated_Source\PSoC5/servoPwm.c ****                 #endif /* (0 != servoPwm_CTRL_CMPMODE1_SHIFT) */
 275:Generated_Source\PSoC5/servoPwm.c **** 
 276:Generated_Source\PSoC5/servoPwm.c ****                 servoPwm_CONTROL3 &= ((uint8)(~servoPwm_CTRL_CMPMODE1_MASK)); /*Clear Existing Data
 277:Generated_Source\PSoC5/servoPwm.c ****                 servoPwm_CONTROL3 |= comparemodemasked;
 278:Generated_Source\PSoC5/servoPwm.c **** 
 279:Generated_Source\PSoC5/servoPwm.c ****             #elif (servoPwm_UseControl)
 280:Generated_Source\PSoC5/servoPwm.c **** 
 281:Generated_Source\PSoC5/servoPwm.c ****                 #if(0 != servoPwm_CTRL_CMPMODE1_SHIFT)
 282:Generated_Source\PSoC5/servoPwm.c ****                     uint8 comparemode1masked = ((uint8)((uint8)comparemode << servoPwm_CTRL_CMPMODE
 283:Generated_Source\PSoC5/servoPwm.c ****                                                 servoPwm_CTRL_CMPMODE1_MASK;
 284:Generated_Source\PSoC5/servoPwm.c ****                 #else
 285:Generated_Source\PSoC5/servoPwm.c ****                     uint8 comparemode1masked = comparemode & servoPwm_CTRL_CMPMODE1_MASK;
 286:Generated_Source\PSoC5/servoPwm.c ****                 #endif /* (0 != servoPwm_CTRL_CMPMODE1_SHIFT) */
 287:Generated_Source\PSoC5/servoPwm.c **** 
 288:Generated_Source\PSoC5/servoPwm.c ****                 #if(0 != servoPwm_CTRL_CMPMODE2_SHIFT)
 289:Generated_Source\PSoC5/servoPwm.c ****                     uint8 comparemode2masked = ((uint8)((uint8)comparemode << servoPwm_CTRL_CMPMODE
 290:Generated_Source\PSoC5/servoPwm.c ****                                                servoPwm_CTRL_CMPMODE2_MASK;
 291:Generated_Source\PSoC5/servoPwm.c ****                 #else
 292:Generated_Source\PSoC5/servoPwm.c ****                     uint8 comparemode2masked = comparemode & servoPwm_CTRL_CMPMODE2_MASK;
 293:Generated_Source\PSoC5/servoPwm.c ****                 #endif /* (0 != servoPwm_CTRL_CMPMODE2_SHIFT) */
 294:Generated_Source\PSoC5/servoPwm.c **** 
 295:Generated_Source\PSoC5/servoPwm.c ****                 /*Clear existing mode */
 296:Generated_Source\PSoC5/servoPwm.c ****                 servoPwm_CONTROL &= ((uint8)(~(servoPwm_CTRL_CMPMODE1_MASK |
 297:Generated_Source\PSoC5/servoPwm.c ****                                             servoPwm_CTRL_CMPMODE2_MASK)));
 298:Generated_Source\PSoC5/servoPwm.c ****                 servoPwm_CONTROL |= (comparemode1masked | comparemode2masked);
 299:Generated_Source\PSoC5/servoPwm.c **** 
 300:Generated_Source\PSoC5/servoPwm.c ****             #else
 301:Generated_Source\PSoC5/servoPwm.c ****                 uint8 temp = comparemode;
 302:Generated_Source\PSoC5/servoPwm.c ****             #endif /* (servoPwm_UsingFixedFunction) */
 303:Generated_Source\PSoC5/servoPwm.c ****         }
 304:Generated_Source\PSoC5/servoPwm.c ****     #endif /* servoPwm_CompareMode1SW */
 305:Generated_Source\PSoC5/servoPwm.c **** 
 306:Generated_Source\PSoC5/servoPwm.c **** #else /* UseOneCompareMode */
 307:Generated_Source\PSoC5/servoPwm.c **** 
 308:Generated_Source\PSoC5/servoPwm.c ****     #if (servoPwm_CompareMode1SW)
 309:Generated_Source\PSoC5/servoPwm.c **** 
 310:Generated_Source\PSoC5/servoPwm.c **** 
 311:Generated_Source\PSoC5/servoPwm.c ****         /*******************************************************************************
 312:Generated_Source\PSoC5/servoPwm.c ****         * Function Name: servoPwm_SetCompareMode1
 313:Generated_Source\PSoC5/servoPwm.c ****         ********************************************************************************
 314:Generated_Source\PSoC5/servoPwm.c ****         *
 315:Generated_Source\PSoC5/servoPwm.c ****         * Summary:
 316:Generated_Source\PSoC5/servoPwm.c ****         *  This function writes the Compare Mode for the pwm or pwm1 output
 317:Generated_Source\PSoC5/servoPwm.c ****         *
 318:Generated_Source\PSoC5/servoPwm.c ****         * Parameters:
 319:Generated_Source\PSoC5/servoPwm.c ****         *  comparemode:  The new compare mode for the PWM output. Use the compare types
 320:Generated_Source\PSoC5/servoPwm.c ****         *                defined in the H file as input arguments.
ARM GAS  C:\Users\Jacob\AppData\Local\Temp\ccWbZkNb.s 			page 8


 321:Generated_Source\PSoC5/servoPwm.c ****         *
 322:Generated_Source\PSoC5/servoPwm.c ****         * Return:
 323:Generated_Source\PSoC5/servoPwm.c ****         *  None
 324:Generated_Source\PSoC5/servoPwm.c ****         *
 325:Generated_Source\PSoC5/servoPwm.c ****         *******************************************************************************/
 326:Generated_Source\PSoC5/servoPwm.c ****         void servoPwm_SetCompareMode1(uint8 comparemode) 
 327:Generated_Source\PSoC5/servoPwm.c ****         {
 328:Generated_Source\PSoC5/servoPwm.c ****             #if(0 != servoPwm_CTRL_CMPMODE1_SHIFT)
 329:Generated_Source\PSoC5/servoPwm.c ****                 uint8 comparemodemasked = ((uint8)((uint8)comparemode << servoPwm_CTRL_CMPMODE1_SHI
 330:Generated_Source\PSoC5/servoPwm.c ****                                            servoPwm_CTRL_CMPMODE1_MASK;
 331:Generated_Source\PSoC5/servoPwm.c ****             #else
 332:Generated_Source\PSoC5/servoPwm.c ****                 uint8 comparemodemasked = comparemode & servoPwm_CTRL_CMPMODE1_MASK;
 333:Generated_Source\PSoC5/servoPwm.c ****             #endif /* (0 != servoPwm_CTRL_CMPMODE1_SHIFT) */
 334:Generated_Source\PSoC5/servoPwm.c **** 
 335:Generated_Source\PSoC5/servoPwm.c ****             #if (servoPwm_UseControl)
 336:Generated_Source\PSoC5/servoPwm.c ****                 servoPwm_CONTROL &= ((uint8)(~servoPwm_CTRL_CMPMODE1_MASK)); /*Clear existing mode 
 337:Generated_Source\PSoC5/servoPwm.c ****                 servoPwm_CONTROL |= comparemodemasked;
 338:Generated_Source\PSoC5/servoPwm.c ****             #endif /* (servoPwm_UseControl) */
 339:Generated_Source\PSoC5/servoPwm.c ****         }
 340:Generated_Source\PSoC5/servoPwm.c ****     #endif /* servoPwm_CompareMode1SW */
 341:Generated_Source\PSoC5/servoPwm.c **** 
 342:Generated_Source\PSoC5/servoPwm.c **** #if (servoPwm_CompareMode2SW)
 343:Generated_Source\PSoC5/servoPwm.c **** 
 344:Generated_Source\PSoC5/servoPwm.c **** 
 345:Generated_Source\PSoC5/servoPwm.c ****     /*******************************************************************************
 346:Generated_Source\PSoC5/servoPwm.c ****     * Function Name: servoPwm_SetCompareMode2
 347:Generated_Source\PSoC5/servoPwm.c ****     ********************************************************************************
 348:Generated_Source\PSoC5/servoPwm.c ****     *
 349:Generated_Source\PSoC5/servoPwm.c ****     * Summary:
 350:Generated_Source\PSoC5/servoPwm.c ****     *  This function writes the Compare Mode for the pwm or pwm2 output
 351:Generated_Source\PSoC5/servoPwm.c ****     *
 352:Generated_Source\PSoC5/servoPwm.c ****     * Parameters:
 353:Generated_Source\PSoC5/servoPwm.c ****     *  comparemode:  The new compare mode for the PWM output. Use the compare types
 354:Generated_Source\PSoC5/servoPwm.c ****     *                defined in the H file as input arguments.
 355:Generated_Source\PSoC5/servoPwm.c ****     *
 356:Generated_Source\PSoC5/servoPwm.c ****     * Return:
 357:Generated_Source\PSoC5/servoPwm.c ****     *  None
 358:Generated_Source\PSoC5/servoPwm.c ****     *
 359:Generated_Source\PSoC5/servoPwm.c ****     *******************************************************************************/
 360:Generated_Source\PSoC5/servoPwm.c ****     void servoPwm_SetCompareMode2(uint8 comparemode) 
 361:Generated_Source\PSoC5/servoPwm.c ****     {
 362:Generated_Source\PSoC5/servoPwm.c **** 
 363:Generated_Source\PSoC5/servoPwm.c ****         #if(0 != servoPwm_CTRL_CMPMODE2_SHIFT)
 364:Generated_Source\PSoC5/servoPwm.c ****             uint8 comparemodemasked = ((uint8)((uint8)comparemode << servoPwm_CTRL_CMPMODE2_SHIFT))
 365:Generated_Source\PSoC5/servoPwm.c ****                                                  servoPwm_CTRL_CMPMODE2_MASK;
 366:Generated_Source\PSoC5/servoPwm.c ****         #else
 367:Generated_Source\PSoC5/servoPwm.c ****             uint8 comparemodemasked = comparemode & servoPwm_CTRL_CMPMODE2_MASK;
 368:Generated_Source\PSoC5/servoPwm.c ****         #endif /* (0 != servoPwm_CTRL_CMPMODE2_SHIFT) */
 369:Generated_Source\PSoC5/servoPwm.c **** 
 370:Generated_Source\PSoC5/servoPwm.c ****         #if (servoPwm_UseControl)
 371:Generated_Source\PSoC5/servoPwm.c ****             servoPwm_CONTROL &= ((uint8)(~servoPwm_CTRL_CMPMODE2_MASK)); /*Clear existing mode */
 372:Generated_Source\PSoC5/servoPwm.c ****             servoPwm_CONTROL |= comparemodemasked;
 373:Generated_Source\PSoC5/servoPwm.c ****         #endif /* (servoPwm_UseControl) */
 374:Generated_Source\PSoC5/servoPwm.c ****     }
 375:Generated_Source\PSoC5/servoPwm.c ****     #endif /*servoPwm_CompareMode2SW */
 376:Generated_Source\PSoC5/servoPwm.c **** 
 377:Generated_Source\PSoC5/servoPwm.c **** #endif /* UseOneCompareMode */
ARM GAS  C:\Users\Jacob\AppData\Local\Temp\ccWbZkNb.s 			page 9


 378:Generated_Source\PSoC5/servoPwm.c **** 
 379:Generated_Source\PSoC5/servoPwm.c **** 
 380:Generated_Source\PSoC5/servoPwm.c **** #if (!servoPwm_UsingFixedFunction)
 381:Generated_Source\PSoC5/servoPwm.c **** 
 382:Generated_Source\PSoC5/servoPwm.c **** 
 383:Generated_Source\PSoC5/servoPwm.c ****     /*******************************************************************************
 384:Generated_Source\PSoC5/servoPwm.c ****     * Function Name: servoPwm_WriteCounter
 385:Generated_Source\PSoC5/servoPwm.c ****     ********************************************************************************
 386:Generated_Source\PSoC5/servoPwm.c ****     *
 387:Generated_Source\PSoC5/servoPwm.c ****     * Summary:
 388:Generated_Source\PSoC5/servoPwm.c ****     *  Writes a new counter value directly to the counter register. This will be
 389:Generated_Source\PSoC5/servoPwm.c ****     *  implemented for that currently running period and only that period. This API
 390:Generated_Source\PSoC5/servoPwm.c ****     *  is valid only for UDB implementation and not available for fixed function
 391:Generated_Source\PSoC5/servoPwm.c ****     *  PWM implementation.
 392:Generated_Source\PSoC5/servoPwm.c ****     *
 393:Generated_Source\PSoC5/servoPwm.c ****     * Parameters:
 394:Generated_Source\PSoC5/servoPwm.c ****     *  counter:  The period new period counter value.
 395:Generated_Source\PSoC5/servoPwm.c ****     *
 396:Generated_Source\PSoC5/servoPwm.c ****     * Return:
 397:Generated_Source\PSoC5/servoPwm.c ****     *  None
 398:Generated_Source\PSoC5/servoPwm.c ****     *
 399:Generated_Source\PSoC5/servoPwm.c ****     * Side Effects:
 400:Generated_Source\PSoC5/servoPwm.c ****     *  The PWM Period will be reloaded when a counter value will be a zero
 401:Generated_Source\PSoC5/servoPwm.c ****     *
 402:Generated_Source\PSoC5/servoPwm.c ****     *******************************************************************************/
 403:Generated_Source\PSoC5/servoPwm.c ****     void servoPwm_WriteCounter(uint16 counter) \
 404:Generated_Source\PSoC5/servoPwm.c ****                                        
 405:Generated_Source\PSoC5/servoPwm.c ****     {
  80              		.loc 1 405 0
  81              		.cfi_startproc
  82              		@ args = 0, pretend = 0, frame = 0
  83              		@ frame_needed = 0, uses_anonymous_args = 0
  84              		@ link register save eliminated.
  85              	.LVL0:
 406:Generated_Source\PSoC5/servoPwm.c ****         CY_SET_REG16(servoPwm_COUNTER_LSB_PTR, counter);
  86              		.loc 1 406 0
  87 0000 014B     		ldr	r3, .L8
  88 0002 1880     		strh	r0, [r3]	@ movhi
  89 0004 7047     		bx	lr
  90              	.L9:
  91 0006 00BF     		.align	2
  92              	.L8:
  93 0008 1C680040 		.word	1073768476
  94              		.cfi_endproc
  95              	.LFE4:
  96              		.size	servoPwm_WriteCounter, .-servoPwm_WriteCounter
  97              		.section	.text.servoPwm_ReadCounter,"ax",%progbits
  98              		.align	2
  99              		.global	servoPwm_ReadCounter
 100              		.thumb
 101              		.thumb_func
 102              		.type	servoPwm_ReadCounter, %function
 103              	servoPwm_ReadCounter:
 104              	.LFB5:
 407:Generated_Source\PSoC5/servoPwm.c ****     }
 408:Generated_Source\PSoC5/servoPwm.c **** 
 409:Generated_Source\PSoC5/servoPwm.c **** 
ARM GAS  C:\Users\Jacob\AppData\Local\Temp\ccWbZkNb.s 			page 10


 410:Generated_Source\PSoC5/servoPwm.c ****     /*******************************************************************************
 411:Generated_Source\PSoC5/servoPwm.c ****     * Function Name: servoPwm_ReadCounter
 412:Generated_Source\PSoC5/servoPwm.c ****     ********************************************************************************
 413:Generated_Source\PSoC5/servoPwm.c ****     *
 414:Generated_Source\PSoC5/servoPwm.c ****     * Summary:
 415:Generated_Source\PSoC5/servoPwm.c ****     *  This function returns the current value of the counter.  It doesn't matter
 416:Generated_Source\PSoC5/servoPwm.c ****     *  if the counter is enabled or running.
 417:Generated_Source\PSoC5/servoPwm.c ****     *
 418:Generated_Source\PSoC5/servoPwm.c ****     * Parameters:
 419:Generated_Source\PSoC5/servoPwm.c ****     *  None
 420:Generated_Source\PSoC5/servoPwm.c ****     *
 421:Generated_Source\PSoC5/servoPwm.c ****     * Return:
 422:Generated_Source\PSoC5/servoPwm.c ****     *  The current value of the counter.
 423:Generated_Source\PSoC5/servoPwm.c ****     *
 424:Generated_Source\PSoC5/servoPwm.c ****     *******************************************************************************/
 425:Generated_Source\PSoC5/servoPwm.c ****     uint16 servoPwm_ReadCounter(void) 
 426:Generated_Source\PSoC5/servoPwm.c ****     {
 105              		.loc 1 426 0
 106              		.cfi_startproc
 107              		@ args = 0, pretend = 0, frame = 0
 108              		@ frame_needed = 0, uses_anonymous_args = 0
 109              		@ link register save eliminated.
 427:Generated_Source\PSoC5/servoPwm.c ****         /* Force capture by reading Accumulator */
 428:Generated_Source\PSoC5/servoPwm.c ****         /* Must first do a software capture to be able to read the counter */
 429:Generated_Source\PSoC5/servoPwm.c ****         /* It is up to the user code to make sure there isn't already captured data in the FIFO */
 430:Generated_Source\PSoC5/servoPwm.c ****           (void)CY_GET_REG8(servoPwm_COUNTERCAP_LSB_PTR_8BIT);
 110              		.loc 1 430 0
 111 0000 024B     		ldr	r3, .L11
 112 0002 1B78     		ldrb	r3, [r3]	@ zero_extendqisi2
 431:Generated_Source\PSoC5/servoPwm.c **** 
 432:Generated_Source\PSoC5/servoPwm.c ****         /* Read the data from the FIFO */
 433:Generated_Source\PSoC5/servoPwm.c ****         return (CY_GET_REG16(servoPwm_CAPTURE_LSB_PTR));
 113              		.loc 1 433 0
 114 0004 024B     		ldr	r3, .L11+4
 115 0006 1888     		ldrh	r0, [r3]
 434:Generated_Source\PSoC5/servoPwm.c ****     }
 116              		.loc 1 434 0
 117 0008 80B2     		uxth	r0, r0
 118 000a 7047     		bx	lr
 119              	.L12:
 120              		.align	2
 121              	.L11:
 122 000c 1E640040 		.word	1073767454
 123 0010 BC680040 		.word	1073768636
 124              		.cfi_endproc
 125              	.LFE5:
 126              		.size	servoPwm_ReadCounter, .-servoPwm_ReadCounter
 127              		.section	.text.servoPwm_WritePeriod,"ax",%progbits
 128              		.align	2
 129              		.global	servoPwm_WritePeriod
 130              		.thumb
 131              		.thumb_func
 132              		.type	servoPwm_WritePeriod, %function
 133              	servoPwm_WritePeriod:
 134              	.LFB7:
 435:Generated_Source\PSoC5/servoPwm.c **** 
 436:Generated_Source\PSoC5/servoPwm.c ****     #if (servoPwm_UseStatus)
ARM GAS  C:\Users\Jacob\AppData\Local\Temp\ccWbZkNb.s 			page 11


 437:Generated_Source\PSoC5/servoPwm.c **** 
 438:Generated_Source\PSoC5/servoPwm.c **** 
 439:Generated_Source\PSoC5/servoPwm.c ****         /*******************************************************************************
 440:Generated_Source\PSoC5/servoPwm.c ****         * Function Name: servoPwm_ClearFIFO
 441:Generated_Source\PSoC5/servoPwm.c ****         ********************************************************************************
 442:Generated_Source\PSoC5/servoPwm.c ****         *
 443:Generated_Source\PSoC5/servoPwm.c ****         * Summary:
 444:Generated_Source\PSoC5/servoPwm.c ****         *  This function clears all capture data from the capture FIFO
 445:Generated_Source\PSoC5/servoPwm.c ****         *
 446:Generated_Source\PSoC5/servoPwm.c ****         * Parameters:
 447:Generated_Source\PSoC5/servoPwm.c ****         *  None
 448:Generated_Source\PSoC5/servoPwm.c ****         *
 449:Generated_Source\PSoC5/servoPwm.c ****         * Return:
 450:Generated_Source\PSoC5/servoPwm.c ****         *  None
 451:Generated_Source\PSoC5/servoPwm.c ****         *
 452:Generated_Source\PSoC5/servoPwm.c ****         *******************************************************************************/
 453:Generated_Source\PSoC5/servoPwm.c ****         void servoPwm_ClearFIFO(void) 
 454:Generated_Source\PSoC5/servoPwm.c ****         {
 455:Generated_Source\PSoC5/servoPwm.c ****             while(0u != (servoPwm_ReadStatusRegister() & servoPwm_STATUS_FIFONEMPTY))
 456:Generated_Source\PSoC5/servoPwm.c ****             {
 457:Generated_Source\PSoC5/servoPwm.c ****                 (void)servoPwm_ReadCapture();
 458:Generated_Source\PSoC5/servoPwm.c ****             }
 459:Generated_Source\PSoC5/servoPwm.c ****         }
 460:Generated_Source\PSoC5/servoPwm.c **** 
 461:Generated_Source\PSoC5/servoPwm.c ****     #endif /* servoPwm_UseStatus */
 462:Generated_Source\PSoC5/servoPwm.c **** 
 463:Generated_Source\PSoC5/servoPwm.c **** #endif /* !servoPwm_UsingFixedFunction */
 464:Generated_Source\PSoC5/servoPwm.c **** 
 465:Generated_Source\PSoC5/servoPwm.c **** 
 466:Generated_Source\PSoC5/servoPwm.c **** /*******************************************************************************
 467:Generated_Source\PSoC5/servoPwm.c **** * Function Name: servoPwm_WritePeriod
 468:Generated_Source\PSoC5/servoPwm.c **** ********************************************************************************
 469:Generated_Source\PSoC5/servoPwm.c **** *
 470:Generated_Source\PSoC5/servoPwm.c **** * Summary:
 471:Generated_Source\PSoC5/servoPwm.c **** *  This function is used to change the period of the counter.  The new period
 472:Generated_Source\PSoC5/servoPwm.c **** *  will be loaded the next time terminal count is detected.
 473:Generated_Source\PSoC5/servoPwm.c **** *
 474:Generated_Source\PSoC5/servoPwm.c **** * Parameters:
 475:Generated_Source\PSoC5/servoPwm.c **** *  period:  Period value. May be between 1 and (2^Resolution)-1.  A value of 0
 476:Generated_Source\PSoC5/servoPwm.c **** *           will result in the counter remaining at zero.
 477:Generated_Source\PSoC5/servoPwm.c **** *
 478:Generated_Source\PSoC5/servoPwm.c **** * Return:
 479:Generated_Source\PSoC5/servoPwm.c **** *  None
 480:Generated_Source\PSoC5/servoPwm.c **** *
 481:Generated_Source\PSoC5/servoPwm.c **** *******************************************************************************/
 482:Generated_Source\PSoC5/servoPwm.c **** void servoPwm_WritePeriod(uint16 period) 
 483:Generated_Source\PSoC5/servoPwm.c **** {
 135              		.loc 1 483 0
 136              		.cfi_startproc
 137              		@ args = 0, pretend = 0, frame = 0
 138              		@ frame_needed = 0, uses_anonymous_args = 0
 139              		@ link register save eliminated.
 140              	.LVL1:
 484:Generated_Source\PSoC5/servoPwm.c ****     #if(servoPwm_UsingFixedFunction)
 485:Generated_Source\PSoC5/servoPwm.c ****         CY_SET_REG16(servoPwm_PERIOD_LSB_PTR, (uint16)period);
 486:Generated_Source\PSoC5/servoPwm.c ****     #else
 487:Generated_Source\PSoC5/servoPwm.c ****         CY_SET_REG16(servoPwm_PERIOD_LSB_PTR, period);
ARM GAS  C:\Users\Jacob\AppData\Local\Temp\ccWbZkNb.s 			page 12


 141              		.loc 1 487 0
 142 0000 014B     		ldr	r3, .L14
 143 0002 1880     		strh	r0, [r3]	@ movhi
 144 0004 7047     		bx	lr
 145              	.L15:
 146 0006 00BF     		.align	2
 147              	.L14:
 148 0008 9C680040 		.word	1073768604
 149              		.cfi_endproc
 150              	.LFE7:
 151              		.size	servoPwm_WritePeriod, .-servoPwm_WritePeriod
 152              		.section	.text.servoPwm_WriteCompare1,"ax",%progbits
 153              		.align	2
 154              		.global	servoPwm_WriteCompare1
 155              		.thumb
 156              		.thumb_func
 157              		.type	servoPwm_WriteCompare1, %function
 158              	servoPwm_WriteCompare1:
 159              	.LFB8:
 488:Generated_Source\PSoC5/servoPwm.c ****     #endif /* (servoPwm_UsingFixedFunction) */
 489:Generated_Source\PSoC5/servoPwm.c **** }
 490:Generated_Source\PSoC5/servoPwm.c **** 
 491:Generated_Source\PSoC5/servoPwm.c **** #if (servoPwm_UseOneCompareMode)
 492:Generated_Source\PSoC5/servoPwm.c **** 
 493:Generated_Source\PSoC5/servoPwm.c **** 
 494:Generated_Source\PSoC5/servoPwm.c ****     /*******************************************************************************
 495:Generated_Source\PSoC5/servoPwm.c ****     * Function Name: servoPwm_WriteCompare
 496:Generated_Source\PSoC5/servoPwm.c ****     ********************************************************************************
 497:Generated_Source\PSoC5/servoPwm.c ****     *
 498:Generated_Source\PSoC5/servoPwm.c ****     * Summary:
 499:Generated_Source\PSoC5/servoPwm.c ****     *  This funtion is used to change the compare1 value when the PWM is in Dither
 500:Generated_Source\PSoC5/servoPwm.c ****     *  mode. The compare output will reflect the new value on the next UDB clock.
 501:Generated_Source\PSoC5/servoPwm.c ****     *  The compare output will be driven high when the present counter value is
 502:Generated_Source\PSoC5/servoPwm.c ****     *  compared to the compare value based on the compare mode defined in
 503:Generated_Source\PSoC5/servoPwm.c ****     *  Dither Mode.
 504:Generated_Source\PSoC5/servoPwm.c ****     *
 505:Generated_Source\PSoC5/servoPwm.c ****     * Parameters:
 506:Generated_Source\PSoC5/servoPwm.c ****     *  compare:  New compare value.
 507:Generated_Source\PSoC5/servoPwm.c ****     *
 508:Generated_Source\PSoC5/servoPwm.c ****     * Return:
 509:Generated_Source\PSoC5/servoPwm.c ****     *  None
 510:Generated_Source\PSoC5/servoPwm.c ****     *
 511:Generated_Source\PSoC5/servoPwm.c ****     * Side Effects:
 512:Generated_Source\PSoC5/servoPwm.c ****     *  This function is only available if the PWM mode parameter is set to
 513:Generated_Source\PSoC5/servoPwm.c ****     *  Dither Mode, Center Aligned Mode or One Output Mode
 514:Generated_Source\PSoC5/servoPwm.c ****     *
 515:Generated_Source\PSoC5/servoPwm.c ****     *******************************************************************************/
 516:Generated_Source\PSoC5/servoPwm.c ****     void servoPwm_WriteCompare(uint16 compare) \
 517:Generated_Source\PSoC5/servoPwm.c ****                                        
 518:Generated_Source\PSoC5/servoPwm.c ****     {
 519:Generated_Source\PSoC5/servoPwm.c ****         #if(servoPwm_UsingFixedFunction)
 520:Generated_Source\PSoC5/servoPwm.c ****             CY_SET_REG16(servoPwm_COMPARE1_LSB_PTR, (uint16)compare);
 521:Generated_Source\PSoC5/servoPwm.c ****         #else
 522:Generated_Source\PSoC5/servoPwm.c ****             CY_SET_REG16(servoPwm_COMPARE1_LSB_PTR, compare);
 523:Generated_Source\PSoC5/servoPwm.c ****         #endif /* (servoPwm_UsingFixedFunction) */
 524:Generated_Source\PSoC5/servoPwm.c **** 
 525:Generated_Source\PSoC5/servoPwm.c ****         #if (servoPwm_PWMMode == servoPwm__B_PWM__DITHER)
ARM GAS  C:\Users\Jacob\AppData\Local\Temp\ccWbZkNb.s 			page 13


 526:Generated_Source\PSoC5/servoPwm.c ****             #if(servoPwm_UsingFixedFunction)
 527:Generated_Source\PSoC5/servoPwm.c ****                 CY_SET_REG16(servoPwm_COMPARE2_LSB_PTR, (uint16)(compare + 1u));
 528:Generated_Source\PSoC5/servoPwm.c ****             #else
 529:Generated_Source\PSoC5/servoPwm.c ****                 CY_SET_REG16(servoPwm_COMPARE2_LSB_PTR, (compare + 1u));
 530:Generated_Source\PSoC5/servoPwm.c ****             #endif /* (servoPwm_UsingFixedFunction) */
 531:Generated_Source\PSoC5/servoPwm.c ****         #endif /* (servoPwm_PWMMode == servoPwm__B_PWM__DITHER) */
 532:Generated_Source\PSoC5/servoPwm.c ****     }
 533:Generated_Source\PSoC5/servoPwm.c **** 
 534:Generated_Source\PSoC5/servoPwm.c **** 
 535:Generated_Source\PSoC5/servoPwm.c **** #else
 536:Generated_Source\PSoC5/servoPwm.c **** 
 537:Generated_Source\PSoC5/servoPwm.c **** 
 538:Generated_Source\PSoC5/servoPwm.c ****     /*******************************************************************************
 539:Generated_Source\PSoC5/servoPwm.c ****     * Function Name: servoPwm_WriteCompare1
 540:Generated_Source\PSoC5/servoPwm.c ****     ********************************************************************************
 541:Generated_Source\PSoC5/servoPwm.c ****     *
 542:Generated_Source\PSoC5/servoPwm.c ****     * Summary:
 543:Generated_Source\PSoC5/servoPwm.c ****     *  This funtion is used to change the compare1 value.  The compare output will
 544:Generated_Source\PSoC5/servoPwm.c ****     *  reflect the new value on the next UDB clock.  The compare output will be
 545:Generated_Source\PSoC5/servoPwm.c ****     *  driven high when the present counter value is less than or less than or
 546:Generated_Source\PSoC5/servoPwm.c ****     *  equal to the compare register, depending on the mode.
 547:Generated_Source\PSoC5/servoPwm.c ****     *
 548:Generated_Source\PSoC5/servoPwm.c ****     * Parameters:
 549:Generated_Source\PSoC5/servoPwm.c ****     *  compare:  New compare value.
 550:Generated_Source\PSoC5/servoPwm.c ****     *
 551:Generated_Source\PSoC5/servoPwm.c ****     * Return:
 552:Generated_Source\PSoC5/servoPwm.c ****     *  None
 553:Generated_Source\PSoC5/servoPwm.c ****     *
 554:Generated_Source\PSoC5/servoPwm.c ****     *******************************************************************************/
 555:Generated_Source\PSoC5/servoPwm.c ****     void servoPwm_WriteCompare1(uint16 compare) \
 556:Generated_Source\PSoC5/servoPwm.c ****                                         
 557:Generated_Source\PSoC5/servoPwm.c ****     {
 160              		.loc 1 557 0
 161              		.cfi_startproc
 162              		@ args = 0, pretend = 0, frame = 0
 163              		@ frame_needed = 0, uses_anonymous_args = 0
 164              		@ link register save eliminated.
 165              	.LVL2:
 558:Generated_Source\PSoC5/servoPwm.c ****         #if(servoPwm_UsingFixedFunction)
 559:Generated_Source\PSoC5/servoPwm.c ****             CY_SET_REG16(servoPwm_COMPARE1_LSB_PTR, (uint16)compare);
 560:Generated_Source\PSoC5/servoPwm.c ****         #else
 561:Generated_Source\PSoC5/servoPwm.c ****             CY_SET_REG16(servoPwm_COMPARE1_LSB_PTR, compare);
 166              		.loc 1 561 0
 167 0000 014B     		ldr	r3, .L17
 168 0002 1880     		strh	r0, [r3]	@ movhi
 169 0004 7047     		bx	lr
 170              	.L18:
 171 0006 00BF     		.align	2
 172              	.L17:
 173 0008 5C680040 		.word	1073768540
 174              		.cfi_endproc
 175              	.LFE8:
 176              		.size	servoPwm_WriteCompare1, .-servoPwm_WriteCompare1
 177              		.section	.text.servoPwm_WriteCompare2,"ax",%progbits
 178              		.align	2
 179              		.global	servoPwm_WriteCompare2
 180              		.thumb
ARM GAS  C:\Users\Jacob\AppData\Local\Temp\ccWbZkNb.s 			page 14


 181              		.thumb_func
 182              		.type	servoPwm_WriteCompare2, %function
 183              	servoPwm_WriteCompare2:
 184              	.LFB9:
 562:Generated_Source\PSoC5/servoPwm.c ****         #endif /* (servoPwm_UsingFixedFunction) */
 563:Generated_Source\PSoC5/servoPwm.c ****     }
 564:Generated_Source\PSoC5/servoPwm.c **** 
 565:Generated_Source\PSoC5/servoPwm.c **** 
 566:Generated_Source\PSoC5/servoPwm.c ****     /*******************************************************************************
 567:Generated_Source\PSoC5/servoPwm.c ****     * Function Name: servoPwm_WriteCompare2
 568:Generated_Source\PSoC5/servoPwm.c ****     ********************************************************************************
 569:Generated_Source\PSoC5/servoPwm.c ****     *
 570:Generated_Source\PSoC5/servoPwm.c ****     * Summary:
 571:Generated_Source\PSoC5/servoPwm.c ****     *  This funtion is used to change the compare value, for compare1 output.
 572:Generated_Source\PSoC5/servoPwm.c ****     *  The compare output will reflect the new value on the next UDB clock.
 573:Generated_Source\PSoC5/servoPwm.c ****     *  The compare output will be driven high when the present counter value is
 574:Generated_Source\PSoC5/servoPwm.c ****     *  less than or less than or equal to the compare register, depending on the
 575:Generated_Source\PSoC5/servoPwm.c ****     *  mode.
 576:Generated_Source\PSoC5/servoPwm.c ****     *
 577:Generated_Source\PSoC5/servoPwm.c ****     * Parameters:
 578:Generated_Source\PSoC5/servoPwm.c ****     *  compare:  New compare value.
 579:Generated_Source\PSoC5/servoPwm.c ****     *
 580:Generated_Source\PSoC5/servoPwm.c ****     * Return:
 581:Generated_Source\PSoC5/servoPwm.c ****     *  None
 582:Generated_Source\PSoC5/servoPwm.c ****     *
 583:Generated_Source\PSoC5/servoPwm.c ****     *******************************************************************************/
 584:Generated_Source\PSoC5/servoPwm.c ****     void servoPwm_WriteCompare2(uint16 compare) \
 585:Generated_Source\PSoC5/servoPwm.c ****                                         
 586:Generated_Source\PSoC5/servoPwm.c ****     {
 185              		.loc 1 586 0
 186              		.cfi_startproc
 187              		@ args = 0, pretend = 0, frame = 0
 188              		@ frame_needed = 0, uses_anonymous_args = 0
 189              		@ link register save eliminated.
 190              	.LVL3:
 587:Generated_Source\PSoC5/servoPwm.c ****         #if(servoPwm_UsingFixedFunction)
 588:Generated_Source\PSoC5/servoPwm.c ****             CY_SET_REG16(servoPwm_COMPARE2_LSB_PTR, compare);
 589:Generated_Source\PSoC5/servoPwm.c ****         #else
 590:Generated_Source\PSoC5/servoPwm.c ****             CY_SET_REG16(servoPwm_COMPARE2_LSB_PTR, compare);
 191              		.loc 1 590 0
 192 0000 014B     		ldr	r3, .L20
 193 0002 1880     		strh	r0, [r3]	@ movhi
 194 0004 7047     		bx	lr
 195              	.L21:
 196 0006 00BF     		.align	2
 197              	.L20:
 198 0008 7C680040 		.word	1073768572
 199              		.cfi_endproc
 200              	.LFE9:
 201              		.size	servoPwm_WriteCompare2, .-servoPwm_WriteCompare2
 202              		.section	.text.servoPwm_SetInterruptMode,"ax",%progbits
 203              		.align	2
 204              		.global	servoPwm_SetInterruptMode
 205              		.thumb
 206              		.thumb_func
 207              		.type	servoPwm_SetInterruptMode, %function
 208              	servoPwm_SetInterruptMode:
ARM GAS  C:\Users\Jacob\AppData\Local\Temp\ccWbZkNb.s 			page 15


 209              	.LFB10:
 591:Generated_Source\PSoC5/servoPwm.c ****         #endif /* (servoPwm_UsingFixedFunction) */
 592:Generated_Source\PSoC5/servoPwm.c ****     }
 593:Generated_Source\PSoC5/servoPwm.c **** #endif /* UseOneCompareMode */
 594:Generated_Source\PSoC5/servoPwm.c **** 
 595:Generated_Source\PSoC5/servoPwm.c **** #if (servoPwm_DeadBandUsed)
 596:Generated_Source\PSoC5/servoPwm.c **** 
 597:Generated_Source\PSoC5/servoPwm.c **** 
 598:Generated_Source\PSoC5/servoPwm.c ****     /*******************************************************************************
 599:Generated_Source\PSoC5/servoPwm.c ****     * Function Name: servoPwm_WriteDeadTime
 600:Generated_Source\PSoC5/servoPwm.c ****     ********************************************************************************
 601:Generated_Source\PSoC5/servoPwm.c ****     *
 602:Generated_Source\PSoC5/servoPwm.c ****     * Summary:
 603:Generated_Source\PSoC5/servoPwm.c ****     *  This function writes the dead-band counts to the corresponding register
 604:Generated_Source\PSoC5/servoPwm.c ****     *
 605:Generated_Source\PSoC5/servoPwm.c ****     * Parameters:
 606:Generated_Source\PSoC5/servoPwm.c ****     *  deadtime:  Number of counts for dead time
 607:Generated_Source\PSoC5/servoPwm.c ****     *
 608:Generated_Source\PSoC5/servoPwm.c ****     * Return:
 609:Generated_Source\PSoC5/servoPwm.c ****     *  None
 610:Generated_Source\PSoC5/servoPwm.c ****     *
 611:Generated_Source\PSoC5/servoPwm.c ****     *******************************************************************************/
 612:Generated_Source\PSoC5/servoPwm.c ****     void servoPwm_WriteDeadTime(uint8 deadtime) 
 613:Generated_Source\PSoC5/servoPwm.c ****     {
 614:Generated_Source\PSoC5/servoPwm.c ****         /* If using the Dead Band 1-255 mode then just write the register */
 615:Generated_Source\PSoC5/servoPwm.c ****         #if(!servoPwm_DeadBand2_4)
 616:Generated_Source\PSoC5/servoPwm.c ****             CY_SET_REG8(servoPwm_DEADBAND_COUNT_PTR, deadtime);
 617:Generated_Source\PSoC5/servoPwm.c ****         #else
 618:Generated_Source\PSoC5/servoPwm.c ****             /* Otherwise the data has to be masked and offset */
 619:Generated_Source\PSoC5/servoPwm.c ****             /* Clear existing data */
 620:Generated_Source\PSoC5/servoPwm.c ****             servoPwm_DEADBAND_COUNT &= ((uint8)(~servoPwm_DEADBAND_COUNT_MASK));
 621:Generated_Source\PSoC5/servoPwm.c **** 
 622:Generated_Source\PSoC5/servoPwm.c ****             /* Set new dead time */
 623:Generated_Source\PSoC5/servoPwm.c ****             #if(servoPwm_DEADBAND_COUNT_SHIFT)
 624:Generated_Source\PSoC5/servoPwm.c ****                 servoPwm_DEADBAND_COUNT |= ((uint8)((uint8)deadtime << servoPwm_DEADBAND_COUNT_SHIF
 625:Generated_Source\PSoC5/servoPwm.c ****                                                     servoPwm_DEADBAND_COUNT_MASK;
 626:Generated_Source\PSoC5/servoPwm.c ****             #else
 627:Generated_Source\PSoC5/servoPwm.c ****                 servoPwm_DEADBAND_COUNT |= deadtime & servoPwm_DEADBAND_COUNT_MASK;
 628:Generated_Source\PSoC5/servoPwm.c ****             #endif /* (servoPwm_DEADBAND_COUNT_SHIFT) */
 629:Generated_Source\PSoC5/servoPwm.c **** 
 630:Generated_Source\PSoC5/servoPwm.c ****         #endif /* (!servoPwm_DeadBand2_4) */
 631:Generated_Source\PSoC5/servoPwm.c ****     }
 632:Generated_Source\PSoC5/servoPwm.c **** 
 633:Generated_Source\PSoC5/servoPwm.c **** 
 634:Generated_Source\PSoC5/servoPwm.c ****     /*******************************************************************************
 635:Generated_Source\PSoC5/servoPwm.c ****     * Function Name: servoPwm_ReadDeadTime
 636:Generated_Source\PSoC5/servoPwm.c ****     ********************************************************************************
 637:Generated_Source\PSoC5/servoPwm.c ****     *
 638:Generated_Source\PSoC5/servoPwm.c ****     * Summary:
 639:Generated_Source\PSoC5/servoPwm.c ****     *  This function reads the dead-band counts from the corresponding register
 640:Generated_Source\PSoC5/servoPwm.c ****     *
 641:Generated_Source\PSoC5/servoPwm.c ****     * Parameters:
 642:Generated_Source\PSoC5/servoPwm.c ****     *  None
 643:Generated_Source\PSoC5/servoPwm.c ****     *
 644:Generated_Source\PSoC5/servoPwm.c ****     * Return:
 645:Generated_Source\PSoC5/servoPwm.c ****     *  Dead Band Counts
 646:Generated_Source\PSoC5/servoPwm.c ****     *
ARM GAS  C:\Users\Jacob\AppData\Local\Temp\ccWbZkNb.s 			page 16


 647:Generated_Source\PSoC5/servoPwm.c ****     *******************************************************************************/
 648:Generated_Source\PSoC5/servoPwm.c ****     uint8 servoPwm_ReadDeadTime(void) 
 649:Generated_Source\PSoC5/servoPwm.c ****     {
 650:Generated_Source\PSoC5/servoPwm.c ****         /* If using the Dead Band 1-255 mode then just read the register */
 651:Generated_Source\PSoC5/servoPwm.c ****         #if(!servoPwm_DeadBand2_4)
 652:Generated_Source\PSoC5/servoPwm.c ****             return (CY_GET_REG8(servoPwm_DEADBAND_COUNT_PTR));
 653:Generated_Source\PSoC5/servoPwm.c ****         #else
 654:Generated_Source\PSoC5/servoPwm.c **** 
 655:Generated_Source\PSoC5/servoPwm.c ****             /* Otherwise the data has to be masked and offset */
 656:Generated_Source\PSoC5/servoPwm.c ****             #if(servoPwm_DEADBAND_COUNT_SHIFT)
 657:Generated_Source\PSoC5/servoPwm.c ****                 return ((uint8)(((uint8)(servoPwm_DEADBAND_COUNT & servoPwm_DEADBAND_COUNT_MASK)) >
 658:Generated_Source\PSoC5/servoPwm.c ****                                                                            servoPwm_DEADBAND_COUNT_
 659:Generated_Source\PSoC5/servoPwm.c ****             #else
 660:Generated_Source\PSoC5/servoPwm.c ****                 return (servoPwm_DEADBAND_COUNT & servoPwm_DEADBAND_COUNT_MASK);
 661:Generated_Source\PSoC5/servoPwm.c ****             #endif /* (servoPwm_DEADBAND_COUNT_SHIFT) */
 662:Generated_Source\PSoC5/servoPwm.c ****         #endif /* (!servoPwm_DeadBand2_4) */
 663:Generated_Source\PSoC5/servoPwm.c ****     }
 664:Generated_Source\PSoC5/servoPwm.c **** #endif /* DeadBandUsed */
 665:Generated_Source\PSoC5/servoPwm.c **** 
 666:Generated_Source\PSoC5/servoPwm.c **** #if (servoPwm_UseStatus || servoPwm_UsingFixedFunction)
 667:Generated_Source\PSoC5/servoPwm.c **** 
 668:Generated_Source\PSoC5/servoPwm.c **** 
 669:Generated_Source\PSoC5/servoPwm.c ****     /*******************************************************************************
 670:Generated_Source\PSoC5/servoPwm.c ****     * Function Name: servoPwm_SetInterruptMode
 671:Generated_Source\PSoC5/servoPwm.c ****     ********************************************************************************
 672:Generated_Source\PSoC5/servoPwm.c ****     *
 673:Generated_Source\PSoC5/servoPwm.c ****     * Summary:
 674:Generated_Source\PSoC5/servoPwm.c ****     *  This function configures the interrupts mask control of theinterrupt
 675:Generated_Source\PSoC5/servoPwm.c ****     *  source status register.
 676:Generated_Source\PSoC5/servoPwm.c ****     *
 677:Generated_Source\PSoC5/servoPwm.c ****     * Parameters:
 678:Generated_Source\PSoC5/servoPwm.c ****     *  uint8 interruptMode: Bit field containing the interrupt sources enabled
 679:Generated_Source\PSoC5/servoPwm.c ****     *
 680:Generated_Source\PSoC5/servoPwm.c ****     * Return:
 681:Generated_Source\PSoC5/servoPwm.c ****     *  None
 682:Generated_Source\PSoC5/servoPwm.c ****     *
 683:Generated_Source\PSoC5/servoPwm.c ****     *******************************************************************************/
 684:Generated_Source\PSoC5/servoPwm.c ****     void servoPwm_SetInterruptMode(uint8 interruptMode) 
 685:Generated_Source\PSoC5/servoPwm.c ****     {
 210              		.loc 1 685 0
 211              		.cfi_startproc
 212              		@ args = 0, pretend = 0, frame = 0
 213              		@ frame_needed = 0, uses_anonymous_args = 0
 214              		@ link register save eliminated.
 215              	.LVL4:
 686:Generated_Source\PSoC5/servoPwm.c ****         CY_SET_REG8(servoPwm_STATUS_MASK_PTR, interruptMode);
 216              		.loc 1 686 0
 217 0000 014B     		ldr	r3, .L23
 218 0002 1870     		strb	r0, [r3]
 219 0004 7047     		bx	lr
 220              	.L24:
 221 0006 00BF     		.align	2
 222              	.L23:
 223 0008 8A640040 		.word	1073767562
 224              		.cfi_endproc
 225              	.LFE10:
 226              		.size	servoPwm_SetInterruptMode, .-servoPwm_SetInterruptMode
ARM GAS  C:\Users\Jacob\AppData\Local\Temp\ccWbZkNb.s 			page 17


 227              		.section	.text.servoPwm_ReadStatusRegister,"ax",%progbits
 228              		.align	2
 229              		.global	servoPwm_ReadStatusRegister
 230              		.thumb
 231              		.thumb_func
 232              		.type	servoPwm_ReadStatusRegister, %function
 233              	servoPwm_ReadStatusRegister:
 234              	.LFB11:
 687:Generated_Source\PSoC5/servoPwm.c ****     }
 688:Generated_Source\PSoC5/servoPwm.c **** 
 689:Generated_Source\PSoC5/servoPwm.c **** 
 690:Generated_Source\PSoC5/servoPwm.c ****     /*******************************************************************************
 691:Generated_Source\PSoC5/servoPwm.c ****     * Function Name: servoPwm_ReadStatusRegister
 692:Generated_Source\PSoC5/servoPwm.c ****     ********************************************************************************
 693:Generated_Source\PSoC5/servoPwm.c ****     *
 694:Generated_Source\PSoC5/servoPwm.c ****     * Summary:
 695:Generated_Source\PSoC5/servoPwm.c ****     *  This function returns the current state of the status register.
 696:Generated_Source\PSoC5/servoPwm.c ****     *
 697:Generated_Source\PSoC5/servoPwm.c ****     * Parameters:
 698:Generated_Source\PSoC5/servoPwm.c ****     *  None
 699:Generated_Source\PSoC5/servoPwm.c ****     *
 700:Generated_Source\PSoC5/servoPwm.c ****     * Return:
 701:Generated_Source\PSoC5/servoPwm.c ****     *  uint8 : Current status register value. The status register bits are:
 702:Generated_Source\PSoC5/servoPwm.c ****     *  [7:6] : Unused(0)
 703:Generated_Source\PSoC5/servoPwm.c ****     *  [5]   : Kill event output
 704:Generated_Source\PSoC5/servoPwm.c ****     *  [4]   : FIFO not empty
 705:Generated_Source\PSoC5/servoPwm.c ****     *  [3]   : FIFO full
 706:Generated_Source\PSoC5/servoPwm.c ****     *  [2]   : Terminal count
 707:Generated_Source\PSoC5/servoPwm.c ****     *  [1]   : Compare output 2
 708:Generated_Source\PSoC5/servoPwm.c ****     *  [0]   : Compare output 1
 709:Generated_Source\PSoC5/servoPwm.c ****     *
 710:Generated_Source\PSoC5/servoPwm.c ****     *******************************************************************************/
 711:Generated_Source\PSoC5/servoPwm.c ****     uint8 servoPwm_ReadStatusRegister(void) 
 712:Generated_Source\PSoC5/servoPwm.c ****     {
 235              		.loc 1 712 0
 236              		.cfi_startproc
 237              		@ args = 0, pretend = 0, frame = 0
 238              		@ frame_needed = 0, uses_anonymous_args = 0
 239              		@ link register save eliminated.
 713:Generated_Source\PSoC5/servoPwm.c ****         return (CY_GET_REG8(servoPwm_STATUS_PTR));
 240              		.loc 1 713 0
 241 0000 014B     		ldr	r3, .L26
 242 0002 1878     		ldrb	r0, [r3]	@ zero_extendqisi2
 714:Generated_Source\PSoC5/servoPwm.c ****     }
 243              		.loc 1 714 0
 244 0004 7047     		bx	lr
 245              	.L27:
 246 0006 00BF     		.align	2
 247              	.L26:
 248 0008 6A640040 		.word	1073767530
 249              		.cfi_endproc
 250              	.LFE11:
 251              		.size	servoPwm_ReadStatusRegister, .-servoPwm_ReadStatusRegister
 252              		.section	.text.servoPwm_ReadControlRegister,"ax",%progbits
 253              		.align	2
 254              		.global	servoPwm_ReadControlRegister
 255              		.thumb
ARM GAS  C:\Users\Jacob\AppData\Local\Temp\ccWbZkNb.s 			page 18


 256              		.thumb_func
 257              		.type	servoPwm_ReadControlRegister, %function
 258              	servoPwm_ReadControlRegister:
 259              	.LFB12:
 715:Generated_Source\PSoC5/servoPwm.c **** 
 716:Generated_Source\PSoC5/servoPwm.c **** #endif /* (servoPwm_UseStatus || servoPwm_UsingFixedFunction) */
 717:Generated_Source\PSoC5/servoPwm.c **** 
 718:Generated_Source\PSoC5/servoPwm.c **** 
 719:Generated_Source\PSoC5/servoPwm.c **** #if (servoPwm_UseControl)
 720:Generated_Source\PSoC5/servoPwm.c **** 
 721:Generated_Source\PSoC5/servoPwm.c **** 
 722:Generated_Source\PSoC5/servoPwm.c ****     /*******************************************************************************
 723:Generated_Source\PSoC5/servoPwm.c ****     * Function Name: servoPwm_ReadControlRegister
 724:Generated_Source\PSoC5/servoPwm.c ****     ********************************************************************************
 725:Generated_Source\PSoC5/servoPwm.c ****     *
 726:Generated_Source\PSoC5/servoPwm.c ****     * Summary:
 727:Generated_Source\PSoC5/servoPwm.c ****     *  Returns the current state of the control register. This API is available
 728:Generated_Source\PSoC5/servoPwm.c ****     *  only if the control register is not removed.
 729:Generated_Source\PSoC5/servoPwm.c ****     *
 730:Generated_Source\PSoC5/servoPwm.c ****     * Parameters:
 731:Generated_Source\PSoC5/servoPwm.c ****     *  None
 732:Generated_Source\PSoC5/servoPwm.c ****     *
 733:Generated_Source\PSoC5/servoPwm.c ****     * Return:
 734:Generated_Source\PSoC5/servoPwm.c ****     *  uint8 : Current control register value
 735:Generated_Source\PSoC5/servoPwm.c ****     *
 736:Generated_Source\PSoC5/servoPwm.c ****     *******************************************************************************/
 737:Generated_Source\PSoC5/servoPwm.c ****     uint8 servoPwm_ReadControlRegister(void) 
 738:Generated_Source\PSoC5/servoPwm.c ****     {
 260              		.loc 1 738 0
 261              		.cfi_startproc
 262              		@ args = 0, pretend = 0, frame = 0
 263              		@ frame_needed = 0, uses_anonymous_args = 0
 264              		@ link register save eliminated.
 739:Generated_Source\PSoC5/servoPwm.c ****         uint8 result;
 740:Generated_Source\PSoC5/servoPwm.c **** 
 741:Generated_Source\PSoC5/servoPwm.c ****         result = CY_GET_REG8(servoPwm_CONTROL_PTR);
 265              		.loc 1 741 0
 266 0000 014B     		ldr	r3, .L29
 267 0002 1878     		ldrb	r0, [r3]	@ zero_extendqisi2
 268              	.LVL5:
 742:Generated_Source\PSoC5/servoPwm.c ****         return (result);
 743:Generated_Source\PSoC5/servoPwm.c ****     }
 269              		.loc 1 743 0
 270 0004 7047     		bx	lr
 271              	.L30:
 272 0006 00BF     		.align	2
 273              	.L29:
 274 0008 78640040 		.word	1073767544
 275              		.cfi_endproc
 276              	.LFE12:
 277              		.size	servoPwm_ReadControlRegister, .-servoPwm_ReadControlRegister
 278              		.section	.text.servoPwm_WriteControlRegister,"ax",%progbits
 279              		.align	2
 280              		.global	servoPwm_WriteControlRegister
 281              		.thumb
 282              		.thumb_func
 283              		.type	servoPwm_WriteControlRegister, %function
ARM GAS  C:\Users\Jacob\AppData\Local\Temp\ccWbZkNb.s 			page 19


 284              	servoPwm_WriteControlRegister:
 285              	.LFB13:
 744:Generated_Source\PSoC5/servoPwm.c **** 
 745:Generated_Source\PSoC5/servoPwm.c **** 
 746:Generated_Source\PSoC5/servoPwm.c ****     /*******************************************************************************
 747:Generated_Source\PSoC5/servoPwm.c ****     * Function Name: servoPwm_WriteControlRegister
 748:Generated_Source\PSoC5/servoPwm.c ****     ********************************************************************************
 749:Generated_Source\PSoC5/servoPwm.c ****     *
 750:Generated_Source\PSoC5/servoPwm.c ****     * Summary:
 751:Generated_Source\PSoC5/servoPwm.c ****     *  Sets the bit field of the control register. This API is available only if
 752:Generated_Source\PSoC5/servoPwm.c ****     *  the control register is not removed.
 753:Generated_Source\PSoC5/servoPwm.c ****     *
 754:Generated_Source\PSoC5/servoPwm.c ****     * Parameters:
 755:Generated_Source\PSoC5/servoPwm.c ****     *  uint8 control: Control register bit field, The status register bits are:
 756:Generated_Source\PSoC5/servoPwm.c ****     *  [7]   : PWM Enable
 757:Generated_Source\PSoC5/servoPwm.c ****     *  [6]   : Reset
 758:Generated_Source\PSoC5/servoPwm.c ****     *  [5:3] : Compare Mode2
 759:Generated_Source\PSoC5/servoPwm.c ****     *  [2:0] : Compare Mode2
 760:Generated_Source\PSoC5/servoPwm.c ****     *
 761:Generated_Source\PSoC5/servoPwm.c ****     * Return:
 762:Generated_Source\PSoC5/servoPwm.c ****     *  None
 763:Generated_Source\PSoC5/servoPwm.c ****     *
 764:Generated_Source\PSoC5/servoPwm.c ****     *******************************************************************************/
 765:Generated_Source\PSoC5/servoPwm.c ****     void servoPwm_WriteControlRegister(uint8 control) 
 766:Generated_Source\PSoC5/servoPwm.c ****     {
 286              		.loc 1 766 0
 287              		.cfi_startproc
 288              		@ args = 0, pretend = 0, frame = 0
 289              		@ frame_needed = 0, uses_anonymous_args = 0
 290              		@ link register save eliminated.
 291              	.LVL6:
 767:Generated_Source\PSoC5/servoPwm.c ****         CY_SET_REG8(servoPwm_CONTROL_PTR, control);
 292              		.loc 1 767 0
 293 0000 014B     		ldr	r3, .L32
 294 0002 1870     		strb	r0, [r3]
 295 0004 7047     		bx	lr
 296              	.L33:
 297 0006 00BF     		.align	2
 298              	.L32:
 299 0008 78640040 		.word	1073767544
 300              		.cfi_endproc
 301              	.LFE13:
 302              		.size	servoPwm_WriteControlRegister, .-servoPwm_WriteControlRegister
 303              		.section	.text.servoPwm_ReadCapture,"ax",%progbits
 304              		.align	2
 305              		.global	servoPwm_ReadCapture
 306              		.thumb
 307              		.thumb_func
 308              		.type	servoPwm_ReadCapture, %function
 309              	servoPwm_ReadCapture:
 310              	.LFB14:
 768:Generated_Source\PSoC5/servoPwm.c ****     }
 769:Generated_Source\PSoC5/servoPwm.c **** 
 770:Generated_Source\PSoC5/servoPwm.c **** #endif /* (servoPwm_UseControl) */
 771:Generated_Source\PSoC5/servoPwm.c **** 
 772:Generated_Source\PSoC5/servoPwm.c **** 
 773:Generated_Source\PSoC5/servoPwm.c **** #if (!servoPwm_UsingFixedFunction)
ARM GAS  C:\Users\Jacob\AppData\Local\Temp\ccWbZkNb.s 			page 20


 774:Generated_Source\PSoC5/servoPwm.c **** 
 775:Generated_Source\PSoC5/servoPwm.c **** 
 776:Generated_Source\PSoC5/servoPwm.c ****     /*******************************************************************************
 777:Generated_Source\PSoC5/servoPwm.c ****     * Function Name: servoPwm_ReadCapture
 778:Generated_Source\PSoC5/servoPwm.c ****     ********************************************************************************
 779:Generated_Source\PSoC5/servoPwm.c ****     *
 780:Generated_Source\PSoC5/servoPwm.c ****     * Summary:
 781:Generated_Source\PSoC5/servoPwm.c ****     *  Reads the capture value from the capture FIFO.
 782:Generated_Source\PSoC5/servoPwm.c ****     *
 783:Generated_Source\PSoC5/servoPwm.c ****     * Parameters:
 784:Generated_Source\PSoC5/servoPwm.c ****     *  None
 785:Generated_Source\PSoC5/servoPwm.c ****     *
 786:Generated_Source\PSoC5/servoPwm.c ****     * Return:
 787:Generated_Source\PSoC5/servoPwm.c ****     *  uint8/uint16: The current capture value
 788:Generated_Source\PSoC5/servoPwm.c ****     *
 789:Generated_Source\PSoC5/servoPwm.c ****     *******************************************************************************/
 790:Generated_Source\PSoC5/servoPwm.c ****     uint16 servoPwm_ReadCapture(void) 
 791:Generated_Source\PSoC5/servoPwm.c ****     {
 311              		.loc 1 791 0
 312              		.cfi_startproc
 313              		@ args = 0, pretend = 0, frame = 0
 314              		@ frame_needed = 0, uses_anonymous_args = 0
 315              		@ link register save eliminated.
 792:Generated_Source\PSoC5/servoPwm.c ****         return (CY_GET_REG16(servoPwm_CAPTURE_LSB_PTR));
 316              		.loc 1 792 0
 317 0000 014B     		ldr	r3, .L35
 318 0002 1888     		ldrh	r0, [r3]
 793:Generated_Source\PSoC5/servoPwm.c ****     }
 319              		.loc 1 793 0
 320 0004 80B2     		uxth	r0, r0
 321 0006 7047     		bx	lr
 322              	.L36:
 323              		.align	2
 324              	.L35:
 325 0008 BC680040 		.word	1073768636
 326              		.cfi_endproc
 327              	.LFE14:
 328              		.size	servoPwm_ReadCapture, .-servoPwm_ReadCapture
 329              		.section	.text.servoPwm_ClearFIFO,"ax",%progbits
 330              		.align	2
 331              		.global	servoPwm_ClearFIFO
 332              		.thumb
 333              		.thumb_func
 334              		.type	servoPwm_ClearFIFO, %function
 335              	servoPwm_ClearFIFO:
 336              	.LFB6:
 454:Generated_Source\PSoC5/servoPwm.c ****             while(0u != (servoPwm_ReadStatusRegister() & servoPwm_STATUS_FIFONEMPTY))
 337              		.loc 1 454 0
 338              		.cfi_startproc
 339              		@ args = 0, pretend = 0, frame = 0
 340              		@ frame_needed = 0, uses_anonymous_args = 0
 341 0000 08B5     		push	{r3, lr}
 342              		.cfi_def_cfa_offset 8
 343              		.cfi_offset 3, -8
 344              		.cfi_offset 14, -4
 455:Generated_Source\PSoC5/servoPwm.c ****             {
 345              		.loc 1 455 0
ARM GAS  C:\Users\Jacob\AppData\Local\Temp\ccWbZkNb.s 			page 21


 346 0002 01E0     		b	.L38
 347              	.L39:
 457:Generated_Source\PSoC5/servoPwm.c ****             }
 348              		.loc 1 457 0
 349 0004 FFF7FEFF 		bl	servoPwm_ReadCapture
 350              	.LVL7:
 351              	.L38:
 455:Generated_Source\PSoC5/servoPwm.c ****             {
 352              		.loc 1 455 0
 353 0008 FFF7FEFF 		bl	servoPwm_ReadStatusRegister
 354              	.LVL8:
 355 000c 10F0100F 		tst	r0, #16
 356 0010 F8D1     		bne	.L39
 459:Generated_Source\PSoC5/servoPwm.c **** 
 357              		.loc 1 459 0
 358 0012 08BD     		pop	{r3, pc}
 359              		.cfi_endproc
 360              	.LFE6:
 361              		.size	servoPwm_ClearFIFO, .-servoPwm_ClearFIFO
 362              		.section	.text.servoPwm_Init,"ax",%progbits
 363              		.align	2
 364              		.global	servoPwm_Init
 365              		.thumb
 366              		.thumb_func
 367              		.type	servoPwm_Init, %function
 368              	servoPwm_Init:
 369              	.LFB1:
  85:Generated_Source\PSoC5/servoPwm.c ****     #if (servoPwm_UsingFixedFunction || servoPwm_UseControl)
 370              		.loc 1 85 0
 371              		.cfi_startproc
 372              		@ args = 0, pretend = 0, frame = 0
 373              		@ frame_needed = 0, uses_anonymous_args = 0
 374 0000 08B5     		push	{r3, lr}
 375              		.cfi_def_cfa_offset 8
 376              		.cfi_offset 3, -8
 377              		.cfi_offset 14, -4
 117:Generated_Source\PSoC5/servoPwm.c ****                 ((uint8)(~servoPwm_CTRL_CMPMODE1_MASK));
 378              		.loc 1 117 0
 379 0002 174A     		ldr	r2, .L43
 380 0004 1378     		ldrb	r3, [r2]	@ zero_extendqisi2
 381 0006 03F0C003 		and	r3, r3, #192
 382              	.LVL9:
 119:Generated_Source\PSoC5/servoPwm.c ****                                    servoPwm_DEFAULT_COMPARE1_MODE;
 383              		.loc 1 119 0
 384 000a 43F00903 		orr	r3, r3, #9
 385              	.LVL10:
 386 000e 1370     		strb	r3, [r2]
 129:Generated_Source\PSoC5/servoPwm.c ****             servoPwm_AUX_CONTROLDP1 |= (servoPwm_AUX_CTRL_FIFO0_CLR);
 387              		.loc 1 129 0
 388 0010 2632     		adds	r2, r2, #38
 389 0012 1378     		ldrb	r3, [r2]	@ zero_extendqisi2
 390 0014 43F00103 		orr	r3, r3, #1
 391 0018 1370     		strb	r3, [r2]
 130:Generated_Source\PSoC5/servoPwm.c ****         #endif /* (servoPwm_Resolution == 8) */
 392              		.loc 1 130 0
 393 001a 0132     		adds	r2, r2, #1
 394 001c 1378     		ldrb	r3, [r2]	@ zero_extendqisi2
ARM GAS  C:\Users\Jacob\AppData\Local\Temp\ccWbZkNb.s 			page 22


 395 001e 43F00103 		orr	r3, r3, #1
 396 0022 1370     		strb	r3, [r2]
 133:Generated_Source\PSoC5/servoPwm.c ****     #endif /* (!servoPwm_UsingFixedFunction) */
 397              		.loc 1 133 0
 398 0024 4EF66020 		movw	r0, #60000
 399 0028 FFF7FEFF 		bl	servoPwm_WriteCounter
 400              	.LVL11:
 136:Generated_Source\PSoC5/servoPwm.c **** 
 401              		.loc 1 136 0
 402 002c 4EF66020 		movw	r0, #60000
 403 0030 FFF7FEFF 		bl	servoPwm_WritePeriod
 404              	.LVL12:
 141:Generated_Source\PSoC5/servoPwm.c ****             servoPwm_WriteCompare2(servoPwm_INIT_COMPARE_VALUE2);
 405              		.loc 1 141 0
 406 0034 0020     		movs	r0, #0
 407 0036 FFF7FEFF 		bl	servoPwm_WriteCompare1
 408              	.LVL13:
 142:Generated_Source\PSoC5/servoPwm.c ****         #endif /* (servoPwm_UseOneCompareMode) */
 409              		.loc 1 142 0
 410 003a 0020     		movs	r0, #0
 411 003c FFF7FEFF 		bl	servoPwm_WriteCompare2
 412              	.LVL14:
 154:Generated_Source\PSoC5/servoPwm.c ****     #endif /* (servoPwm_UseStatus || servoPwm_UsingFixedFunction) */
 413              		.loc 1 154 0
 414 0040 0020     		movs	r0, #0
 415 0042 FFF7FEFF 		bl	servoPwm_SetInterruptMode
 416              	.LVL15:
 167:Generated_Source\PSoC5/servoPwm.c ****             /* Use the interrupt output of the status register for IRQ output */
 417              		.loc 1 167 0
 418 0046 FFF7FEFF 		bl	CyEnterCriticalSection
 419              	.LVL16:
 169:Generated_Source\PSoC5/servoPwm.c **** 
 420              		.loc 1 169 0
 421 004a 064A     		ldr	r2, .L43+4
 422 004c 1378     		ldrb	r3, [r2]	@ zero_extendqisi2
 423 004e 43F01003 		orr	r3, r3, #16
 424 0052 1370     		strb	r3, [r2]
 172:Generated_Source\PSoC5/servoPwm.c **** 
 425              		.loc 1 172 0
 426 0054 FFF7FEFF 		bl	CyExitCriticalSection
 427              	.LVL17:
 176:Generated_Source\PSoC5/servoPwm.c ****         #endif /* (servoPwm_UseStatus) */
 428              		.loc 1 176 0
 429 0058 FFF7FEFF 		bl	servoPwm_ClearFIFO
 430              	.LVL18:
 431 005c 08BD     		pop	{r3, pc}
 432              	.L44:
 433 005e 00BF     		.align	2
 434              	.L43:
 435 0060 78640040 		.word	1073767544
 436 0064 9A640040 		.word	1073767578
 437              		.cfi_endproc
 438              	.LFE1:
 439              		.size	servoPwm_Init, .-servoPwm_Init
 440              		.section	.text.servoPwm_Start,"ax",%progbits
 441              		.align	2
 442              		.global	servoPwm_Start
ARM GAS  C:\Users\Jacob\AppData\Local\Temp\ccWbZkNb.s 			page 23


 443              		.thumb
 444              		.thumb_func
 445              		.type	servoPwm_Start, %function
 446              	servoPwm_Start:
 447              	.LFB0:
  56:Generated_Source\PSoC5/servoPwm.c ****     /* If not Initialized then initialize all required hardware and software */
 448              		.loc 1 56 0
 449              		.cfi_startproc
 450              		@ args = 0, pretend = 0, frame = 0
 451              		@ frame_needed = 0, uses_anonymous_args = 0
 452 0000 08B5     		push	{r3, lr}
 453              		.cfi_def_cfa_offset 8
 454              		.cfi_offset 3, -8
 455              		.cfi_offset 14, -4
  58:Generated_Source\PSoC5/servoPwm.c ****     {
 456              		.loc 1 58 0
 457 0002 054B     		ldr	r3, .L48
 458 0004 1B78     		ldrb	r3, [r3]	@ zero_extendqisi2
 459 0006 23B9     		cbnz	r3, .L46
  60:Generated_Source\PSoC5/servoPwm.c ****         servoPwm_initVar = 1u;
 460              		.loc 1 60 0
 461 0008 FFF7FEFF 		bl	servoPwm_Init
 462              	.LVL19:
  61:Generated_Source\PSoC5/servoPwm.c ****     }
 463              		.loc 1 61 0
 464 000c 0122     		movs	r2, #1
 465 000e 024B     		ldr	r3, .L48
 466 0010 1A70     		strb	r2, [r3]
 467              	.L46:
  63:Generated_Source\PSoC5/servoPwm.c **** 
 468              		.loc 1 63 0
 469 0012 FFF7FEFF 		bl	servoPwm_Enable
 470              	.LVL20:
 471 0016 08BD     		pop	{r3, pc}
 472              	.L49:
 473              		.align	2
 474              	.L48:
 475 0018 00000000 		.word	.LANCHOR0
 476              		.cfi_endproc
 477              	.LFE0:
 478              		.size	servoPwm_Start, .-servoPwm_Start
 479              		.section	.text.servoPwm_ReadCompare1,"ax",%progbits
 480              		.align	2
 481              		.global	servoPwm_ReadCompare1
 482              		.thumb
 483              		.thumb_func
 484              		.type	servoPwm_ReadCompare1, %function
 485              	servoPwm_ReadCompare1:
 486              	.LFB15:
 794:Generated_Source\PSoC5/servoPwm.c **** 
 795:Generated_Source\PSoC5/servoPwm.c **** #endif /* (!servoPwm_UsingFixedFunction) */
 796:Generated_Source\PSoC5/servoPwm.c **** 
 797:Generated_Source\PSoC5/servoPwm.c **** 
 798:Generated_Source\PSoC5/servoPwm.c **** #if (servoPwm_UseOneCompareMode)
 799:Generated_Source\PSoC5/servoPwm.c **** 
 800:Generated_Source\PSoC5/servoPwm.c **** 
 801:Generated_Source\PSoC5/servoPwm.c ****     /*******************************************************************************
ARM GAS  C:\Users\Jacob\AppData\Local\Temp\ccWbZkNb.s 			page 24


 802:Generated_Source\PSoC5/servoPwm.c ****     * Function Name: servoPwm_ReadCompare
 803:Generated_Source\PSoC5/servoPwm.c ****     ********************************************************************************
 804:Generated_Source\PSoC5/servoPwm.c ****     *
 805:Generated_Source\PSoC5/servoPwm.c ****     * Summary:
 806:Generated_Source\PSoC5/servoPwm.c ****     *  Reads the compare value for the compare output when the PWM Mode parameter is
 807:Generated_Source\PSoC5/servoPwm.c ****     *  set to Dither mode, Center Aligned mode, or One Output mode.
 808:Generated_Source\PSoC5/servoPwm.c ****     *
 809:Generated_Source\PSoC5/servoPwm.c ****     * Parameters:
 810:Generated_Source\PSoC5/servoPwm.c ****     *  None
 811:Generated_Source\PSoC5/servoPwm.c ****     *
 812:Generated_Source\PSoC5/servoPwm.c ****     * Return:
 813:Generated_Source\PSoC5/servoPwm.c ****     *  uint8/uint16: Current compare value
 814:Generated_Source\PSoC5/servoPwm.c ****     *
 815:Generated_Source\PSoC5/servoPwm.c ****     *******************************************************************************/
 816:Generated_Source\PSoC5/servoPwm.c ****     uint16 servoPwm_ReadCompare(void) 
 817:Generated_Source\PSoC5/servoPwm.c ****     {
 818:Generated_Source\PSoC5/servoPwm.c ****         #if(servoPwm_UsingFixedFunction)
 819:Generated_Source\PSoC5/servoPwm.c ****             return ((uint16)CY_GET_REG16(servoPwm_COMPARE1_LSB_PTR));
 820:Generated_Source\PSoC5/servoPwm.c ****         #else
 821:Generated_Source\PSoC5/servoPwm.c ****             return (CY_GET_REG16(servoPwm_COMPARE1_LSB_PTR));
 822:Generated_Source\PSoC5/servoPwm.c ****         #endif /* (servoPwm_UsingFixedFunction) */
 823:Generated_Source\PSoC5/servoPwm.c ****     }
 824:Generated_Source\PSoC5/servoPwm.c **** 
 825:Generated_Source\PSoC5/servoPwm.c **** #else
 826:Generated_Source\PSoC5/servoPwm.c **** 
 827:Generated_Source\PSoC5/servoPwm.c **** 
 828:Generated_Source\PSoC5/servoPwm.c ****     /*******************************************************************************
 829:Generated_Source\PSoC5/servoPwm.c ****     * Function Name: servoPwm_ReadCompare1
 830:Generated_Source\PSoC5/servoPwm.c ****     ********************************************************************************
 831:Generated_Source\PSoC5/servoPwm.c ****     *
 832:Generated_Source\PSoC5/servoPwm.c ****     * Summary:
 833:Generated_Source\PSoC5/servoPwm.c ****     *  Reads the compare value for the compare1 output.
 834:Generated_Source\PSoC5/servoPwm.c ****     *
 835:Generated_Source\PSoC5/servoPwm.c ****     * Parameters:
 836:Generated_Source\PSoC5/servoPwm.c ****     *  None
 837:Generated_Source\PSoC5/servoPwm.c ****     *
 838:Generated_Source\PSoC5/servoPwm.c ****     * Return:
 839:Generated_Source\PSoC5/servoPwm.c ****     *  uint8/uint16: Current compare value.
 840:Generated_Source\PSoC5/servoPwm.c ****     *
 841:Generated_Source\PSoC5/servoPwm.c ****     *******************************************************************************/
 842:Generated_Source\PSoC5/servoPwm.c ****     uint16 servoPwm_ReadCompare1(void) 
 843:Generated_Source\PSoC5/servoPwm.c ****     {
 487              		.loc 1 843 0
 488              		.cfi_startproc
 489              		@ args = 0, pretend = 0, frame = 0
 490              		@ frame_needed = 0, uses_anonymous_args = 0
 491              		@ link register save eliminated.
 844:Generated_Source\PSoC5/servoPwm.c ****         return (CY_GET_REG16(servoPwm_COMPARE1_LSB_PTR));
 492              		.loc 1 844 0
 493 0000 014B     		ldr	r3, .L51
 494 0002 1888     		ldrh	r0, [r3]
 845:Generated_Source\PSoC5/servoPwm.c ****     }
 495              		.loc 1 845 0
 496 0004 80B2     		uxth	r0, r0
 497 0006 7047     		bx	lr
 498              	.L52:
 499              		.align	2
ARM GAS  C:\Users\Jacob\AppData\Local\Temp\ccWbZkNb.s 			page 25


 500              	.L51:
 501 0008 5C680040 		.word	1073768540
 502              		.cfi_endproc
 503              	.LFE15:
 504              		.size	servoPwm_ReadCompare1, .-servoPwm_ReadCompare1
 505              		.section	.text.servoPwm_ReadCompare2,"ax",%progbits
 506              		.align	2
 507              		.global	servoPwm_ReadCompare2
 508              		.thumb
 509              		.thumb_func
 510              		.type	servoPwm_ReadCompare2, %function
 511              	servoPwm_ReadCompare2:
 512              	.LFB16:
 846:Generated_Source\PSoC5/servoPwm.c **** 
 847:Generated_Source\PSoC5/servoPwm.c **** 
 848:Generated_Source\PSoC5/servoPwm.c ****     /*******************************************************************************
 849:Generated_Source\PSoC5/servoPwm.c ****     * Function Name: servoPwm_ReadCompare2
 850:Generated_Source\PSoC5/servoPwm.c ****     ********************************************************************************
 851:Generated_Source\PSoC5/servoPwm.c ****     *
 852:Generated_Source\PSoC5/servoPwm.c ****     * Summary:
 853:Generated_Source\PSoC5/servoPwm.c ****     *  Reads the compare value for the compare2 output.
 854:Generated_Source\PSoC5/servoPwm.c ****     *
 855:Generated_Source\PSoC5/servoPwm.c ****     * Parameters:
 856:Generated_Source\PSoC5/servoPwm.c ****     *  None
 857:Generated_Source\PSoC5/servoPwm.c ****     *
 858:Generated_Source\PSoC5/servoPwm.c ****     * Return:
 859:Generated_Source\PSoC5/servoPwm.c ****     *  uint8/uint16: Current compare value.
 860:Generated_Source\PSoC5/servoPwm.c ****     *
 861:Generated_Source\PSoC5/servoPwm.c ****     *******************************************************************************/
 862:Generated_Source\PSoC5/servoPwm.c ****     uint16 servoPwm_ReadCompare2(void) 
 863:Generated_Source\PSoC5/servoPwm.c ****     {
 513              		.loc 1 863 0
 514              		.cfi_startproc
 515              		@ args = 0, pretend = 0, frame = 0
 516              		@ frame_needed = 0, uses_anonymous_args = 0
 517              		@ link register save eliminated.
 864:Generated_Source\PSoC5/servoPwm.c ****         return (CY_GET_REG16(servoPwm_COMPARE2_LSB_PTR));
 518              		.loc 1 864 0
 519 0000 014B     		ldr	r3, .L54
 520 0002 1888     		ldrh	r0, [r3]
 865:Generated_Source\PSoC5/servoPwm.c ****     }
 521              		.loc 1 865 0
 522 0004 80B2     		uxth	r0, r0
 523 0006 7047     		bx	lr
 524              	.L55:
 525              		.align	2
 526              	.L54:
 527 0008 7C680040 		.word	1073768572
 528              		.cfi_endproc
 529              	.LFE16:
 530              		.size	servoPwm_ReadCompare2, .-servoPwm_ReadCompare2
 531              		.section	.text.servoPwm_ReadPeriod,"ax",%progbits
 532              		.align	2
 533              		.global	servoPwm_ReadPeriod
 534              		.thumb
 535              		.thumb_func
 536              		.type	servoPwm_ReadPeriod, %function
ARM GAS  C:\Users\Jacob\AppData\Local\Temp\ccWbZkNb.s 			page 26


 537              	servoPwm_ReadPeriod:
 538              	.LFB17:
 866:Generated_Source\PSoC5/servoPwm.c **** 
 867:Generated_Source\PSoC5/servoPwm.c **** #endif /* (servoPwm_UseOneCompareMode) */
 868:Generated_Source\PSoC5/servoPwm.c **** 
 869:Generated_Source\PSoC5/servoPwm.c **** 
 870:Generated_Source\PSoC5/servoPwm.c **** /*******************************************************************************
 871:Generated_Source\PSoC5/servoPwm.c **** * Function Name: servoPwm_ReadPeriod
 872:Generated_Source\PSoC5/servoPwm.c **** ********************************************************************************
 873:Generated_Source\PSoC5/servoPwm.c **** *
 874:Generated_Source\PSoC5/servoPwm.c **** * Summary:
 875:Generated_Source\PSoC5/servoPwm.c **** *  Reads the period value used by the PWM hardware.
 876:Generated_Source\PSoC5/servoPwm.c **** *
 877:Generated_Source\PSoC5/servoPwm.c **** * Parameters:
 878:Generated_Source\PSoC5/servoPwm.c **** *  None
 879:Generated_Source\PSoC5/servoPwm.c **** *
 880:Generated_Source\PSoC5/servoPwm.c **** * Return:
 881:Generated_Source\PSoC5/servoPwm.c **** *  uint8/16: Period value
 882:Generated_Source\PSoC5/servoPwm.c **** *
 883:Generated_Source\PSoC5/servoPwm.c **** *******************************************************************************/
 884:Generated_Source\PSoC5/servoPwm.c **** uint16 servoPwm_ReadPeriod(void) 
 885:Generated_Source\PSoC5/servoPwm.c **** {
 539              		.loc 1 885 0
 540              		.cfi_startproc
 541              		@ args = 0, pretend = 0, frame = 0
 542              		@ frame_needed = 0, uses_anonymous_args = 0
 543              		@ link register save eliminated.
 886:Generated_Source\PSoC5/servoPwm.c ****     #if(servoPwm_UsingFixedFunction)
 887:Generated_Source\PSoC5/servoPwm.c ****         return ((uint16)CY_GET_REG16(servoPwm_PERIOD_LSB_PTR));
 888:Generated_Source\PSoC5/servoPwm.c ****     #else
 889:Generated_Source\PSoC5/servoPwm.c ****         return (CY_GET_REG16(servoPwm_PERIOD_LSB_PTR));
 544              		.loc 1 889 0
 545 0000 014B     		ldr	r3, .L57
 546 0002 1888     		ldrh	r0, [r3]
 890:Generated_Source\PSoC5/servoPwm.c ****     #endif /* (servoPwm_UsingFixedFunction) */
 891:Generated_Source\PSoC5/servoPwm.c **** }
 547              		.loc 1 891 0
 548 0004 80B2     		uxth	r0, r0
 549 0006 7047     		bx	lr
 550              	.L58:
 551              		.align	2
 552              	.L57:
 553 0008 9C680040 		.word	1073768604
 554              		.cfi_endproc
 555              	.LFE17:
 556              		.size	servoPwm_ReadPeriod, .-servoPwm_ReadPeriod
 557              		.global	servoPwm_initVar
 558              		.bss
 559              		.set	.LANCHOR0,. + 0
 560              		.type	servoPwm_initVar, %object
 561              		.size	servoPwm_initVar, 1
 562              	servoPwm_initVar:
 563 0000 00       		.space	1
 564              		.text
 565              	.Letext0:
 566              		.file 2 "Generated_Source\\PSoC5\\cytypes.h"
 567              		.file 3 "Generated_Source\\PSoC5\\CyLib.h"
ARM GAS  C:\Users\Jacob\AppData\Local\Temp\ccWbZkNb.s 			page 27

