ARM GAS  C:\Users\Jacob\AppData\Local\Temp\ccUNbXfG.s 			page 1


   1              		.syntax unified
   2              		.cpu cortex-m3
   3              		.fpu softvfp
   4              		.eabi_attribute 20, 1
   5              		.eabi_attribute 21, 1
   6              		.eabi_attribute 23, 3
   7              		.eabi_attribute 24, 1
   8              		.eabi_attribute 25, 1
   9              		.eabi_attribute 26, 1
  10              		.eabi_attribute 30, 1
  11              		.eabi_attribute 34, 1
  12              		.eabi_attribute 18, 4
  13              		.thumb
  14              		.syntax unified
  15              		.file	"main.c"
  16              		.text
  17              	.Ltext0:
  18              		.cfi_sections	.debug_frame
  19              		.section	.text.readKeypad,"ax",%progbits
  20              		.align	2
  21              		.global	readKeypad
  22              		.thumb
  23              		.thumb_func
  24              		.type	readKeypad, %function
  25              	readKeypad:
  26              	.LFB64:
  27              		.file 1 "main.c"
   1:main.c        **** /* ========================================
   2:main.c        ****  *
   3:main.c        ****  * Copyright YOUR COMPANY, THE YEAR
   4:main.c        ****  * All Rights Reserved
   5:main.c        ****  * UNPUBLISHED, LICENSED SOFTWARE.
   6:main.c        ****  *
   7:main.c        ****  * CONFIDENTIAL AND PROPRIETARY INFORMATION
   8:main.c        ****  * WHICH IS THE PROPERTY OF your company.
   9:main.c        ****  *
  10:main.c        ****  * ========================================
  11:main.c        **** */
  12:main.c        **** #include "project.h"
  13:main.c        **** #include "math.h"
  14:main.c        **** #include "stdio.h"
  15:main.c        **** 
  16:main.c        **** int readKeypad(){
  28              		.loc 1 16 0
  29              		.cfi_startproc
  30              		@ args = 0, pretend = 0, frame = 0
  31              		@ frame_needed = 0, uses_anonymous_args = 0
  32 0000 08B5     		push	{r3, lr}
  33              		.cfi_def_cfa_offset 8
  34              		.cfi_offset 3, -8
  35              		.cfi_offset 14, -4
  36              	.LVL0:
  17:main.c        ****     int key=0;
  18:main.c        ****     Row1_Write(1);
  37              		.loc 1 18 0
  38 0002 0120     		movs	r0, #1
  39 0004 FFF7FEFF 		bl	Row1_Write
ARM GAS  C:\Users\Jacob\AppData\Local\Temp\ccUNbXfG.s 			page 2


  40              	.LVL1:
  19:main.c        ****     Row2_Write(0);
  41              		.loc 1 19 0
  42 0008 0020     		movs	r0, #0
  43 000a FFF7FEFF 		bl	Row2_Write
  44              	.LVL2:
  20:main.c        ****     Row3_Write(0);
  45              		.loc 1 20 0
  46 000e 0020     		movs	r0, #0
  47 0010 FFF7FEFF 		bl	Row3_Write
  48              	.LVL3:
  21:main.c        ****     Row4_Write(0);
  49              		.loc 1 21 0
  50 0014 0020     		movs	r0, #0
  51 0016 FFF7FEFF 		bl	Row4_Write
  52              	.LVL4:
  22:main.c        ****     if(Col1_Read())
  53              		.loc 1 22 0
  54 001a FFF7FEFF 		bl	Col1_Read
  55              	.LVL5:
  56 001e 38B9     		cbnz	r0, .L3
  23:main.c        ****         key=1;
  24:main.c        ****     else if(Col2_Read())
  57              		.loc 1 24 0
  58 0020 FFF7FEFF 		bl	Col2_Read
  59              	.LVL6:
  60 0024 30B9     		cbnz	r0, .L4
  25:main.c        ****         key=2;
  26:main.c        ****     else if(Col3_Read())
  61              		.loc 1 26 0
  62 0026 FFF7FEFF 		bl	Col3_Read
  63              	.LVL7:
  64 002a 28B1     		cbz	r0, .L5
  27:main.c        ****         key=3;
  65              		.loc 1 27 0
  66 002c 0320     		movs	r0, #3
  67 002e 08BD     		pop	{r3, pc}
  68              	.L3:
  23:main.c        ****         key=1;
  69              		.loc 1 23 0
  70 0030 0120     		movs	r0, #1
  71 0032 08BD     		pop	{r3, pc}
  72              	.L4:
  25:main.c        ****         key=2;
  73              		.loc 1 25 0
  74 0034 0220     		movs	r0, #2
  75 0036 08BD     		pop	{r3, pc}
  76              	.L5:
  28:main.c        ****     else
  29:main.c        ****         key = 0;
  77              		.loc 1 29 0
  78 0038 0020     		movs	r0, #0
  79              	.LVL8:
  30:main.c        ****     return key;
  31:main.c        **** }
  80              		.loc 1 31 0
  81 003a 08BD     		pop	{r3, pc}
ARM GAS  C:\Users\Jacob\AppData\Local\Temp\ccUNbXfG.s 			page 3


  82              		.cfi_endproc
  83              	.LFE64:
  84              		.size	readKeypad, .-readKeypad
  85              		.section	.text.setPins,"ax",%progbits
  86              		.align	2
  87              		.global	setPins
  88              		.thumb
  89              		.thumb_func
  90              		.type	setPins, %function
  91              	setPins:
  92              	.LFB65:
  32:main.c        **** 
  33:main.c        **** void setPins(int a,int b,int c,int d){
  93              		.loc 1 33 0
  94              		.cfi_startproc
  95              		@ args = 0, pretend = 0, frame = 0
  96              		@ frame_needed = 0, uses_anonymous_args = 0
  97              	.LVL9:
  98 0000 70B5     		push	{r4, r5, r6, lr}
  99              		.cfi_def_cfa_offset 16
 100              		.cfi_offset 4, -16
 101              		.cfi_offset 5, -12
 102              		.cfi_offset 6, -8
 103              		.cfi_offset 14, -4
 104 0002 0E46     		mov	r6, r1
 105 0004 1546     		mov	r5, r2
 106 0006 1C46     		mov	r4, r3
  34:main.c        ****     A_Write(a);
 107              		.loc 1 34 0
 108 0008 C0B2     		uxtb	r0, r0
 109              	.LVL10:
 110 000a FFF7FEFF 		bl	A_Write
 111              	.LVL11:
  35:main.c        ****     B_Write(b);
 112              		.loc 1 35 0
 113 000e F0B2     		uxtb	r0, r6
 114 0010 FFF7FEFF 		bl	B_Write
 115              	.LVL12:
  36:main.c        ****     C_Write(c);
 116              		.loc 1 36 0
 117 0014 E8B2     		uxtb	r0, r5
 118 0016 FFF7FEFF 		bl	C_Write
 119              	.LVL13:
  37:main.c        ****     D_Write(d);
 120              		.loc 1 37 0
 121 001a E0B2     		uxtb	r0, r4
 122 001c FFF7FEFF 		bl	D_Write
 123              	.LVL14:
 124 0020 70BD     		pop	{r4, r5, r6, pc}
 125              		.cfi_endproc
 126              	.LFE65:
 127              		.size	setPins, .-setPins
 128              		.global	__aeabi_f2d
 129              		.global	__aeabi_ddiv
 130              		.global	__aeabi_d2f
 131              		.global	__aeabi_fmul
 132              		.global	__aeabi_f2iz
ARM GAS  C:\Users\Jacob\AppData\Local\Temp\ccUNbXfG.s 			page 4


 133 0022 00BF     		.section	.text.setVelocity,"ax",%progbits
 134              		.align	2
 135              		.global	setVelocity
 136              		.thumb
 137              		.thumb_func
 138              		.type	setVelocity, %function
 139              	setVelocity:
 140              	.LFB66:
  38:main.c        **** }
  39:main.c        **** 
  40:main.c        **** void setVelocity(float omega, int direction){
 141              		.loc 1 40 0
 142              		.cfi_startproc
 143              		@ args = 0, pretend = 0, frame = 0
 144              		@ frame_needed = 0, uses_anonymous_args = 0
 145              	.LVL15:
 146 0000 38B5     		push	{r3, r4, r5, lr}
 147              		.cfi_def_cfa_offset 16
 148              		.cfi_offset 3, -16
 149              		.cfi_offset 4, -12
 150              		.cfi_offset 5, -8
 151              		.cfi_offset 14, -4
 152 0002 0D46     		mov	r5, r1
  41:main.c        ****     float delayS = (2.0*3.14159/2048.0/fabs(omega));
 153              		.loc 1 41 0
 154 0004 20F00040 		bic	r0, r0, #-2147483648
 155              	.LVL16:
 156 0008 FFF7FEFF 		bl	__aeabi_f2d
 157              	.LVL17:
 158 000c 0246     		mov	r2, r0
 159 000e 0B46     		mov	r3, r1
 160 0010 2DA1     		adr	r1, .L13
 161 0012 D1E90001 		ldrd	r0, [r1]
 162 0016 FFF7FEFF 		bl	__aeabi_ddiv
 163              	.LVL18:
 164 001a FFF7FEFF 		bl	__aeabi_d2f
 165              	.LVL19:
  42:main.c        ****     delayS = delayS*1000.0;
 166              		.loc 1 42 0
 167 001e 2C49     		ldr	r1, .L13+8
 168 0020 FFF7FEFF 		bl	__aeabi_fmul
 169              	.LVL20:
  43:main.c        ****     int delay = delayS;
 170              		.loc 1 43 0
 171 0024 FFF7FEFF 		bl	__aeabi_f2iz
 172              	.LVL21:
 173 0028 0446     		mov	r4, r0
 174              	.LVL22:
  44:main.c        ****     if(direction > 0){
 175              		.loc 1 44 0
 176 002a 002D     		cmp	r5, #0
 177 002c 24DD     		ble	.L10
  45:main.c        ****         setPins(1,0,0,0);
 178              		.loc 1 45 0
 179 002e 0023     		movs	r3, #0
 180 0030 1A46     		mov	r2, r3
 181 0032 1946     		mov	r1, r3
ARM GAS  C:\Users\Jacob\AppData\Local\Temp\ccUNbXfG.s 			page 5


 182 0034 0120     		movs	r0, #1
 183              	.LVL23:
 184 0036 FFF7FEFF 		bl	setPins
 185              	.LVL24:
  46:main.c        ****         CyDelay(delay);
 186              		.loc 1 46 0
 187 003a 2046     		mov	r0, r4
 188 003c FFF7FEFF 		bl	CyDelay
 189              	.LVL25:
  47:main.c        ****         setPins(0,1,0,0);
 190              		.loc 1 47 0
 191 0040 0023     		movs	r3, #0
 192 0042 1A46     		mov	r2, r3
 193 0044 0121     		movs	r1, #1
 194 0046 1846     		mov	r0, r3
 195 0048 FFF7FEFF 		bl	setPins
 196              	.LVL26:
  48:main.c        ****         CyDelay(delay);
 197              		.loc 1 48 0
 198 004c 2046     		mov	r0, r4
 199 004e FFF7FEFF 		bl	CyDelay
 200              	.LVL27:
  49:main.c        ****         setPins(0,0,1,0);
 201              		.loc 1 49 0
 202 0052 0023     		movs	r3, #0
 203 0054 0122     		movs	r2, #1
 204 0056 1946     		mov	r1, r3
 205 0058 1846     		mov	r0, r3
 206 005a FFF7FEFF 		bl	setPins
 207              	.LVL28:
  50:main.c        ****         CyDelay(delay);
 208              		.loc 1 50 0
 209 005e 2046     		mov	r0, r4
 210 0060 FFF7FEFF 		bl	CyDelay
 211              	.LVL29:
  51:main.c        ****         setPins(0,0,0,1);
 212              		.loc 1 51 0
 213 0064 0123     		movs	r3, #1
 214 0066 0022     		movs	r2, #0
 215 0068 1146     		mov	r1, r2
 216 006a 1046     		mov	r0, r2
 217 006c FFF7FEFF 		bl	setPins
 218              	.LVL30:
  52:main.c        ****         CyDelay(delay);
 219              		.loc 1 52 0
 220 0070 2046     		mov	r0, r4
 221 0072 FFF7FEFF 		bl	CyDelay
 222              	.LVL31:
 223 0076 38BD     		pop	{r3, r4, r5, pc}
 224              	.LVL32:
 225              	.L10:
  53:main.c        ****     }
  54:main.c        ****     else if(direction < 0){
 226              		.loc 1 54 0
 227 0078 002D     		cmp	r5, #0
 228 007a 23DA     		bge	.L9
  55:main.c        ****         setPins(0,0,0,1);
ARM GAS  C:\Users\Jacob\AppData\Local\Temp\ccUNbXfG.s 			page 6


 229              		.loc 1 55 0
 230 007c 0123     		movs	r3, #1
 231 007e 0022     		movs	r2, #0
 232 0080 1146     		mov	r1, r2
 233 0082 1046     		mov	r0, r2
 234              	.LVL33:
 235 0084 FFF7FEFF 		bl	setPins
 236              	.LVL34:
  56:main.c        ****         CyDelay(delay);
 237              		.loc 1 56 0
 238 0088 2046     		mov	r0, r4
 239 008a FFF7FEFF 		bl	CyDelay
 240              	.LVL35:
  57:main.c        ****         setPins(0,0,1,0);
 241              		.loc 1 57 0
 242 008e 0023     		movs	r3, #0
 243 0090 0122     		movs	r2, #1
 244 0092 1946     		mov	r1, r3
 245 0094 1846     		mov	r0, r3
 246 0096 FFF7FEFF 		bl	setPins
 247              	.LVL36:
  58:main.c        ****         CyDelay(delay);
 248              		.loc 1 58 0
 249 009a 2046     		mov	r0, r4
 250 009c FFF7FEFF 		bl	CyDelay
 251              	.LVL37:
  59:main.c        ****         setPins(0,1,0,0);
 252              		.loc 1 59 0
 253 00a0 0023     		movs	r3, #0
 254 00a2 1A46     		mov	r2, r3
 255 00a4 0121     		movs	r1, #1
 256 00a6 1846     		mov	r0, r3
 257 00a8 FFF7FEFF 		bl	setPins
 258              	.LVL38:
  60:main.c        ****         CyDelay(delay);
 259              		.loc 1 60 0
 260 00ac 2046     		mov	r0, r4
 261 00ae FFF7FEFF 		bl	CyDelay
 262              	.LVL39:
  61:main.c        ****         setPins(1,0,0,0);
 263              		.loc 1 61 0
 264 00b2 0023     		movs	r3, #0
 265 00b4 1A46     		mov	r2, r3
 266 00b6 1946     		mov	r1, r3
 267 00b8 0120     		movs	r0, #1
 268 00ba FFF7FEFF 		bl	setPins
 269              	.LVL40:
  62:main.c        ****         CyDelay(delay);
 270              		.loc 1 62 0
 271 00be 2046     		mov	r0, r4
 272 00c0 FFF7FEFF 		bl	CyDelay
 273              	.LVL41:
 274              	.L9:
 275 00c4 38BD     		pop	{r3, r4, r5, pc}
 276              	.LVL42:
 277              	.L14:
 278 00c6 00BF     		.align	3
ARM GAS  C:\Users\Jacob\AppData\Local\Temp\ccUNbXfG.s 			page 7


 279              	.L13:
 280 00c8 6E861BF0 		.word	-266631570
 281 00cc F921693F 		.word	1063854585
 282 00d0 00007A44 		.word	1148846080
 283              		.cfi_endproc
 284              	.LFE66:
 285              		.size	setVelocity, .-setVelocity
 286              		.global	__aeabi_dadd
 287              		.global	__aeabi_fcmplt
 288              		.section	.text.moveToAngle,"ax",%progbits
 289              		.align	2
 290              		.global	moveToAngle
 291              		.thumb
 292              		.thumb_func
 293              		.type	moveToAngle, %function
 294              	moveToAngle:
 295              	.LFB67:
  63:main.c        ****     }
  64:main.c        **** }
  65:main.c        **** 
  66:main.c        **** void moveToAngle(float theta, float omega, int direction){
 296              		.loc 1 66 0
 297              		.cfi_startproc
 298              		@ args = 0, pretend = 0, frame = 0
 299              		@ frame_needed = 0, uses_anonymous_args = 0
 300              	.LVL43:
 301 0000 F8B5     		push	{r3, r4, r5, r6, r7, lr}
 302              		.cfi_def_cfa_offset 24
 303              		.cfi_offset 3, -24
 304              		.cfi_offset 4, -20
 305              		.cfi_offset 5, -16
 306              		.cfi_offset 6, -12
 307              		.cfi_offset 7, -8
 308              		.cfi_offset 14, -4
 309 0002 0546     		mov	r5, r0
 310 0004 0F46     		mov	r7, r1
 311 0006 1646     		mov	r6, r2
 312              	.LVL44:
  67:main.c        ****     float angle = 0.0;
 313              		.loc 1 67 0
 314 0008 0024     		movs	r4, #0
  68:main.c        ****     float degPerStep = 360.0/2048.0;
  69:main.c        ****     while(fabs(angle) < fabs(theta)){
 315              		.loc 1 69 0
 316 000a 0DE0     		b	.L16
 317              	.LVL45:
 318              	.L17:
  70:main.c        ****         setVelocity(omega, direction);
 319              		.loc 1 70 0
 320 000c 3146     		mov	r1, r6
 321 000e 3846     		mov	r0, r7
 322 0010 FFF7FEFF 		bl	setVelocity
 323              	.LVL46:
  71:main.c        ****         angle += degPerStep*4.0;
 324              		.loc 1 71 0
 325 0014 2046     		mov	r0, r4
 326 0016 FFF7FEFF 		bl	__aeabi_f2d
ARM GAS  C:\Users\Jacob\AppData\Local\Temp\ccUNbXfG.s 			page 8


 327              	.LVL47:
 328 001a 0022     		movs	r2, #0
 329 001c 074B     		ldr	r3, .L19
 330 001e FFF7FEFF 		bl	__aeabi_dadd
 331              	.LVL48:
 332 0022 FFF7FEFF 		bl	__aeabi_d2f
 333              	.LVL49:
 334 0026 0446     		mov	r4, r0
 335              	.LVL50:
 336              	.L16:
  69:main.c        ****         setVelocity(omega, direction);
 337              		.loc 1 69 0
 338 0028 24F00040 		bic	r0, r4, #-2147483648
 339 002c 25F00041 		bic	r1, r5, #-2147483648
 340 0030 FFF7FEFF 		bl	__aeabi_fcmplt
 341              	.LVL51:
 342 0034 0028     		cmp	r0, #0
 343 0036 E9D1     		bne	.L17
  72:main.c        ****     }
  73:main.c        ****     
  74:main.c        **** }
 344              		.loc 1 74 0
 345 0038 F8BD     		pop	{r3, r4, r5, r6, r7, pc}
 346              	.LVL52:
 347              	.L20:
 348 003a 00BF     		.align	2
 349              	.L19:
 350 003c 0080E63F 		.word	1072070656
 351              		.cfi_endproc
 352              	.LFE67:
 353              		.size	moveToAngle, .-moveToAngle
 354              		.section	.text.main,"ax",%progbits
 355              		.align	2
 356              		.global	main
 357              		.thumb
 358              		.thumb_func
 359              		.type	main, %function
 360              	main:
 361              	.LFB68:
  75:main.c        **** 
  76:main.c        **** int main(void)
  77:main.c        **** {
 362              		.loc 1 77 0
 363              		.cfi_startproc
 364              		@ Volatile: function does not return.
 365              		@ args = 0, pretend = 0, frame = 0
 366              		@ frame_needed = 0, uses_anonymous_args = 0
 367 0000 08B5     		push	{r3, lr}
 368              		.cfi_def_cfa_offset 8
 369              		.cfi_offset 3, -8
 370              		.cfi_offset 14, -4
 371              	.L22:
  78:main.c        ****     for(;;)
  79:main.c        ****     {
  80:main.c        ****     if(readKeypad() == 1)
 372              		.loc 1 80 0
 373 0002 FFF7FEFF 		bl	readKeypad
ARM GAS  C:\Users\Jacob\AppData\Local\Temp\ccUNbXfG.s 			page 9


 374              	.LVL53:
 375 0006 0128     		cmp	r0, #1
 376 0008 05D1     		bne	.L23
  81:main.c        ****         setVelocity(1.0, 1);
 377              		.loc 1 81 0
 378 000a 0121     		movs	r1, #1
 379 000c 4FF07E50 		mov	r0, #1065353216
 380 0010 FFF7FEFF 		bl	setVelocity
 381              	.LVL54:
 382 0014 F5E7     		b	.L22
 383              	.L23:
  82:main.c        ****     else if(readKeypad() == 2)
 384              		.loc 1 82 0
 385 0016 FFF7FEFF 		bl	readKeypad
 386              	.LVL55:
 387 001a 0228     		cmp	r0, #2
 388 001c 06D1     		bne	.L25
  83:main.c        ****         setVelocity(1.0, -1);
 389              		.loc 1 83 0
 390 001e 4FF0FF31 		mov	r1, #-1
 391 0022 4FF07E50 		mov	r0, #1065353216
 392 0026 FFF7FEFF 		bl	setVelocity
 393              	.LVL56:
 394 002a EAE7     		b	.L22
 395              	.L25:
  84:main.c        ****     else if(readKeypad() == 3)
 396              		.loc 1 84 0
 397 002c FFF7FEFF 		bl	readKeypad
 398              	.LVL57:
 399 0030 0328     		cmp	r0, #3
 400 0032 E6D1     		bne	.L22
  85:main.c        ****         moveToAngle(180.0,0.31, -1);
 401              		.loc 1 85 0
 402 0034 4FF0FF32 		mov	r2, #-1
 403 0038 0249     		ldr	r1, .L27
 404 003a 0348     		ldr	r0, .L27+4
 405 003c FFF7FEFF 		bl	moveToAngle
 406              	.LVL58:
 407 0040 DFE7     		b	.L22
 408              	.L28:
 409 0042 00BF     		.align	2
 410              	.L27:
 411 0044 52B89E3E 		.word	1050589266
 412 0048 00003443 		.word	1127481344
 413              		.cfi_endproc
 414              	.LFE68:
 415              		.size	main, .-main
 416              		.text
 417              	.Letext0:
 418              		.file 2 "c:\\program files (x86)\\cypress\\psoc creator\\4.1\\psoc creator\\import\\gnu\\arm\\5.4.
 419              		.file 3 "c:\\program files (x86)\\cypress\\psoc creator\\4.1\\psoc creator\\import\\gnu\\arm\\5.4.
 420              		.file 4 "Generated_Source\\PSoC5/Row1.h"
 421              		.file 5 "Generated_Source\\PSoC5/Row2.h"
 422              		.file 6 "Generated_Source\\PSoC5/Row3.h"
 423              		.file 7 "Generated_Source\\PSoC5/Row4.h"
 424              		.file 8 "Generated_Source\\PSoC5/Col1.h"
 425              		.file 9 "Generated_Source\\PSoC5/Col2.h"
ARM GAS  C:\Users\Jacob\AppData\Local\Temp\ccUNbXfG.s 			page 10


 426              		.file 10 "Generated_Source\\PSoC5/Col3.h"
 427              		.file 11 "Generated_Source\\PSoC5/A.h"
 428              		.file 12 "Generated_Source\\PSoC5/B.h"
 429              		.file 13 "Generated_Source\\PSoC5/C.h"
 430              		.file 14 "Generated_Source\\PSoC5/D.h"
 431              		.file 15 "Generated_Source\\PSoC5/CyLib.h"
 432              		.file 16 "Generated_Source\\PSoC5/core_cm3.h"