ARM GAS  C:\Users\Jacob\AppData\Local\Temp\ccyFDmz0.s 			page 1


   1              		.syntax unified
   2              		.cpu cortex-m3
   3              		.fpu softvfp
   4              		.eabi_attribute 20, 1
   5              		.eabi_attribute 21, 1
   6              		.eabi_attribute 23, 3
   7              		.eabi_attribute 24, 1
   8              		.eabi_attribute 25, 1
   9              		.eabi_attribute 26, 1
  10              		.eabi_attribute 30, 1
  11              		.eabi_attribute 34, 1
  12              		.eabi_attribute 18, 4
  13              		.thumb
  14              		.syntax unified
  15              		.file	"main.c"
  16              		.text
  17              	.Ltext0:
  18              		.cfi_sections	.debug_frame
  19              		.section	.text.main,"ax",%progbits
  20              		.align	2
  21              		.global	main
  22              		.thumb
  23              		.thumb_func
  24              		.type	main, %function
  25              	main:
  26              	.LFB63:
  27              		.file 1 "main.c"
   1:main.c        **** /* ========================================
   2:main.c        ****  *
   3:main.c        ****  * Copyright YOUR COMPANY, THE YEAR
   4:main.c        ****  * All Rights Reserved
   5:main.c        ****  * UNPUBLISHED, LICENSED SOFTWARE.
   6:main.c        ****  *
   7:main.c        ****  * CONFIDENTIAL AND PROPRIETARY INFORMATION
   8:main.c        ****  * WHICH IS THE PROPERTY OF your company.
   9:main.c        ****  *
  10:main.c        ****  * ========================================
  11:main.c        **** */
  12:main.c        **** #include "project.h"
  13:main.c        **** 
  14:main.c        **** int main(void)
  15:main.c        **** {
  28              		.loc 1 15 0
  29              		.cfi_startproc
  30              		@ args = 0, pretend = 0, frame = 0
  31              		@ frame_needed = 0, uses_anonymous_args = 0
  32 0000 38B5     		push	{r3, r4, r5, lr}
  33              		.cfi_def_cfa_offset 16
  34              		.cfi_offset 3, -16
  35              		.cfi_offset 4, -12
  36              		.cfi_offset 5, -8
  37              		.cfi_offset 14, -4
  38              	.LVL0:
  16:main.c        ****     int count1, count2, dCount, target1=500, target2=1000;
  17:main.c        ****     int rot, deg;
  18:main.c        ****     float cpr = 814.0, rpm;
  19:main.c        ****     int compare;
ARM GAS  C:\Users\Jacob\AppData\Local\Temp\ccyFDmz0.s 			page 2


  20:main.c        ****     int time;
  21:main.c        ****     enc_Start();
  39              		.loc 1 21 0
  40 0002 FFF7FEFF 		bl	enc_Start
  41              	.LVL1:
  22:main.c        ****     lcd_Start();
  42              		.loc 1 22 0
  43 0006 FFF7FEFF 		bl	lcd_Start
  44              	.LVL2:
  23:main.c        ****     pwm_Start();
  45              		.loc 1 23 0
  46 000a FFF7FEFF 		bl	pwm_Start
  47              	.LVL3:
  24:main.c        ****     enc_SetCounter(0);
  48              		.loc 1 24 0
  49 000e 0020     		movs	r0, #0
  50 0010 FFF7FEFF 		bl	enc_SetCounter
  51              	.LVL4:
  52              	.L12:
  25:main.c        **** 
  26:main.c        ****     for(;;)
  27:main.c        ****     {
  28:main.c        ****         count1 = enc_GetCounter();
  53              		.loc 1 28 0
  54 0014 FFF7FEFF 		bl	enc_GetCounter
  55              	.LVL5:
  29:main.c        ****         time=0;
  56              		.loc 1 29 0
  57 0018 0025     		movs	r5, #0
  30:main.c        ****         while(time<5000){
  58              		.loc 1 30 0
  59 001a 2AE0     		b	.L2
  60              	.LVL6:
  61              	.L6:
  31:main.c        ****             count1 = enc_GetCounter();
  62              		.loc 1 31 0
  63 001c FFF7FEFF 		bl	enc_GetCounter
  64              	.LVL7:
  65 0020 0446     		mov	r4, r0
  66              	.LVL8:
  32:main.c        ****             if(count1 < target1){
  67              		.loc 1 32 0
  68 0022 B0F5FA7F 		cmp	r0, #500
  69 0026 06DA     		bge	.L3
  33:main.c        ****                 pwm_WriteCompare1(83);
  70              		.loc 1 33 0
  71 0028 5320     		movs	r0, #83
  72              	.LVL9:
  73 002a FFF7FEFF 		bl	pwm_WriteCompare1
  74              	.LVL10:
  34:main.c        ****                 pwm_WriteCompare2(0);
  75              		.loc 1 34 0
  76 002e 0020     		movs	r0, #0
  77 0030 FFF7FEFF 		bl	pwm_WriteCompare2
  78              	.LVL11:
  79 0034 0FE0     		b	.L4
  80              	.LVL12:
ARM GAS  C:\Users\Jacob\AppData\Local\Temp\ccyFDmz0.s 			page 3


  81              	.L3:
  35:main.c        ****             }
  36:main.c        ****             else if(count1 > target1){
  82              		.loc 1 36 0
  83 0036 B0F5FA7F 		cmp	r0, #500
  84 003a 06DD     		ble	.L5
  37:main.c        ****                 pwm_WriteCompare1(0);
  85              		.loc 1 37 0
  86 003c 0020     		movs	r0, #0
  87              	.LVL13:
  88 003e FFF7FEFF 		bl	pwm_WriteCompare1
  89              	.LVL14:
  38:main.c        ****                 pwm_WriteCompare2(83); 
  90              		.loc 1 38 0
  91 0042 5320     		movs	r0, #83
  92 0044 FFF7FEFF 		bl	pwm_WriteCompare2
  93              	.LVL15:
  94 0048 05E0     		b	.L4
  95              	.LVL16:
  96              	.L5:
  39:main.c        ****             }
  40:main.c        ****             else{
  41:main.c        ****                 pwm_WriteCompare1(0);
  97              		.loc 1 41 0
  98 004a 0020     		movs	r0, #0
  99              	.LVL17:
 100 004c FFF7FEFF 		bl	pwm_WriteCompare1
 101              	.LVL18:
  42:main.c        ****                 pwm_WriteCompare2(0);
 102              		.loc 1 42 0
 103 0050 0020     		movs	r0, #0
 104 0052 FFF7FEFF 		bl	pwm_WriteCompare2
 105              	.LVL19:
 106              	.L4:
  43:main.c        ****             }
  44:main.c        ****             lcd_ClearDisplay();
 107              		.loc 1 44 0
 108 0056 0120     		movs	r0, #1
 109 0058 FFF7FEFF 		bl	lcd_WriteControl
 110              	.LVL20:
  45:main.c        ****             lcd_Position(0,0);
 111              		.loc 1 45 0
 112 005c 0021     		movs	r1, #0
 113 005e 0846     		mov	r0, r1
 114 0060 FFF7FEFF 		bl	lcd_Position
 115              	.LVL21:
  46:main.c        ****             lcd_PrintNumber(count1);
 116              		.loc 1 46 0
 117 0064 A0B2     		uxth	r0, r4
 118 0066 FFF7FEFF 		bl	lcd_PrintU32Number
 119              	.LVL22:
  47:main.c        ****             CyDelay(10);
 120              		.loc 1 47 0
 121 006a 0A20     		movs	r0, #10
 122 006c FFF7FEFF 		bl	CyDelay
 123              	.LVL23:
  48:main.c        ****             time+=10;
ARM GAS  C:\Users\Jacob\AppData\Local\Temp\ccyFDmz0.s 			page 4


 124              		.loc 1 48 0
 125 0070 0A35     		adds	r5, r5, #10
 126              	.LVL24:
 127              	.L2:
  30:main.c        ****             count1 = enc_GetCounter();
 128              		.loc 1 30 0
 129 0072 41F28733 		movw	r3, #4999
 130 0076 9D42     		cmp	r5, r3
 131 0078 D0DD     		ble	.L6
 132 007a 0025     		movs	r5, #0
 133              	.LVL25:
 134 007c 2AE0     		b	.L7
 135              	.LVL26:
 136              	.L11:
  49:main.c        ****         }
  50:main.c        ****                time=0;
  51:main.c        ****         while(time<5000){
  52:main.c        ****             count1 = enc_GetCounter();
 137              		.loc 1 52 0
 138 007e FFF7FEFF 		bl	enc_GetCounter
 139              	.LVL27:
 140 0082 0446     		mov	r4, r0
 141              	.LVL28:
  53:main.c        ****             if(count1 < target2){
 142              		.loc 1 53 0
 143 0084 B0F57A7F 		cmp	r0, #1000
 144 0088 06DA     		bge	.L8
  54:main.c        ****                 pwm_WriteCompare1(83);
 145              		.loc 1 54 0
 146 008a 5320     		movs	r0, #83
 147              	.LVL29:
 148 008c FFF7FEFF 		bl	pwm_WriteCompare1
 149              	.LVL30:
  55:main.c        ****                 pwm_WriteCompare2(0);
 150              		.loc 1 55 0
 151 0090 0020     		movs	r0, #0
 152 0092 FFF7FEFF 		bl	pwm_WriteCompare2
 153              	.LVL31:
 154 0096 0FE0     		b	.L9
 155              	.LVL32:
 156              	.L8:
  56:main.c        ****             }
  57:main.c        ****             else if(count1 > target2){
 157              		.loc 1 57 0
 158 0098 B0F57A7F 		cmp	r0, #1000
 159 009c 06DD     		ble	.L10
  58:main.c        ****                 pwm_WriteCompare1(0);
 160              		.loc 1 58 0
 161 009e 0020     		movs	r0, #0
 162              	.LVL33:
 163 00a0 FFF7FEFF 		bl	pwm_WriteCompare1
 164              	.LVL34:
  59:main.c        ****                 pwm_WriteCompare2(83); 
 165              		.loc 1 59 0
 166 00a4 5320     		movs	r0, #83
 167 00a6 FFF7FEFF 		bl	pwm_WriteCompare2
 168              	.LVL35:
ARM GAS  C:\Users\Jacob\AppData\Local\Temp\ccyFDmz0.s 			page 5


 169 00aa 05E0     		b	.L9
 170              	.LVL36:
 171              	.L10:
  60:main.c        ****             }
  61:main.c        ****             else{
  62:main.c        ****                 pwm_WriteCompare1(0);
 172              		.loc 1 62 0
 173 00ac 0020     		movs	r0, #0
 174              	.LVL37:
 175 00ae FFF7FEFF 		bl	pwm_WriteCompare1
 176              	.LVL38:
  63:main.c        ****                 pwm_WriteCompare2(0);
 177              		.loc 1 63 0
 178 00b2 0020     		movs	r0, #0
 179 00b4 FFF7FEFF 		bl	pwm_WriteCompare2
 180              	.LVL39:
 181              	.L9:
  64:main.c        ****             }
  65:main.c        ****             lcd_ClearDisplay();
 182              		.loc 1 65 0
 183 00b8 0120     		movs	r0, #1
 184 00ba FFF7FEFF 		bl	lcd_WriteControl
 185              	.LVL40:
  66:main.c        ****             lcd_Position(0,0);
 186              		.loc 1 66 0
 187 00be 0021     		movs	r1, #0
 188 00c0 0846     		mov	r0, r1
 189 00c2 FFF7FEFF 		bl	lcd_Position
 190              	.LVL41:
  67:main.c        ****             lcd_PrintNumber(count1);
 191              		.loc 1 67 0
 192 00c6 A0B2     		uxth	r0, r4
 193 00c8 FFF7FEFF 		bl	lcd_PrintU32Number
 194              	.LVL42:
  68:main.c        ****             CyDelay(10);
 195              		.loc 1 68 0
 196 00cc 0A20     		movs	r0, #10
 197 00ce FFF7FEFF 		bl	CyDelay
 198              	.LVL43:
  69:main.c        ****             time+=10;
 199              		.loc 1 69 0
 200 00d2 0A35     		adds	r5, r5, #10
 201              	.LVL44:
 202              	.L7:
  51:main.c        ****             count1 = enc_GetCounter();
 203              		.loc 1 51 0
 204 00d4 41F28733 		movw	r3, #4999
 205 00d8 9D42     		cmp	r5, r3
 206 00da D0DD     		ble	.L11
 207 00dc 9AE7     		b	.L12
 208              		.cfi_endproc
 209              	.LFE63:
 210              		.size	main, .-main
 211 00de 00BF     		.text
 212              	.Letext0:
 213              		.file 2 "c:\\program files (x86)\\cypress\\psoc creator\\4.1\\psoc creator\\import\\gnu\\arm\\5.4.
 214              		.file 3 "c:\\program files (x86)\\cypress\\psoc creator\\4.1\\psoc creator\\import\\gnu\\arm\\5.4.
ARM GAS  C:\Users\Jacob\AppData\Local\Temp\ccyFDmz0.s 			page 6


 215              		.file 4 "Generated_Source\\PSoC5/cytypes.h"
 216              		.file 5 "Generated_Source\\PSoC5/enc.h"
 217              		.file 6 "Generated_Source\\PSoC5/lcd.h"
 218              		.file 7 "Generated_Source\\PSoC5/pwm.h"
 219              		.file 8 "Generated_Source\\PSoC5/CyLib.h"
 220              		.file 9 "Generated_Source\\PSoC5/core_cm3.h"