ARM GAS  C:\Users\Jacob\AppData\Local\Temp\cc8Clkb4.s 			page 1


   1              		.syntax unified
   2              		.cpu cortex-m0
   3              		.fpu softvfp
   4              		.eabi_attribute 20, 1
   5              		.eabi_attribute 21, 1
   6              		.eabi_attribute 23, 3
   7              		.eabi_attribute 24, 1
   8              		.eabi_attribute 25, 1
   9              		.eabi_attribute 26, 1
  10              		.eabi_attribute 30, 6
  11              		.eabi_attribute 34, 0
  12              		.eabi_attribute 18, 4
  13              		.thumb
  14              		.syntax unified
  15              		.file	"BleProcessing.c"
  16              		.text
  17              	.Ltext0:
  18              		.cfi_sections	.debug_frame
  19              		.bss
  20              	hrsNotification:
  21 0000 00       		.space	1
  22              		.global	enterHibernateFlag
  23              		.type	enterHibernateFlag, %object
  24              		.size	enterHibernateFlag, 1
  25              	enterHibernateFlag:
  26 0001 00       		.space	1
  27              		.global	timestampWhenConnected
  28 0002 0000     		.align	2
  29              		.type	timestampWhenConnected, %object
  30              		.size	timestampWhenConnected, 4
  31              	timestampWhenConnected:
  32 0004 00000000 		.space	4
  33              		.global	connParamRequestState
  34              		.type	connParamRequestState, %object
  35              		.size	connParamRequestState, 1
  36              	connParamRequestState:
  37 0008 00       		.space	1
  38              		.section	.text.SendHeartRateOverBLE,"ax",%progbits
  39              		.align	2
  40              		.global	SendHeartRateOverBLE
  41              		.code	16
  42              		.thumb_func
  43              		.type	SendHeartRateOverBLE, %function
  44              	SendHeartRateOverBLE:
  45              	.LFB35:
  46              		.file 1 "BleProcessing.c"
   1:BleProcessing.c **** /*****************************************************************************
   2:BleProcessing.c **** * File Name: BleProcessing.c
   3:BleProcessing.c **** *
   4:BleProcessing.c **** * Version: 1.0
   5:BleProcessing.c **** *
   6:BleProcessing.c **** * Description:
   7:BleProcessing.c **** * This file implements the BLE capability in the PSoC 4 BLE Lab 3.
   8:BleProcessing.c **** *
   9:BleProcessing.c **** * Hardware Dependency:
  10:BleProcessing.c **** * CY8CKIT-042 BLE Pioneer Kit
  11:BleProcessing.c **** *
ARM GAS  C:\Users\Jacob\AppData\Local\Temp\cc8Clkb4.s 			page 2


  12:BleProcessing.c **** ******************************************************************************
  13:BleProcessing.c **** * Copyright (2014), Cypress Semiconductor Corporation.
  14:BleProcessing.c **** ******************************************************************************
  15:BleProcessing.c **** * This software is owned by Cypress Semiconductor Corporation (Cypress) and is
  16:BleProcessing.c **** * protected by and subject to worldwide patent protection (United States and
  17:BleProcessing.c **** * foreign), United States copyright laws and international treaty provisions.
  18:BleProcessing.c **** * Cypress hereby grants to licensee a personal, non-exclusive, non-transferable
  19:BleProcessing.c **** * license to copy, use, modify, create derivative works of, and compile the
  20:BleProcessing.c **** * Cypress Source Code and derivative works for the sole purpose of creating
  21:BleProcessing.c **** * custom software in support of licensee product to be used only in conjunction
  22:BleProcessing.c **** * with a Cypress integrated circuit as specified in the applicable agreement.
  23:BleProcessing.c **** * Any reproduction, modification, translation, compilation, or representation of
  24:BleProcessing.c **** * this software except as specified above is prohibited without the express
  25:BleProcessing.c **** * written permission of Cypress.
  26:BleProcessing.c **** *
  27:BleProcessing.c **** * Disclaimer: CYPRESS MAKES NO WARRANTY OF ANY KIND, EXPRESS OR IMPLIED, WITH
  28:BleProcessing.c **** * REGARD TO THIS MATERIAL, INCLUDING, BUT NOT LIMITED TO, THE IMPLIED
  29:BleProcessing.c **** * WARRANTIES OF MERCHANTABILITY AND FITNESS FOR A PARTICULAR PURPOSE.
  30:BleProcessing.c **** * Cypress reserves the right to make changes without further notice to the
  31:BleProcessing.c **** * materials described herein. Cypress does not assume any liability arising out
  32:BleProcessing.c **** * of the application or use of any product or circuit described herein. Cypress
  33:BleProcessing.c **** * does not authorize its products for use as critical components in life-support
  34:BleProcessing.c **** * systems where a malfunction or failure may reasonably be expected to result in
  35:BleProcessing.c **** * significant injury to the user. The inclusion of Cypress' product in a life-
  36:BleProcessing.c **** * support systems application implies that the manufacturer assumes all risk of
  37:BleProcessing.c **** * such use and in doing so indemnifies Cypress against all charges. Use may be
  38:BleProcessing.c **** * limited by and subject to the applicable Cypress software license agreement.
  39:BleProcessing.c **** *****************************************************************************/
  40:BleProcessing.c **** 
  41:BleProcessing.c **** 
  42:BleProcessing.c **** /*****************************************************************************
  43:BleProcessing.c **** * Included headers
  44:BleProcessing.c **** *****************************************************************************/
  45:BleProcessing.c **** #include <project.h>
  46:BleProcessing.c **** #include <stdbool.h>
  47:BleProcessing.c **** #include "main.h"
  48:BleProcessing.c **** #include "HeartRateProcessing.h"
  49:BleProcessing.c **** #include "BleProcessing.h"
  50:BleProcessing.c **** #include "WatchdogTimer.h"
  51:BleProcessing.c **** 
  52:BleProcessing.c **** /*****************************************************************************
  53:BleProcessing.c **** * Macros 
  54:BleProcessing.c **** *****************************************************************************/
  55:BleProcessing.c **** #define HEART_RATE_DATA_LEN					(2)
  56:BleProcessing.c **** #define HRM_FLAG                            (0)
  57:BleProcessing.c **** 
  58:BleProcessing.c **** 
  59:BleProcessing.c **** /*****************************************************************************
  60:BleProcessing.c **** * Static variables 
  61:BleProcessing.c **** *****************************************************************************/
  62:BleProcessing.c **** static uint8 hrsNotification = false;
  63:BleProcessing.c **** 
  64:BleProcessing.c **** 
  65:BleProcessing.c **** /*****************************************************************************
  66:BleProcessing.c **** * Public variables 
  67:BleProcessing.c **** *****************************************************************************/
  68:BleProcessing.c **** bool enterHibernateFlag = false;
ARM GAS  C:\Users\Jacob\AppData\Local\Temp\cc8Clkb4.s 			page 3


  69:BleProcessing.c **** uint32 timestampWhenConnected = 0;
  70:BleProcessing.c **** CONN_PARAM_REQUEST_STATE connParamRequestState = CONN_PARAM_REQUEST_NOT_SENT;
  71:BleProcessing.c **** 
  72:BleProcessing.c **** 
  73:BleProcessing.c **** /*****************************************************************************
  74:BleProcessing.c **** * Public function definitions
  75:BleProcessing.c **** *****************************************************************************/
  76:BleProcessing.c **** 
  77:BleProcessing.c **** /*****************************************************************************
  78:BleProcessing.c **** * Function Name: SendHeartRateOverBLE
  79:BleProcessing.c **** ******************************************************************************
  80:BleProcessing.c **** * Summary:
  81:BleProcessing.c **** * Creates and sends the Heart Rate Measurement characteristic notification 
  82:BleProcessing.c **** * packet.
  83:BleProcessing.c **** *
  84:BleProcessing.c **** * Parameters:
  85:BleProcessing.c **** * None
  86:BleProcessing.c **** *
  87:BleProcessing.c **** * Return:
  88:BleProcessing.c **** * None
  89:BleProcessing.c **** *
  90:BleProcessing.c **** * Theory:
  91:BleProcessing.c **** * The function caches the value of the Heart Rate Measurement characteristic 
  92:BleProcessing.c **** * and updates the heart rate value in it. It then calls the BLE HRS service 
  93:BleProcessing.c **** * API to send this data via notification.
  94:BleProcessing.c **** *
  95:BleProcessing.c **** * Side Effects:
  96:BleProcessing.c **** * None
  97:BleProcessing.c **** *
  98:BleProcessing.c **** *****************************************************************************/
  99:BleProcessing.c **** void SendHeartRateOverBLE(void)
 100:BleProcessing.c **** {
  47              		.loc 1 100 0
  48              		.cfi_startproc
  49              		@ args = 0, pretend = 0, frame = 8
  50              		@ frame_needed = 1, uses_anonymous_args = 0
  51 0000 80B5     		push	{r7, lr}
  52              		.cfi_def_cfa_offset 8
  53              		.cfi_offset 7, -8
  54              		.cfi_offset 14, -4
  55 0002 82B0     		sub	sp, sp, #8
  56              		.cfi_def_cfa_offset 16
  57 0004 00AF     		add	r7, sp, #0
  58              		.cfi_def_cfa_register 7
 101:BleProcessing.c ****     /* Two byte packet for heart rate notification since the heart rate 
 102:BleProcessing.c ****      * measurement value is 8-bit (this is sufficient since our heart rate
 103:BleProcessing.c ****      * does not cross 255) and we are not using the Energy Expended 
 104:BleProcessing.c ****      * and RR-interval fields.
 105:BleProcessing.c ****      */
 106:BleProcessing.c **** 	uint8 heartRatePacket[2];
 107:BleProcessing.c **** 	
 108:BleProcessing.c **** 	if(hrsNotification)
  59              		.loc 1 108 0
  60 0006 124B     		ldr	r3, .L4
  61 0008 1B78     		ldrb	r3, [r3]
  62 000a 002B     		cmp	r3, #0
  63 000c 1BD0     		beq	.L3
ARM GAS  C:\Users\Jacob\AppData\Local\Temp\cc8Clkb4.s 			page 4


 109:BleProcessing.c **** 	{
 110:BleProcessing.c ****         /* Read the existing characteristic value into a 
 111:BleProcessing.c ****          * two-byte array, by using CyBle_HrssGetCharacteristicValue(). 
 112:BleProcessing.c ****          */
 113:BleProcessing.c ****         CyBle_HrssGetCharacteristicValue(CYBLE_HRS_HRM, HEART_RATE_DATA_LEN, heartRatePacket);
  64              		.loc 1 113 0
  65 000e 3B1D     		adds	r3, r7, #4
  66 0010 1A00     		movs	r2, r3
  67 0012 0221     		movs	r1, #2
  68 0014 0020     		movs	r0, #0
  69 0016 FFF7FEFF 		bl	CyBle_HrssGetCharacteristicValue
 114:BleProcessing.c **** 
 115:BleProcessing.c ****         
 116:BleProcessing.c ****         /* Update the second byte with the actual heart rate value. */
 117:BleProcessing.c ****         heartRatePacket[1] = heartRate;
  70              		.loc 1 117 0
  71 001a 0E4B     		ldr	r3, .L4+4
  72 001c 1A78     		ldrb	r2, [r3]
  73 001e 3B1D     		adds	r3, r7, #4
  74 0020 5A70     		strb	r2, [r3, #1]
 118:BleProcessing.c **** 		
 119:BleProcessing.c ****         
 120:BleProcessing.c ****         /* Call the BLE component API to send notification */
 121:BleProcessing.c **** 		CyBle_HrssSendNotification(cyBle_connHandle, CYBLE_HRS_HRM, HEART_RATE_DATA_LEN, heartRatePacket)
  75              		.loc 1 121 0
  76 0022 391D     		adds	r1, r7, #4
  77 0024 0C4B     		ldr	r3, .L4+8
  78 0026 1A78     		ldrb	r2, [r3]
  79 0028 5B78     		ldrb	r3, [r3, #1]
  80 002a 1B02     		lsls	r3, r3, #8
  81 002c 1343     		orrs	r3, r2
  82 002e 0020     		movs	r0, #0
  83 0030 1B04     		lsls	r3, r3, #16
  84 0032 1B0C     		lsrs	r3, r3, #16
  85 0034 020C     		lsrs	r2, r0, #16
  86 0036 1204     		lsls	r2, r2, #16
  87 0038 1343     		orrs	r3, r2
  88 003a 1800     		movs	r0, r3
  89 003c 0B00     		movs	r3, r1
  90 003e 0222     		movs	r2, #2
  91 0040 0021     		movs	r1, #0
  92 0042 FFF7FEFF 		bl	CyBle_HrssSendNotification
  93              	.L3:
 122:BleProcessing.c ****     }
 123:BleProcessing.c **** }
  94              		.loc 1 123 0
  95 0046 C046     		nop
  96 0048 BD46     		mov	sp, r7
  97 004a 02B0     		add	sp, sp, #8
  98              		@ sp needed
  99 004c 80BD     		pop	{r7, pc}
 100              	.L5:
 101 004e C046     		.align	2
 102              	.L4:
 103 0050 00000000 		.word	hrsNotification
 104 0054 00000000 		.word	heartRate
 105 0058 00000000 		.word	cyBle_connHandle
ARM GAS  C:\Users\Jacob\AppData\Local\Temp\cc8Clkb4.s 			page 5


 106              		.cfi_endproc
 107              	.LFE35:
 108              		.size	SendHeartRateOverBLE, .-SendHeartRateOverBLE
 109              		.section	.text.HrsEventHandler,"ax",%progbits
 110              		.align	2
 111              		.global	HrsEventHandler
 112              		.code	16
 113              		.thumb_func
 114              		.type	HrsEventHandler, %function
 115              	HrsEventHandler:
 116              	.LFB36:
 124:BleProcessing.c **** 
 125:BleProcessing.c **** 
 126:BleProcessing.c **** /*****************************************************************************
 127:BleProcessing.c **** * Function Name: HrsEventHandler
 128:BleProcessing.c **** ******************************************************************************
 129:BleProcessing.c **** * Summary:
 130:BleProcessing.c **** * Event handler for the Heart Rate Service specific events.
 131:BleProcessing.c **** *
 132:BleProcessing.c **** * Parameters:
 133:BleProcessing.c **** * event: An enumerated value to be checked and accordingly some action to 
 134:BleProcessing.c **** *        be taken. The list of events is defined in the CYBLE_EVT_T enum.
 135:BleProcessing.c **** *
 136:BleProcessing.c **** * eventParam: The parameter associated with the event. The type of parameter
 137:BleProcessing.c **** *             can vary depending on the event. For more details refer the 
 138:BleProcessing.c **** *             BLE component datasheet.
 139:BleProcessing.c **** *
 140:BleProcessing.c **** * Return:
 141:BleProcessing.c **** * None
 142:BleProcessing.c **** *
 143:BleProcessing.c **** * Theory:
 144:BleProcessing.c **** * The function implements a switch statement to handle the notification
 145:BleProcessing.c **** * enable and notification disable events for the Heart Rate Service.
 146:BleProcessing.c **** *
 147:BleProcessing.c **** * Side Effects:
 148:BleProcessing.c **** * None
 149:BleProcessing.c **** *
 150:BleProcessing.c **** *****************************************************************************/
 151:BleProcessing.c **** void HrsEventHandler(uint32 event, void *eventParam)
 152:BleProcessing.c **** {
 117              		.loc 1 152 0
 118              		.cfi_startproc
 119              		@ args = 0, pretend = 0, frame = 8
 120              		@ frame_needed = 1, uses_anonymous_args = 0
 121 0000 80B5     		push	{r7, lr}
 122              		.cfi_def_cfa_offset 8
 123              		.cfi_offset 7, -8
 124              		.cfi_offset 14, -4
 125 0002 82B0     		sub	sp, sp, #8
 126              		.cfi_def_cfa_offset 16
 127 0004 00AF     		add	r7, sp, #0
 128              		.cfi_def_cfa_register 7
 129 0006 7860     		str	r0, [r7, #4]
 130 0008 3960     		str	r1, [r7]
 153:BleProcessing.c ****     /* Event handler switch statement for the HRS service specific events. */
 154:BleProcessing.c ****      
 155:BleProcessing.c ****     
ARM GAS  C:\Users\Jacob\AppData\Local\Temp\cc8Clkb4.s 			page 6


 156:BleProcessing.c ****     /* Set the hrsNotification variable on the notification 
 157:BleProcessing.c ****      * enabled event, and clear it on the disabled event.
 158:BleProcessing.c ****      */
 159:BleProcessing.c ****     switch(event)
 131              		.loc 1 159 0
 132 000a 7B68     		ldr	r3, [r7, #4]
 133 000c AA22     		movs	r2, #170
 134 000e FF32     		adds	r2, r2, #255
 135 0010 9342     		cmp	r3, r2
 136 0012 04D0     		beq	.L8
 137 0014 D522     		movs	r2, #213
 138 0016 5200     		lsls	r2, r2, #1
 139 0018 9342     		cmp	r3, r2
 140 001a 04D0     		beq	.L9
 160:BleProcessing.c **** 	{
 161:BleProcessing.c **** 		case CYBLE_EVT_HRSS_NOTIFICATION_ENABLED:
 162:BleProcessing.c **** 			hrsNotification = true;	
 163:BleProcessing.c **** 		    break;
 164:BleProcessing.c **** 		
 165:BleProcessing.c **** 		case CYBLE_EVT_HRSS_NOTIFICATION_DISABLED:
 166:BleProcessing.c **** 			hrsNotification = false;
 167:BleProcessing.c **** 	    	break;
 168:BleProcessing.c **** 		
 169:BleProcessing.c **** 		default:
 170:BleProcessing.c ****     		break;
 141              		.loc 1 170 0
 142 001c 07E0     		b	.L10
 143              	.L8:
 162:BleProcessing.c **** 		    break;
 144              		.loc 1 162 0
 145 001e 064B     		ldr	r3, .L11
 146 0020 0122     		movs	r2, #1
 147 0022 1A70     		strb	r2, [r3]
 163:BleProcessing.c **** 		
 148              		.loc 1 163 0
 149 0024 03E0     		b	.L10
 150              	.L9:
 166:BleProcessing.c **** 	    	break;
 151              		.loc 1 166 0
 152 0026 044B     		ldr	r3, .L11
 153 0028 0022     		movs	r2, #0
 154 002a 1A70     		strb	r2, [r3]
 167:BleProcessing.c **** 		
 155              		.loc 1 167 0
 156 002c C046     		nop
 157              	.L10:
 171:BleProcessing.c **** 	}
 172:BleProcessing.c **** }
 158              		.loc 1 172 0
 159 002e C046     		nop
 160 0030 BD46     		mov	sp, r7
 161 0032 02B0     		add	sp, sp, #8
 162              		@ sp needed
 163 0034 80BD     		pop	{r7, pc}
 164              	.L12:
 165 0036 C046     		.align	2
 166              	.L11:
ARM GAS  C:\Users\Jacob\AppData\Local\Temp\cc8Clkb4.s 			page 7


 167 0038 00000000 		.word	hrsNotification
 168              		.cfi_endproc
 169              	.LFE36:
 170              		.size	HrsEventHandler, .-HrsEventHandler
 171              		.section	.text.GeneralEventHandler,"ax",%progbits
 172              		.align	2
 173              		.global	GeneralEventHandler
 174              		.code	16
 175              		.thumb_func
 176              		.type	GeneralEventHandler, %function
 177              	GeneralEventHandler:
 178              	.LFB37:
 173:BleProcessing.c **** 
 174:BleProcessing.c **** 
 175:BleProcessing.c **** /*****************************************************************************
 176:BleProcessing.c **** * Function Name: GeneralEventHandler
 177:BleProcessing.c **** ******************************************************************************
 178:BleProcessing.c **** * Summary:
 179:BleProcessing.c **** * Event handler for generic BLE events.
 180:BleProcessing.c **** *
 181:BleProcessing.c **** * Parameters:
 182:BleProcessing.c **** * event: An enumerated value to be checked and accordingly some action to 
 183:BleProcessing.c **** *        be taken. The list of events is defined in the CYBLE_EVENT_T enum.
 184:BleProcessing.c **** *
 185:BleProcessing.c **** * eventParam: The parameter associated with the event. The type of parameter
 186:BleProcessing.c **** *             can vary depending on the event. For more details refer the 
 187:BleProcessing.c **** *             BLE component datasheet.
 188:BleProcessing.c **** *
 189:BleProcessing.c **** * Return:
 190:BleProcessing.c **** * None
 191:BleProcessing.c **** *
 192:BleProcessing.c **** * Theory:
 193:BleProcessing.c **** * The function implements a switch case to handle different events for BLE
 194:BleProcessing.c **** * advertisement, connection and disconnection.
 195:BleProcessing.c **** *
 196:BleProcessing.c **** * Side Effects:
 197:BleProcessing.c **** * None
 198:BleProcessing.c **** *
 199:BleProcessing.c **** *****************************************************************************/
 200:BleProcessing.c **** void GeneralEventHandler(uint32 event, void *eventParam)
 201:BleProcessing.c **** {
 179              		.loc 1 201 0
 180              		.cfi_startproc
 181              		@ args = 0, pretend = 0, frame = 8
 182              		@ frame_needed = 1, uses_anonymous_args = 0
 183 0000 80B5     		push	{r7, lr}
 184              		.cfi_def_cfa_offset 8
 185              		.cfi_offset 7, -8
 186              		.cfi_offset 14, -4
 187 0002 82B0     		sub	sp, sp, #8
 188              		.cfi_def_cfa_offset 16
 189 0004 00AF     		add	r7, sp, #0
 190              		.cfi_def_cfa_register 7
 191 0006 7860     		str	r0, [r7, #4]
 192 0008 3960     		str	r1, [r7]
 202:BleProcessing.c ****     /* Handle various events for a general BLE connection */
 203:BleProcessing.c **** 	switch(event)
ARM GAS  C:\Users\Jacob\AppData\Local\Temp\cc8Clkb4.s 			page 8


 193              		.loc 1 203 0
 194 000a 7B68     		ldr	r3, [r7, #4]
 195 000c 282B     		cmp	r3, #40
 196 000e 1BD0     		beq	.L15
 197 0010 04D8     		bhi	.L16
 198 0012 012B     		cmp	r3, #1
 199 0014 09D0     		beq	.L17
 200 0016 262B     		cmp	r3, #38
 201 0018 0ED0     		beq	.L18
 204:BleProcessing.c **** 	{
 205:BleProcessing.c **** 		case CYBLE_EVT_STACK_ON:
 206:BleProcessing.c **** 			/* Start the fast advertisement upon BLE initialization. */
 207:BleProcessing.c ****             CyBle_GappStartAdvertisement(CYBLE_ADVERTISING_FAST);
 208:BleProcessing.c **** 
 209:BleProcessing.c ****             #if (RGB_LED_IN_PROJECT)
 210:BleProcessing.c ****                 /* Turn ON Green LED to indicate advertisement state */
 211:BleProcessing.c ****                 Led_Advertising_Green_Write(0);
 212:BleProcessing.c ****             #endif  /* #if (RGB_LED_IN_PROJECT) */
 213:BleProcessing.c ****     		break;
 214:BleProcessing.c ****             
 215:BleProcessing.c ****         case CYBLE_EVT_GAPP_ADVERTISEMENT_START_STOP:
 216:BleProcessing.c ****             /* If advertisement finished, then enter Hibernate mode. */
 217:BleProcessing.c ****             if(CYBLE_STATE_DISCONNECTED == CyBle_GetState())
 218:BleProcessing.c ****             {
 219:BleProcessing.c ****                 enterHibernateFlag = true;
 220:BleProcessing.c ****             }
 221:BleProcessing.c ****             break;
 222:BleProcessing.c ****             
 223:BleProcessing.c ****         case CYBLE_EVT_GAP_DEVICE_DISCONNECTED:
 224:BleProcessing.c ****             /* Enter hibernate mode upon disconnect */
 225:BleProcessing.c **** 			enterHibernateFlag = true;
 226:BleProcessing.c ****             
 227:BleProcessing.c ****             /* Reset the connection parameter update request status */
 228:BleProcessing.c ****             connParamRequestState = CONN_PARAM_REQUEST_NOT_SENT;
 229:BleProcessing.c ****             break;
 230:BleProcessing.c **** 			
 231:BleProcessing.c **** 		case CYBLE_EVT_GATT_CONNECT_IND:
 232:BleProcessing.c ****             /* Note the time when connected */
 233:BleProcessing.c ****             timestampWhenConnected = WatchdogTimer_GetTimestamp();
 234:BleProcessing.c **** 
 235:BleProcessing.c ****             #if (RGB_LED_IN_PROJECT)
 236:BleProcessing.c ****                 /* Turn OFF Green LED; Turn ON Blue LED to indicate Connection */
 237:BleProcessing.c ****                 Led_Advertising_Green_Write(1);
 238:BleProcessing.c ****                 Led_Connected_Blue_Write(0);
 239:BleProcessing.c ****             #endif  /* #if (RGB_LED_IN_PROJECT) */
 240:BleProcessing.c **** 			break;
 241:BleProcessing.c **** 			
 242:BleProcessing.c **** 		case CYBLE_EVT_GATT_DISCONNECT_IND:
 243:BleProcessing.c ****             /* Clear the HRS notification flag and the device connected flag */
 244:BleProcessing.c **** 			hrsNotification = false;
 245:BleProcessing.c **** 			break;
 246:BleProcessing.c **** 		
 247:BleProcessing.c ****         case CYBLE_EVT_L2CAP_CONN_PARAM_UPDATE_RSP:
 248:BleProcessing.c ****             /* Got a response for the connection parameter update request */
 249:BleProcessing.c ****             if(*(uint16 *)eventParam == CYBLE_L2CAP_CONN_PARAM_ACCEPTED)
 250:BleProcessing.c ****             {
 251:BleProcessing.c ****                 connParamRequestState = CONN_PARAM_REQUEST_ACCEPTED;
ARM GAS  C:\Users\Jacob\AppData\Local\Temp\cc8Clkb4.s 			page 9


 252:BleProcessing.c ****             }
 253:BleProcessing.c ****             else
 254:BleProcessing.c ****             {
 255:BleProcessing.c ****                 connParamRequestState = CONN_PARAM_REQUEST_REJECTED;
 256:BleProcessing.c ****             }
 257:BleProcessing.c ****             
 258:BleProcessing.c **** 		default:
 259:BleProcessing.c ****     		break;
 202              		.loc 1 259 0
 203 001a 39E0     		b	.L22
 204              	.L16:
 203:BleProcessing.c **** 	{
 205              		.loc 1 203 0
 206 001c 422B     		cmp	r3, #66
 207 001e 26D0     		beq	.L19
 208 0020 712B     		cmp	r3, #113
 209 0022 28D0     		beq	.L20
 210 0024 412B     		cmp	r3, #65
 211 0026 16D0     		beq	.L21
 212              		.loc 1 259 0
 213 0028 32E0     		b	.L22
 214              	.L17:
 207:BleProcessing.c **** 
 215              		.loc 1 207 0
 216 002a 0020     		movs	r0, #0
 217 002c FFF7FEFF 		bl	CyBle_GappStartAdvertisement
 211:BleProcessing.c ****             #endif  /* #if (RGB_LED_IN_PROJECT) */
 218              		.loc 1 211 0
 219 0030 0020     		movs	r0, #0
 220 0032 FFF7FEFF 		bl	Led_Advertising_Green_Write
 213:BleProcessing.c ****             
 221              		.loc 1 213 0
 222 0036 2BE0     		b	.L22
 223              	.L18:
 217:BleProcessing.c ****             {
 224              		.loc 1 217 0
 225 0038 174B     		ldr	r3, .L26
 226 003a 1B78     		ldrb	r3, [r3]
 227 003c 042B     		cmp	r3, #4
 228 003e 26D1     		bne	.L25
 219:BleProcessing.c ****             }
 229              		.loc 1 219 0
 230 0040 164B     		ldr	r3, .L26+4
 231 0042 0122     		movs	r2, #1
 232 0044 1A70     		strb	r2, [r3]
 221:BleProcessing.c ****             
 233              		.loc 1 221 0
 234 0046 22E0     		b	.L25
 235              	.L15:
 225:BleProcessing.c ****             
 236              		.loc 1 225 0
 237 0048 144B     		ldr	r3, .L26+4
 238 004a 0122     		movs	r2, #1
 239 004c 1A70     		strb	r2, [r3]
 228:BleProcessing.c ****             break;
 240              		.loc 1 228 0
 241 004e 144B     		ldr	r3, .L26+8
ARM GAS  C:\Users\Jacob\AppData\Local\Temp\cc8Clkb4.s 			page 10


 242 0050 0022     		movs	r2, #0
 243 0052 1A70     		strb	r2, [r3]
 229:BleProcessing.c **** 			
 244              		.loc 1 229 0
 245 0054 1CE0     		b	.L22
 246              	.L21:
 233:BleProcessing.c **** 
 247              		.loc 1 233 0
 248 0056 FFF7FEFF 		bl	WatchdogTimer_GetTimestamp
 249 005a 0200     		movs	r2, r0
 250 005c 114B     		ldr	r3, .L26+12
 251 005e 1A60     		str	r2, [r3]
 237:BleProcessing.c ****                 Led_Connected_Blue_Write(0);
 252              		.loc 1 237 0
 253 0060 0120     		movs	r0, #1
 254 0062 FFF7FEFF 		bl	Led_Advertising_Green_Write
 238:BleProcessing.c ****             #endif  /* #if (RGB_LED_IN_PROJECT) */
 255              		.loc 1 238 0
 256 0066 0020     		movs	r0, #0
 257 0068 FFF7FEFF 		bl	Led_Connected_Blue_Write
 240:BleProcessing.c **** 			
 258              		.loc 1 240 0
 259 006c 10E0     		b	.L22
 260              	.L19:
 244:BleProcessing.c **** 			break;
 261              		.loc 1 244 0
 262 006e 0E4B     		ldr	r3, .L26+16
 263 0070 0022     		movs	r2, #0
 264 0072 1A70     		strb	r2, [r3]
 245:BleProcessing.c **** 		
 265              		.loc 1 245 0
 266 0074 0CE0     		b	.L22
 267              	.L20:
 249:BleProcessing.c ****             {
 268              		.loc 1 249 0
 269 0076 3B68     		ldr	r3, [r7]
 270 0078 1B88     		ldrh	r3, [r3]
 271 007a 002B     		cmp	r3, #0
 272 007c 03D1     		bne	.L24
 251:BleProcessing.c ****             }
 273              		.loc 1 251 0
 274 007e 084B     		ldr	r3, .L26+8
 275 0080 0222     		movs	r2, #2
 276 0082 1A70     		strb	r2, [r3]
 277              		.loc 1 259 0
 278 0084 04E0     		b	.L22
 279              	.L24:
 255:BleProcessing.c ****             }
 280              		.loc 1 255 0
 281 0086 064B     		ldr	r3, .L26+8
 282 0088 0322     		movs	r2, #3
 283 008a 1A70     		strb	r2, [r3]
 284              		.loc 1 259 0
 285 008c 00E0     		b	.L22
 286              	.L25:
 221:BleProcessing.c ****             
 287              		.loc 1 221 0
ARM GAS  C:\Users\Jacob\AppData\Local\Temp\cc8Clkb4.s 			page 11


 288 008e C046     		nop
 289              	.L22:
 260:BleProcessing.c **** 	}
 261:BleProcessing.c **** }
 290              		.loc 1 261 0
 291 0090 C046     		nop
 292 0092 BD46     		mov	sp, r7
 293 0094 02B0     		add	sp, sp, #8
 294              		@ sp needed
 295 0096 80BD     		pop	{r7, pc}
 296              	.L27:
 297              		.align	2
 298              	.L26:
 299 0098 00000000 		.word	cyBle_state
 300 009c 00000000 		.word	enterHibernateFlag
 301 00a0 00000000 		.word	connParamRequestState
 302 00a4 00000000 		.word	timestampWhenConnected
 303 00a8 00000000 		.word	hrsNotification
 304              		.cfi_endproc
 305              	.LFE37:
 306              		.size	GeneralEventHandler, .-GeneralEventHandler
 307              		.text
 308              	.Letext0:
 309              		.file 2 "Generated_Source\\PSoC4/cytypes.h"
 310              		.file 3 "Generated_Source\\PSoC4/BLE_StackGatt.h"
 311              		.file 4 "Generated_Source\\PSoC4/BLE_Stack.h"
 312              		.file 5 "Generated_Source\\PSoC4/BLE_hrs.h"
 313              		.file 6 "Generated_Source\\PSoC4/BLE_dis.h"
 314              		.file 7 "Generated_Source\\PSoC4/BLE_eventHandler.h"
 315              		.file 8 "BleProcessing.h"
 316              		.file 9 "HeartRateProcessing.h"