

Microchip Technology PIC18 LITE Macro Assembler V1.45 build -152302408 
                                                                                               Wed Mar 28 10:05:14 2018

Microchip Technology Omniscient Code Generator v1.45 (Free mode) build 201711160504
     1                           	processor	18F47K40
     2                           	fnconf	rparam,??,?,0
     3                           	opt	pw 120
     4                           	opt	lm
     5                           	psect	cinit,global,reloc=2,class=CODE,delta=1
     6                           	psect	bssCOMRAM,global,class=COMRAM,space=1,delta=1,noexec
     7                           	psect	cstackBANK0,global,class=BANK0,space=1,delta=1,noexec
     8                           	psect	cstackCOMRAM,global,class=COMRAM,space=1,delta=1,noexec
     9                           	psect	text0,global,reloc=2,class=CODE,delta=1
    10                           	psect	text1,global,reloc=2,class=CODE,delta=1
    11                           	psect	text2,global,reloc=2,class=CODE,delta=1
    12                           	psect	text3,global,reloc=2,class=CODE,delta=1
    13                           	psect	text4,global,reloc=2,class=CODE,delta=1
    14                           	psect	text5,global,reloc=2,class=CODE,delta=1
    15                           	psect	text6,global,reloc=2,class=CODE,delta=1
    16                           	psect	text7,global,reloc=2,class=CODE,delta=1
    17                           	psect	text8,global,reloc=2,class=CODE,delta=1
    18                           	psect	text9,global,reloc=2,class=CODE,delta=1
    19                           	psect	text10,global,reloc=2,class=CODE,delta=1
    20                           	psect	text11,global,reloc=2,class=CODE,delta=1
    21                           	psect	text12,global,reloc=2,class=CODE,delta=1
    22                           	psect	intcode,global,reloc=2,class=CODE,delta=1
    23                           	psect	text14,global,reloc=2,class=CODE,delta=1
    24                           	psect	text15,global,reloc=2,class=CODE,delta=1
    25                           	psect	text16,global,reloc=2,class=CODE,delta=1
    26                           	psect	text17,global,reloc=2,class=CODE,delta=1
    27                           	psect	intsave_regs,global,class=BIGRAM,space=1,delta=1,noexec
    28                           	psect	rparam,global,class=COMRAM,space=1,delta=1,noexec
    29                           	psect	temp,global,ovrld,common,class=COMRAM,space=1,delta=1
    30  0000                     
    31                           ; Version 1.45
    32                           ; Generated 16/11/2017 GMT
    33                           ; 
    34                           ; Copyright © 2017, Microchip Technology Inc. and its subsidiaries ("Microchip")
    35                           ; All rights reserved.
    36                           ; 
    37                           ; This software is developed by Microchip Technology Inc. and its subsidiaries ("Microch
      +                          ip").
    38                           ; 
    39                           ; Redistribution and use in source and binary forms, with or without modification, are
    40                           ; permitted provided that the following conditions are met:
    41                           ; 
    42                           ;     1. Redistributions of source code must retain the above copyright notice, this lis
      +                          t of
    43                           ;        conditions and the following disclaimer.
    44                           ; 
    45                           ;     2. Redistributions in binary form must reproduce the above copyright notice, this 
      +                          list
    46                           ;        of conditions and the following disclaimer in the documentation and/or other
    47                           ;        materials provided with the distribution.
    48                           ; 
    49                           ;     3. Microchip's name may not be used to endorse or promote products derived from th
      +                          is
    50                           ;        software without specific prior written permission.
    51                           ; 
    52                           ; THIS SOFTWARE IS PROVIDED BY MICROCHIP "AS IS" AND ANY EXPRESS OR IMPLIED WARRANTIES,
    53                           ; INCLUDING, BUT NOT LIMITED TO, THE IMPLIED WARRANTIES OF MERCHANTABILITY AND FITNESS F
      +                          OR
    54                           ; PURPOSE ARE DISCLAIMED.  IN NO EVENT SHALL MICROCHIP BE LIABLE FOR ANY DIRECT, INDIREC
      +                          T,
    55                           ; INCIDENTAL, SPECIAL, EXEMPLARY, OR CONSEQUENTIAL DAMAGES (INCLUDING BUT NOT LIMITED TO
    56                           ; PROCUREMENT OF SUBSTITUTE GOODS OR SERVICES; LOSS OF USE, DATA OR PROFITS; OR BUSINESS
    57                           ; INTERRUPTION) HOWSOEVER CAUSED AND ON ANY THEORY OF LIABILITY, WHETHER IN CONTRACT, ST
      +                          RICT
    58                           ; LIABILITY, OR TORT (INCLUDING NEGLIGENCE OR OTHERWISE) ARISING IN ANY WAY OUT OF THE U
      +                          SE OF
    59                           ; THIS SOFTWARE, EVEN IF ADVISED OF THE POSSIBILITY OF SUCH DAMAGE.
    60                           ; 
    61                           ; 
    62                           ; Code-generator required, PIC18F47K40 Definitions
    63                           ; 
    64                           ; SFR Addresses
    65  0000                     _PIE3bits	set	3781
    66  0000                     _PIR3bits	set	3789
    67  0000                     _PMD5	set	3814
    68  0000                     _PMD4	set	3813
    69  0000                     _PMD3	set	3812
    70  0000                     _PMD2	set	3811
    71  0000                     _PMD1	set	3810
    72  0000                     _PMD0	set	3809
    73  0000                     _OSCTUNE	set	3805
    74  0000                     _OSCFRQ	set	3806
    75  0000                     _OSCEN	set	3804
    76  0000                     _OSCCON3	set	3802
    77  0000                     _OSCCON1	set	3800
    78  0000                     _SSP1DATPPSbits	set	3768
    79  0000                     _RC4PPS	set	3835
    80  0000                     _RC3PPS	set	3834
    81  0000                     _SSP1CLKPPSbits	set	3767
    82  0000                     _ODCOND	set	3876
    83  0000                     _ODCONC	set	3871
    84  0000                     _ODCONB	set	3863
    85  0000                     _ODCONA	set	3855
    86  0000                     _ODCONE	set	3884
    87  0000                     _WPUC	set	3872
    88  0000                     _WPUA	set	3856
    89  0000                     _WPUB	set	3864
    90  0000                     _WPUE	set	3885
    91  0000                     _WPUD	set	3877
    92  0000                     _ANSELA	set	3857
    93  0000                     _ANSELE	set	3886
    94  0000                     _ANSELD	set	3878
    95  0000                     _ANSELB	set	3865
    96  0000                     _ANSELC	set	3873
    97  0000                     _LATCbits	set	3973
    98  0000                     _INTCONbits	set	4082
    99  0000                     _SSP1BUF	set	3986
   100  0000                     _SSP1CON2bits	set	3991
   101  0000                     _SSP1CON1bits	set	3990
   102  0000                     _SSP1ADD	set	3987
   103  0000                     _SSP1CON3	set	3992
   104  0000                     _SSP1CON1	set	3990
   105  0000                     _SSP1STAT	set	3989
   106  0000                     _TRISD	set	3979
   107  0000                     _TRISC	set	3978
   108  0000                     _TRISB	set	3977
   109  0000                     _TRISA	set	3976
   110  0000                     _TRISE	set	3980
   111  0000                     _LATC	set	3973
   112  0000                     _LATB	set	3972
   113  0000                     _LATA	set	3971
   114  0000                     _LATD	set	3974
   115  0000                     _LATE	set	3975
   116                           
   117                           ; #config settings
   118  0000                     
   119                           	psect	cinit
   120  000732                     __pcinit:
   121                           	opt stack 0
   122  000732                     start_initialization:
   123                           	opt stack 0
   124  000732                     __initialization:
   125                           	opt stack 0
   126                           
   127                           ; Clear objects allocated to COMRAM (34 bytes)
   128  000732  EE00  F025         	lfsr	0,__pbssCOMRAM
   129  000736  0E22               	movlw	34
   130  000738                     clear_0:
   131  000738  6AEE               	clrf	postinc0,c
   132  00073A  06E8               	decf	wreg,f,c
   133  00073C  E1FD               	bnz	clear_0
   134  00073E                     end_of_initialization:
   135                           	opt stack 0
   136  00073E                     __end_of__initialization:
   137                           	opt stack 0
   138  00073E  9047               	bcf	int$flags,0,c	;clear compiler interrupt flag (level 1)
   139  000740  9247               	bcf	int$flags,1,c	;clear compiler interrupt flag (level 2)
   140  000742  0100               	movlb	0
   141  000744  EF7F  F001         	goto	_main	;jump to C main() function
   142                           postinc0	equ	0xFEE
   143                           wreg	equ	0xFE8
   144                           
   145                           	psect	bssCOMRAM
   146  000025                     __pbssCOMRAM:
   147                           	opt stack 0
   148  000025                     _i2c1_object:
   149                           	opt stack 0
   150  000025                     	ds	7
   151  00002C                     I2C1_ISR@pi2c_buf_ptr:
   152                           	opt stack 0
   153  00002C                     	ds	2
   154  00002E                     _p_i2c1_current:
   155                           	opt stack 0
   156  00002E                     	ds	2
   157  000030                     _p_i2c1_trb_current:
   158                           	opt stack 0
   159  000030                     	ds	2
   160  000032                     I2C1_ISR@i2c_10bit_address_restart:
   161                           	opt stack 0
   162  000032                     	ds	1
   163  000033                     I2C1_ISR@i2c_bytes_left:
   164                           	opt stack 0
   165  000033                     	ds	1
   166  000034                     _i2c1_trb_count:
   167                           	opt stack 0
   168  000034                     	ds	1
   169  000035                     _i2c1_state:
   170                           	opt stack 0
   171  000035                     	ds	1
   172  000036                     I2C1_MasterRead@trBlock:
   173                           	opt stack 0
   174  000036                     	ds	5
   175  00003B                     I2C1_MasterWrite@trBlock:
   176                           	opt stack 0
   177  00003B                     	ds	5
   178  000040                     _i2c1_tr_queue:
   179                           	opt stack 0
   180  000040                     	ds	5
   181  000045                     I2C1_ISR@i2c_address:
   182                           	opt stack 0
   183  000045                     	ds	2
   184                           postinc0	equ	0xFEE
   185                           wreg	equ	0xFE8
   186                           
   187                           	psect	cstackBANK0
   188  000060                     __pcstackBANK0:
   189                           	opt stack 0
   190  000060                     I2C1_MasterWrite@pdata:
   191                           	opt stack 0
   192  000060                     I2C1_MasterRead@pdata:
   193                           	opt stack 0
   194                           
   195                           ; 2 bytes @ 0x0
   196  000060                     	ds	2
   197  000062                     I2C1_MasterWrite@length:
   198                           	opt stack 0
   199  000062                     I2C1_MasterRead@length:
   200                           	opt stack 0
   201                           
   202                           ; 1 bytes @ 0x2
   203  000062                     	ds	1
   204  000063                     I2C1_MasterWrite@address:
   205                           	opt stack 0
   206  000063                     I2C1_MasterRead@address:
   207                           	opt stack 0
   208                           
   209                           ; 2 bytes @ 0x3
   210  000063                     	ds	2
   211  000065                     I2C1_MasterWrite@pflag:
   212                           	opt stack 0
   213  000065                     I2C1_MasterRead@pflag:
   214                           	opt stack 0
   215                           
   216                           ; 2 bytes @ 0x5
   217  000065                     	ds	2
   218  000067                     digitalRead@bity:
   219                           	opt stack 0
   220                           
   221                           ; 1 bytes @ 0x7
   222  000067                     	ds	1
   223  000068                     digitalRead@pin:
   224                           	opt stack 0
   225                           
   226                           ; 1 bytes @ 0x8
   227  000068                     	ds	1
   228  000069                     digitalRead@i2caddr:
   229                           	opt stack 0
   230                           
   231                           ; 1 bytes @ 0x9
   232  000069                     	ds	1
   233  00006A                     digitalRead@regAddr:
   234                           	opt stack 0
   235                           
   236                           ; 1 bytes @ 0xA
   237  00006A                     	ds	1
   238  00006B                     digitalRead@result:
   239                           	opt stack 0
   240                           
   241                           ; 1 bytes @ 0xB
   242  00006B                     	ds	1
   243  00006C                     digitalRead@status:
   244                           	opt stack 0
   245                           
   246                           ; 1 bytes @ 0xC
   247  00006C                     	ds	1
   248  00006D                     main@i2caddr:
   249                           	opt stack 0
   250                           
   251                           ; 1 bytes @ 0xD
   252  00006D                     	ds	1
   253  00006E                     main@data:
   254                           	opt stack 0
   255                           
   256                           ; 1 bytes @ 0xE
   257  00006E                     	ds	1
   258  00006F                     main@status:
   259                           	opt stack 0
   260                           
   261                           ; 1 bytes @ 0xF
   262  00006F                     	ds	1
   263                           postinc0	equ	0xFEE
   264                           wreg	equ	0xFE8
   265                           
   266                           	psect	cstackCOMRAM
   267  000001                     __pcstackCOMRAM:
   268                           	opt stack 0
   269  000001                     ??_I2C1_Stop:
   270  000001                     
   271                           ; 1 bytes @ 0x0
   272  000001                     	ds	2
   273  000003                     I2C1_Stop@completion_code:
   274                           	opt stack 0
   275                           
   276                           ; 1 bytes @ 0x2
   277  000003                     	ds	1
   278  000004                     ??_I2C1_ISR:
   279                           
   280                           ; 1 bytes @ 0x3
   281  000004                     	ds	2
   282  000006                     ??_INTERRUPT_InterruptManager:
   283                           
   284                           ; 1 bytes @ 0x5
   285  000006                     	ds	18
   286  000018                     I2C1_MasterTRBInsert@ptrb_list:
   287                           	opt stack 0
   288  000018                     I2C1_MasterReadTRBBuild@ptrb:
   289                           	opt stack 0
   290  000018                     I2C1_MasterWriteTRBBuild@ptrb:
   291                           	opt stack 0
   292                           
   293                           ; 2 bytes @ 0x17
   294  000018                     	ds	2
   295  00001A                     I2C1_MasterTRBInsert@pflag:
   296                           	opt stack 0
   297  00001A                     I2C1_MasterReadTRBBuild@pdata:
   298                           	opt stack 0
   299  00001A                     I2C1_MasterWriteTRBBuild@pdata:
   300                           	opt stack 0
   301                           
   302                           ; 2 bytes @ 0x19
   303  00001A                     	ds	2
   304  00001C                     I2C1_MasterReadTRBBuild@length:
   305                           	opt stack 0
   306  00001C                     I2C1_MasterWriteTRBBuild@length:
   307                           	opt stack 0
   308                           
   309                           ; 1 bytes @ 0x1B
   310  00001C                     	ds	1
   311  00001D                     I2C1_MasterTRBInsert@count:
   312                           	opt stack 0
   313  00001D                     I2C1_MasterReadTRBBuild@address:
   314                           	opt stack 0
   315  00001D                     I2C1_MasterWriteTRBBuild@address:
   316                           	opt stack 0
   317                           
   318                           ; 2 bytes @ 0x1C
   319  00001D                     	ds	2
   320  00001F                     ??_I2C1_MasterWriteTRBBuild:
   321  00001F                     ??_I2C1_MasterReadTRBBuild:
   322                           
   323                           ; 1 bytes @ 0x1E
   324  00001F                     	ds	2
   325  000021                     ??_digitalRead:
   326                           
   327                           ; 1 bytes @ 0x20
   328  000021                     	ds	2
   329  000023                     ??_main:
   330                           
   331                           ; 1 bytes @ 0x22
   332  000023                     	ds	2
   333                           postinc0	equ	0xFEE
   334                           wreg	equ	0xFE8
   335                           
   336 ;;
   337 ;;Main: autosize = 0, tempsize = 2, incstack = 0, save=0
   338 ;;
   339 ;; *************** function _main *****************
   340 ;; Defined at:
   341 ;;		line 66 in file "main.c"
   342 ;; Parameters:    Size  Location     Type
   343 ;;		None
   344 ;; Auto vars:     Size  Location     Type
   345 ;;  status          1   15[BANK0 ] enum E11615
   346 ;;  data            1   14[BANK0 ] unsigned char 
   347 ;;  i2caddr         1   13[BANK0 ] unsigned char 
   348 ;; Return value:  Size  Location     Type
   349 ;;                  1    wreg      void 
   350 ;; Registers used:
   351 ;;		wreg, fsr2l, fsr2h, status,2, status,0, cstack
   352 ;; Tracked objects:
   353 ;;		On entry : 0/0
   354 ;;		On exit  : 0/0
   355 ;;		Unchanged: 0/0
   356 ;; Data sizes:     COMRAM   BANK0   BANK1   BANK2   BANK3   BANK4   BANK5   BANK6   BANK7   BANK8   BANK9  BANK10  BANK1
      +1  BANK12  BANK13  BANK14
   357 ;;      Params:         0       0       0       0       0       0       0       0       0       0       0       0       
      +0       0       0       0
   358 ;;      Locals:         0       3       0       0       0       0       0       0       0       0       0       0       
      +0       0       0       0
   359 ;;      Temps:          2       0       0       0       0       0       0       0       0       0       0       0       
      +0       0       0       0
   360 ;;      Totals:         2       3       0       0       0       0       0       0       0       0       0       0       
      +0       0       0       0
   361 ;;Total ram usage:        5 bytes
   362 ;; Hardware stack levels required when called:    6
   363 ;; This function calls:
   364 ;;		_I2C1_Initialize
   365 ;;		_I2C1_MasterWrite
   366 ;;		_SYSTEM_Initialize
   367 ;;		_digitalRead
   368 ;; This function is called by:
   369 ;;		Startup code after reset
   370 ;; This function uses a non-reentrant model
   371 ;;
   372                           
   373                           	psect	text0
   374  0002FE                     __ptext0:
   375                           	opt stack 0
   376  0002FE                     _main:
   377                           	opt stack 25
   378                           
   379                           ;main.c: 69: SYSTEM_Initialize();
   380                           
   381                           ;incstack = 0
   382  0002FE  ECA4  F003         	call	_SYSTEM_Initialize	;wreg free
   383                           
   384                           ;main.c: 88: I2C1_Initialize();
   385  000302  EC59  F003         	call	_I2C1_Initialize	;wreg free
   386                           
   387                           ;main.c: 90: uint8_t i2caddr = 0x1;
   388  000306  0E01               	movlw	1
   389  000308  0100               	movlb	0	; () banked
   390  00030A  6F6D               	movwf	main@i2caddr& (0+255),b
   391                           
   392                           ; BSR set to: 0
   393                           ;main.c: 92: uint8_t data;
   394                           ;main.c: 94: I2C1_MESSAGE_STATUS status = I2C1_MESSAGE_PENDING;
   395  00030C  0E02               	movlw	2
   396  00030E  6F6F               	movwf	main@status& (0+255),b
   397                           
   398                           ; BSR set to: 0
   399                           ;main.c: 96: data = 0x01;
   400  000310  0E01               	movlw	1
   401  000312  6F6E               	movwf	main@data& (0+255),b
   402                           
   403                           ; BSR set to: 0
   404                           ;main.c: 97: I2C1_MasterWrite(&data, 1, 0x20 | i2caddr, &status);
   405  000314  0E6E               	movlw	low main@data
   406  000316  6F60               	movwf	I2C1_MasterWrite@pdata& (0+255),b
   407  000318  0E00               	movlw	high main@data
   408  00031A  6F61               	movwf	(I2C1_MasterWrite@pdata+1)& (0+255),b
   409  00031C  0E01               	movlw	1
   410  00031E  6F62               	movwf	I2C1_MasterWrite@length& (0+255),b
   411  000320  0E20               	movlw	32
   412  000322  C06D  F023         	movff	main@i2caddr,??_main
   413  000326  6A24               	clrf	(??_main+1)& (0+255),c
   414  000328  1023               	iorwf	??_main,w,c
   415  00032A  6F63               	movwf	I2C1_MasterWrite@address& (0+255),b
   416  00032C  5024               	movf	??_main+1,w,c
   417  00032E  6F64               	movwf	(I2C1_MasterWrite@address+1)& (0+255),b
   418  000330  0E6F               	movlw	low main@status
   419  000332  6F65               	movwf	I2C1_MasterWrite@pflag& (0+255),b
   420  000334  0E00               	movlw	high main@status
   421  000336  6F66               	movwf	(I2C1_MasterWrite@pflag+1)& (0+255),b
   422  000338  ECCE  F002         	call	_I2C1_MasterWrite	;wreg free
   423                           
   424                           ;main.c: 101: data = 0xff;
   425  00033C  0100               	movlb	0	; () banked
   426  00033E  696E               	setf	main@data& (0+255),b
   427                           
   428                           ; BSR set to: 0
   429                           ;main.c: 102: I2C1_MasterWrite(&data, 1, 0x20 | i2caddr, &status);
   430  000340  0E6E               	movlw	low main@data
   431  000342  6F60               	movwf	I2C1_MasterWrite@pdata& (0+255),b
   432  000344  0E00               	movlw	high main@data
   433  000346  6F61               	movwf	(I2C1_MasterWrite@pdata+1)& (0+255),b
   434  000348  0E01               	movlw	1
   435  00034A  6F62               	movwf	I2C1_MasterWrite@length& (0+255),b
   436  00034C  0E20               	movlw	32
   437  00034E  C06D  F023         	movff	main@i2caddr,??_main
   438  000352  6A24               	clrf	(??_main+1)& (0+255),c
   439  000354  1023               	iorwf	??_main,w,c
   440  000356  6F63               	movwf	I2C1_MasterWrite@address& (0+255),b
   441  000358  5024               	movf	??_main+1,w,c
   442  00035A  6F64               	movwf	(I2C1_MasterWrite@address+1)& (0+255),b
   443  00035C  0E6F               	movlw	low main@status
   444  00035E  6F65               	movwf	I2C1_MasterWrite@pflag& (0+255),b
   445  000360  0E00               	movlw	high main@status
   446  000362  6F66               	movwf	(I2C1_MasterWrite@pflag+1)& (0+255),b
   447  000364  ECCE  F002         	call	_I2C1_MasterWrite	;wreg free
   448  000368                     
   449                           ;main.c: 110: {
   450                           ;main.c: 111: if(digitalRead(8)){
   451  000368  0E08               	movlw	8
   452  00036A  EC22  F002         	call	_digitalRead
   453  00036E  0900               	iorlw	0
   454  000370  B4D8               	btfsc	status,2,c
   455  000372  D00F               	goto	l301
   456                           
   457                           ;main.c: 112: do { LATCbits.LATC6 = ~LATCbits.LATC6; } while(0);
   458  000374  AC85               	btfss	3973,6,c	;volatile
   459  000376  D002               	goto	u750
   460  000378  0E01               	movlw	1
   461  00037A  D001               	goto	u756
   462  00037C                     u750:
   463  00037C  0E00               	movlw	0
   464  00037E                     u756:
   465  00037E  0AFF               	xorlw	255
   466  000380  6E23               	movwf	??_main& (0+255),c
   467  000382  3A23               	swapf	??_main,f,c
   468  000384  4623               	rlncf	??_main,f,c
   469  000386  4623               	rlncf	??_main,f,c
   470  000388  5085               	movf	3973,w,c	;volatile
   471  00038A  1823               	xorwf	??_main,w,c
   472  00038C  0BBF               	andlw	-65
   473  00038E  1823               	xorwf	??_main,w,c
   474  000390  6E85               	movwf	3973,c	;volatile
   475  000392                     l301:
   476                           
   477                           ;main.c: 113: }
   478                           ;main.c: 115: _delay((unsigned long)((100)*(4000000/4000.0)));
   479  000392  0E82               	movlw	130
   480  000394  6E23               	movwf	??_main& (0+255),c
   481  000396  0EDE               	movlw	222
   482  000398                     u767:
   483  000398  2EE8               	decfsz	wreg,f,c
   484  00039A  D7FE               	bra	u767
   485  00039C  2E23               	decfsz	??_main& (0+255),f,c
   486  00039E  D7FC               	bra	u767
   487  0003A0  D7E3               	goto	l298
   488  0003A2                     __end_of_main:
   489                           	opt stack 0
   490                           postinc0	equ	0xFEE
   491                           wreg	equ	0xFE8
   492                           status	equ	0xFD8
   493                           
   494 ;; *************** function _digitalRead *****************
   495 ;; Defined at:
   496 ;;		line 46 in file "main.c"
   497 ;; Parameters:    Size  Location     Type
   498 ;;  pin             1    wreg     unsigned char 
   499 ;; Auto vars:     Size  Location     Type
   500 ;;  pin             1    8[BANK0 ] unsigned char 
   501 ;;  status          1   12[BANK0 ] enum E11615
   502 ;;  result          1   11[BANK0 ] unsigned char 
   503 ;;  regAddr         1   10[BANK0 ] unsigned char 
   504 ;;  i2caddr         1    9[BANK0 ] unsigned char 
   505 ;;  bity            1    7[BANK0 ] unsigned char 
   506 ;; Return value:  Size  Location     Type
   507 ;;                  1    wreg      unsigned char 
   508 ;; Registers used:
   509 ;;		wreg, fsr2l, fsr2h, status,2, status,0, cstack
   510 ;; Tracked objects:
   511 ;;		On entry : 0/0
   512 ;;		On exit  : 0/0
   513 ;;		Unchanged: 0/0
   514 ;; Data sizes:     COMRAM   BANK0   BANK1   BANK2   BANK3   BANK4   BANK5   BANK6   BANK7   BANK8   BANK9  BANK10  BANK1
      +1  BANK12  BANK13  BANK14
   515 ;;      Params:         0       0       0       0       0       0       0       0       0       0       0       0       
      +0       0       0       0
   516 ;;      Locals:         0       6       0       0       0       0       0       0       0       0       0       0       
      +0       0       0       0
   517 ;;      Temps:          2       0       0       0       0       0       0       0       0       0       0       0       
      +0       0       0       0
   518 ;;      Totals:         2       6       0       0       0       0       0       0       0       0       0       0       
      +0       0       0       0
   519 ;;Total ram usage:        8 bytes
   520 ;; Hardware stack levels used:    1
   521 ;; Hardware stack levels required when called:    5
   522 ;; This function calls:
   523 ;;		_I2C1_MasterRead
   524 ;;		_I2C1_MasterWrite
   525 ;; This function is called by:
   526 ;;		_main
   527 ;; This function uses a non-reentrant model
   528 ;;
   529                           
   530                           	psect	text1
   531  000444                     __ptext1:
   532                           	opt stack 0
   533  000444                     _digitalRead:
   534                           	opt stack 25
   535                           
   536                           ;incstack = 0
   537                           ;digitalRead@pin stored from wreg
   538  000444  0100               	movlb	0	; () banked
   539  000446  6F68               	movwf	digitalRead@pin& (0+255),b
   540                           
   541                           ;main.c: 47: uint8_t i2caddr = 1;
   542  000448  0E01               	movlw	1
   543  00044A  0100               	movlb	0	; () banked
   544  00044C  6F69               	movwf	digitalRead@i2caddr& (0+255),b
   545                           
   546                           ;main.c: 48: I2C1_MESSAGE_STATUS status = I2C1_MESSAGE_PENDING;
   547  00044E  0E02               	movlw	2
   548  000450  6F6C               	movwf	digitalRead@status& (0+255),b
   549                           
   550                           ; BSR set to: 0
   551                           ;main.c: 50: uint8_t bity=pin%8;
   552  000452  5168               	movf	digitalRead@pin& (0+255),w,b
   553  000454  0B07               	andlw	7
   554  000456  6F67               	movwf	digitalRead@bity& (0+255),b
   555                           
   556                           ; BSR set to: 0
   557                           ;main.c: 51: uint8_t regAddr;
   558                           ;main.c: 52: if(pin < 8)
   559  000458  0E08               	movlw	8
   560  00045A  6168               	cpfslt	digitalRead@pin& (0+255),b
   561  00045C  D002               	goto	l291
   562                           
   563                           ; BSR set to: 0
   564                           ;main.c: 53: regAddr = 0x12;
   565  00045E  0E12               	movlw	18
   566  000460  D001               	goto	L1
   567  000462                     l291:
   568                           
   569                           ; BSR set to: 0
   570                           ;main.c: 54: else
   571                           ;main.c: 55: regAddr = 0x13;
   572                           
   573                           ; BSR set to: 0
   574  000462  0E13               	movlw	19
   575  000464                     L1:
   576  000464  6F6A               	movwf	digitalRead@regAddr& (0+255),b
   577                           
   578                           ; BSR set to: 0
   579                           ;main.c: 57: I2C1_MasterWrite(&regAddr, 1, 0x20 | i2caddr, &status);
   580                           
   581                           ; BSR set to: 0
   582  000466  0E6A               	movlw	low digitalRead@regAddr
   583  000468  6F60               	movwf	I2C1_MasterWrite@pdata& (0+255),b
   584  00046A  0E00               	movlw	high digitalRead@regAddr
   585  00046C  6F61               	movwf	(I2C1_MasterWrite@pdata+1)& (0+255),b
   586  00046E  0E01               	movlw	1
   587  000470  6F62               	movwf	I2C1_MasterWrite@length& (0+255),b
   588  000472  0E20               	movlw	32
   589  000474  C069  F021         	movff	digitalRead@i2caddr,??_digitalRead
   590  000478  6A22               	clrf	(??_digitalRead+1)& (0+255),c
   591  00047A  1021               	iorwf	??_digitalRead,w,c
   592  00047C  6F63               	movwf	I2C1_MasterWrite@address& (0+255),b
   593  00047E  5022               	movf	??_digitalRead+1,w,c
   594  000480  6F64               	movwf	(I2C1_MasterWrite@address+1)& (0+255),b
   595  000482  0E6C               	movlw	low digitalRead@status
   596  000484  6F65               	movwf	I2C1_MasterWrite@pflag& (0+255),b
   597  000486  0E00               	movlw	high digitalRead@status
   598  000488  6F66               	movwf	(I2C1_MasterWrite@pflag+1)& (0+255),b
   599  00048A  ECCE  F002         	call	_I2C1_MasterWrite	;wreg free
   600                           
   601                           ;main.c: 58: uint8_t result;
   602                           ;main.c: 59: I2C1_MasterRead(&result, 1, 0x20 | i2caddr, &status);
   603  00048E  0E6B               	movlw	low digitalRead@result
   604  000490  0100               	movlb	0	; () banked
   605  000492  6F60               	movwf	I2C1_MasterRead@pdata& (0+255),b
   606  000494  0E00               	movlw	high digitalRead@result
   607  000496  6F61               	movwf	(I2C1_MasterRead@pdata+1)& (0+255),b
   608  000498  0E01               	movlw	1
   609  00049A  6F62               	movwf	I2C1_MasterRead@length& (0+255),b
   610  00049C  0E20               	movlw	32
   611  00049E  C069  F021         	movff	digitalRead@i2caddr,??_digitalRead
   612  0004A2  6A22               	clrf	(??_digitalRead+1)& (0+255),c
   613  0004A4  1021               	iorwf	??_digitalRead,w,c
   614  0004A6  6F63               	movwf	I2C1_MasterRead@address& (0+255),b
   615  0004A8  5022               	movf	??_digitalRead+1,w,c
   616  0004AA  6F64               	movwf	(I2C1_MasterRead@address+1)& (0+255),b
   617  0004AC  0E6C               	movlw	low digitalRead@status
   618  0004AE  6F65               	movwf	I2C1_MasterRead@pflag& (0+255),b
   619  0004B0  0E00               	movlw	high digitalRead@status
   620  0004B2  6F66               	movwf	(I2C1_MasterRead@pflag+1)& (0+255),b
   621  0004B4  ECF3  F002         	call	_I2C1_MasterRead	;wreg free
   622                           
   623                           ;main.c: 60: return (result >> bity) & 0x1;
   624  0004B8  C067  F021         	movff	digitalRead@bity,??_digitalRead
   625  0004BC  C06B  F022         	movff	digitalRead@result,??_digitalRead+1
   626  0004C0  2A21               	incf	??_digitalRead,f,c
   627  0004C2  D002               	goto	u684
   628  0004C4                     u685:
   629  0004C4  90D8               	bcf	status,0,c
   630  0004C6  3222               	rrcf	??_digitalRead+1,f,c
   631  0004C8                     u684:
   632  0004C8  2E21               	decfsz	??_digitalRead,f,c
   633  0004CA  D7FC               	goto	u685
   634  0004CC  5022               	movf	??_digitalRead+1,w,c
   635  0004CE  0B01               	andlw	1
   636  0004D0  0012               	return	
   637  0004D2                     __end_of_digitalRead:
   638                           	opt stack 0
   639                           postinc0	equ	0xFEE
   640                           wreg	equ	0xFE8
   641                           status	equ	0xFD8
   642                           
   643 ;; *************** function _I2C1_MasterWrite *****************
   644 ;; Defined at:
   645 ;;		line 598 in file "mcc_generated_files/i2c1.c"
   646 ;; Parameters:    Size  Location     Type
   647 ;;  pdata           2    0[BANK0 ] PTR unsigned char 
   648 ;;		 -> main@data(1), digitalRead@regAddr(1), 
   649 ;;  length          1    2[BANK0 ] unsigned char 
   650 ;;  address         2    3[BANK0 ] unsigned int 
   651 ;;  pflag           2    5[BANK0 ] PTR enum E11606
   652 ;;		 -> main@status(1), digitalRead@status(1), 
   653 ;; Auto vars:     Size  Location     Type
   654 ;;		None
   655 ;; Return value:  Size  Location     Type
   656 ;;                  1    wreg      void 
   657 ;; Registers used:
   658 ;;		wreg, fsr2l, fsr2h, status,2, status,0, cstack
   659 ;; Tracked objects:
   660 ;;		On entry : 0/0
   661 ;;		On exit  : 0/0
   662 ;;		Unchanged: 0/0
   663 ;; Data sizes:     COMRAM   BANK0   BANK1   BANK2   BANK3   BANK4   BANK5   BANK6   BANK7   BANK8   BANK9  BANK10  BANK1
      +1  BANK12  BANK13  BANK14
   664 ;;      Params:         0       7       0       0       0       0       0       0       0       0       0       0       
      +0       0       0       0
   665 ;;      Locals:         0       0       0       0       0       0       0       0       0       0       0       0       
      +0       0       0       0
   666 ;;      Temps:          0       0       0       0       0       0       0       0       0       0       0       0       
      +0       0       0       0
   667 ;;      Totals:         0       7       0       0       0       0       0       0       0       0       0       0       
      +0       0       0       0
   668 ;;Total ram usage:        7 bytes
   669 ;; Hardware stack levels used:    1
   670 ;; Hardware stack levels required when called:    4
   671 ;; This function calls:
   672 ;;		_I2C1_MasterTRBInsert
   673 ;;		_I2C1_MasterWriteTRBBuild
   674 ;; This function is called by:
   675 ;;		_digitalRead
   676 ;;		_main
   677 ;; This function uses a non-reentrant model
   678 ;;
   679                           
   680                           	psect	text2
   681  00059C                     __ptext2:
   682                           	opt stack 0
   683  00059C                     _I2C1_MasterWrite:
   684                           	opt stack 25
   685                           
   686                           ;i2c1.c: 604: static I2C1_TRANSACTION_REQUEST_BLOCK trBlock;
   687                           ;i2c1.c: 607: if (i2c1_object.trStatus.s.full != 1)
   688                           
   689                           ;incstack = 0
   690  00059C  B029               	btfsc	_i2c1_object+4,0,c
   691  00059E  D01C               	goto	l217
   692                           
   693                           ;i2c1.c: 608: {
   694                           ;i2c1.c: 609: I2C1_MasterWriteTRBBuild(&trBlock, pdata, length, address);
   695  0005A0  0E3B               	movlw	low I2C1_MasterWrite@trBlock
   696  0005A2  6E18               	movwf	I2C1_MasterWriteTRBBuild@ptrb,c
   697  0005A4  0E00               	movlw	high I2C1_MasterWrite@trBlock
   698  0005A6  6E19               	movwf	I2C1_MasterWriteTRBBuild@ptrb+1,c
   699  0005A8  C060  F01A         	movff	I2C1_MasterWrite@pdata,I2C1_MasterWriteTRBBuild@pdata
   700  0005AC  C061  F01B         	movff	I2C1_MasterWrite@pdata+1,I2C1_MasterWriteTRBBuild@pdata+1
   701  0005B0  C062  F01C         	movff	I2C1_MasterWrite@length,I2C1_MasterWriteTRBBuild@length
   702  0005B4  C063  F01D         	movff	I2C1_MasterWrite@address,I2C1_MasterWriteTRBBuild@address
   703  0005B8  C064  F01E         	movff	I2C1_MasterWrite@address+1,I2C1_MasterWriteTRBBuild@address+1
   704  0005BC  EC18  F003         	call	_I2C1_MasterWriteTRBBuild	;wreg free
   705                           
   706                           ;i2c1.c: 610: I2C1_MasterTRBInsert(1, &trBlock, pflag);
   707  0005C0  0E3B               	movlw	low I2C1_MasterWrite@trBlock
   708  0005C2  6E18               	movwf	I2C1_MasterTRBInsert@ptrb_list,c
   709  0005C4  0E00               	movlw	high I2C1_MasterWrite@trBlock
   710  0005C6  6E19               	movwf	I2C1_MasterTRBInsert@ptrb_list+1,c
   711  0005C8  C065  F01A         	movff	I2C1_MasterWrite@pflag,I2C1_MasterTRBInsert@pflag
   712  0005CC  C066  F01B         	movff	I2C1_MasterWrite@pflag+1,I2C1_MasterTRBInsert@pflag+1
   713  0005D0  0E01               	movlw	1
   714  0005D2  ECD1  F001         	call	_I2C1_MasterTRBInsert
   715                           
   716                           ;i2c1.c: 611: }
   717  0005D6  0012               	return	
   718  0005D8                     l217:
   719                           
   720                           ;i2c1.c: 612: else
   721                           ;i2c1.c: 613: {
   722                           ;i2c1.c: 614: *pflag = I2C1_MESSAGE_FAIL;
   723  0005D8  C065  FFD9         	movff	I2C1_MasterWrite@pflag,fsr2l
   724  0005DC  C066  FFDA         	movff	I2C1_MasterWrite@pflag+1,fsr2h
   725  0005E0  0E01               	movlw	1
   726  0005E2  6EDF               	movwf	indf2,c
   727  0005E4  0012               	return	
   728  0005E6                     __end_of_I2C1_MasterWrite:
   729                           	opt stack 0
   730                           postinc0	equ	0xFEE
   731                           wreg	equ	0xFE8
   732                           indf2	equ	0xFDF
   733                           fsr2h	equ	0xFDA
   734                           fsr2l	equ	0xFD9
   735                           status	equ	0xFD8
   736                           
   737 ;; *************** function _I2C1_MasterWriteTRBBuild *****************
   738 ;; Defined at:
   739 ;;		line 707 in file "mcc_generated_files/i2c1.c"
   740 ;; Parameters:    Size  Location     Type
   741 ;;  ptrb            2   23[COMRAM] PTR struct .
   742 ;;		 -> I2C1_MasterWrite@trBlock(5), 
   743 ;;  pdata           2   25[COMRAM] PTR unsigned char 
   744 ;;		 -> main@data(1), digitalRead@regAddr(1), 
   745 ;;  length          1   27[COMRAM] unsigned char 
   746 ;;  address         2   28[COMRAM] unsigned int 
   747 ;; Auto vars:     Size  Location     Type
   748 ;;		None
   749 ;; Return value:  Size  Location     Type
   750 ;;                  1    wreg      void 
   751 ;; Registers used:
   752 ;;		wreg, fsr2l, fsr2h, status,2, status,0
   753 ;; Tracked objects:
   754 ;;		On entry : 0/0
   755 ;;		On exit  : 0/0
   756 ;;		Unchanged: 0/0
   757 ;; Data sizes:     COMRAM   BANK0   BANK1   BANK2   BANK3   BANK4   BANK5   BANK6   BANK7   BANK8   BANK9  BANK10  BANK1
      +1  BANK12  BANK13  BANK14
   758 ;;      Params:         7       0       0       0       0       0       0       0       0       0       0       0       
      +0       0       0       0
   759 ;;      Locals:         0       0       0       0       0       0       0       0       0       0       0       0       
      +0       0       0       0
   760 ;;      Temps:          2       0       0       0       0       0       0       0       0       0       0       0       
      +0       0       0       0
   761 ;;      Totals:         9       0       0       0       0       0       0       0       0       0       0       0       
      +0       0       0       0
   762 ;;Total ram usage:        9 bytes
   763 ;; Hardware stack levels used:    1
   764 ;; Hardware stack levels required when called:    3
   765 ;; This function calls:
   766 ;;		Nothing
   767 ;; This function is called by:
   768 ;;		_I2C1_MasterWrite
   769 ;; This function uses a non-reentrant model
   770 ;;
   771                           
   772                           	psect	text3
   773  000630                     __ptext3:
   774                           	opt stack 0
   775  000630                     _I2C1_MasterWriteTRBBuild:
   776                           	opt stack 25
   777                           
   778                           ;i2c1.c: 713: ptrb->address = address << 1;
   779                           
   780                           ;incstack = 0
   781  000630  C01D  F01F         	movff	I2C1_MasterWriteTRBBuild@address,??_I2C1_MasterWriteTRBBuild
   782  000634  C01E  F020         	movff	I2C1_MasterWriteTRBBuild@address+1,??_I2C1_MasterWriteTRBBuild+1
   783  000638  90D8               	bcf	status,0,c
   784  00063A  361F               	rlcf	??_I2C1_MasterWriteTRBBuild,f,c
   785  00063C  3620               	rlcf	??_I2C1_MasterWriteTRBBuild+1,f,c
   786  00063E  C018  FFD9         	movff	I2C1_MasterWriteTRBBuild@ptrb,fsr2l
   787  000642  C019  FFDA         	movff	I2C1_MasterWriteTRBBuild@ptrb+1,fsr2h
   788  000646  C01F  FFDE         	movff	??_I2C1_MasterWriteTRBBuild,postinc2
   789  00064A  C020  FFDD         	movff	??_I2C1_MasterWriteTRBBuild+1,postdec2
   790                           
   791                           ;i2c1.c: 714: ptrb->length = length;
   792  00064E  EE20 F002          	lfsr	2,2
   793  000652  5018               	movf	I2C1_MasterWriteTRBBuild@ptrb,w,c
   794  000654  26D9               	addwf	fsr2l,f,c
   795  000656  5019               	movf	I2C1_MasterWriteTRBBuild@ptrb+1,w,c
   796  000658  22DA               	addwfc	fsr2h,f,c
   797  00065A  C01C  FFDF         	movff	I2C1_MasterWriteTRBBuild@length,indf2
   798                           
   799                           ;i2c1.c: 715: ptrb->pbuffer = pdata;
   800  00065E  EE20 F003          	lfsr	2,3
   801  000662  5018               	movf	I2C1_MasterWriteTRBBuild@ptrb,w,c
   802  000664  26D9               	addwf	fsr2l,f,c
   803  000666  5019               	movf	I2C1_MasterWriteTRBBuild@ptrb+1,w,c
   804  000668  22DA               	addwfc	fsr2h,f,c
   805  00066A  C01A  FFDE         	movff	I2C1_MasterWriteTRBBuild@pdata,postinc2
   806  00066E  C01B  FFDD         	movff	I2C1_MasterWriteTRBBuild@pdata+1,postdec2
   807  000672  0012               	return		;funcret
   808  000674                     __end_of_I2C1_MasterWriteTRBBuild:
   809                           	opt stack 0
   810                           postinc0	equ	0xFEE
   811                           wreg	equ	0xFE8
   812                           indf2	equ	0xFDF
   813                           postinc2	equ	0xFDE
   814                           postdec2	equ	0xFDD
   815                           fsr2h	equ	0xFDA
   816                           fsr2l	equ	0xFD9
   817                           status	equ	0xFD8
   818                           
   819 ;; *************** function _I2C1_MasterRead *****************
   820 ;; Defined at:
   821 ;;		line 619 in file "mcc_generated_files/i2c1.c"
   822 ;; Parameters:    Size  Location     Type
   823 ;;  pdata           2    0[BANK0 ] PTR unsigned char 
   824 ;;		 -> digitalRead@result(1), 
   825 ;;  length          1    2[BANK0 ] unsigned char 
   826 ;;  address         2    3[BANK0 ] unsigned int 
   827 ;;  pflag           2    5[BANK0 ] PTR enum E11606
   828 ;;		 -> digitalRead@status(1), 
   829 ;; Auto vars:     Size  Location     Type
   830 ;;		None
   831 ;; Return value:  Size  Location     Type
   832 ;;                  1    wreg      void 
   833 ;; Registers used:
   834 ;;		wreg, fsr2l, fsr2h, status,2, status,0, cstack
   835 ;; Tracked objects:
   836 ;;		On entry : 0/0
   837 ;;		On exit  : 0/0
   838 ;;		Unchanged: 0/0
   839 ;; Data sizes:     COMRAM   BANK0   BANK1   BANK2   BANK3   BANK4   BANK5   BANK6   BANK7   BANK8   BANK9  BANK10  BANK1
      +1  BANK12  BANK13  BANK14
   840 ;;      Params:         0       7       0       0       0       0       0       0       0       0       0       0       
      +0       0       0       0
   841 ;;      Locals:         0       0       0       0       0       0       0       0       0       0       0       0       
      +0       0       0       0
   842 ;;      Temps:          0       0       0       0       0       0       0       0       0       0       0       0       
      +0       0       0       0
   843 ;;      Totals:         0       7       0       0       0       0       0       0       0       0       0       0       
      +0       0       0       0
   844 ;;Total ram usage:        7 bytes
   845 ;; Hardware stack levels used:    1
   846 ;; Hardware stack levels required when called:    4
   847 ;; This function calls:
   848 ;;		_I2C1_MasterReadTRBBuild
   849 ;;		_I2C1_MasterTRBInsert
   850 ;; This function is called by:
   851 ;;		_digitalRead
   852 ;; This function uses a non-reentrant model
   853 ;;
   854                           
   855                           	psect	text4
   856  0005E6                     __ptext4:
   857                           	opt stack 0
   858  0005E6                     _I2C1_MasterRead:
   859                           	opt stack 25
   860                           
   861                           ;i2c1.c: 625: static I2C1_TRANSACTION_REQUEST_BLOCK trBlock;
   862                           ;i2c1.c: 629: if (i2c1_object.trStatus.s.full != 1)
   863                           
   864                           ;incstack = 0
   865  0005E6  B029               	btfsc	_i2c1_object+4,0,c
   866  0005E8  D01C               	goto	l224
   867                           
   868                           ;i2c1.c: 630: {
   869                           ;i2c1.c: 631: I2C1_MasterReadTRBBuild(&trBlock, pdata, length, address);
   870  0005EA  0E36               	movlw	low I2C1_MasterRead@trBlock
   871  0005EC  6E18               	movwf	I2C1_MasterReadTRBBuild@ptrb,c
   872  0005EE  0E00               	movlw	high I2C1_MasterRead@trBlock
   873  0005F0  6E19               	movwf	I2C1_MasterReadTRBBuild@ptrb+1,c
   874  0005F2  C060  F01A         	movff	I2C1_MasterRead@pdata,I2C1_MasterReadTRBBuild@pdata
   875  0005F6  C061  F01B         	movff	I2C1_MasterRead@pdata+1,I2C1_MasterReadTRBBuild@pdata+1
   876  0005FA  C062  F01C         	movff	I2C1_MasterRead@length,I2C1_MasterReadTRBBuild@length
   877  0005FE  C063  F01D         	movff	I2C1_MasterRead@address,I2C1_MasterReadTRBBuild@address
   878  000602  C064  F01E         	movff	I2C1_MasterRead@address+1,I2C1_MasterReadTRBBuild@address+1
   879  000606  ECA6  F002         	call	_I2C1_MasterReadTRBBuild	;wreg free
   880                           
   881                           ;i2c1.c: 632: I2C1_MasterTRBInsert(1, &trBlock, pflag);
   882  00060A  0E36               	movlw	low I2C1_MasterRead@trBlock
   883  00060C  6E18               	movwf	I2C1_MasterTRBInsert@ptrb_list,c
   884  00060E  0E00               	movlw	high I2C1_MasterRead@trBlock
   885  000610  6E19               	movwf	I2C1_MasterTRBInsert@ptrb_list+1,c
   886  000612  C065  F01A         	movff	I2C1_MasterRead@pflag,I2C1_MasterTRBInsert@pflag
   887  000616  C066  F01B         	movff	I2C1_MasterRead@pflag+1,I2C1_MasterTRBInsert@pflag+1
   888  00061A  0E01               	movlw	1
   889  00061C  ECD1  F001         	call	_I2C1_MasterTRBInsert
   890                           
   891                           ;i2c1.c: 633: }
   892  000620  0012               	return	
   893  000622                     l224:
   894                           
   895                           ;i2c1.c: 634: else
   896                           ;i2c1.c: 635: {
   897                           ;i2c1.c: 636: *pflag = I2C1_MESSAGE_FAIL;
   898  000622  C065  FFD9         	movff	I2C1_MasterRead@pflag,fsr2l
   899  000626  C066  FFDA         	movff	I2C1_MasterRead@pflag+1,fsr2h
   900  00062A  0E01               	movlw	1
   901  00062C  6EDF               	movwf	indf2,c
   902  00062E  0012               	return	
   903  000630                     __end_of_I2C1_MasterRead:
   904                           	opt stack 0
   905                           postinc0	equ	0xFEE
   906                           wreg	equ	0xFE8
   907                           indf2	equ	0xFDF
   908                           postinc2	equ	0xFDE
   909                           postdec2	equ	0xFDD
   910                           fsr2h	equ	0xFDA
   911                           fsr2l	equ	0xFD9
   912                           status	equ	0xFD8
   913                           
   914 ;; *************** function _I2C1_MasterTRBInsert *****************
   915 ;; Defined at:
   916 ;;		line 641 in file "mcc_generated_files/i2c1.c"
   917 ;; Parameters:    Size  Location     Type
   918 ;;  count           1    wreg     unsigned char 
   919 ;;  ptrb_list       2   23[COMRAM] PTR struct .
   920 ;;		 -> I2C1_MasterRead@trBlock(5), I2C1_MasterWrite@trBlock(5), 
   921 ;;  pflag           2   25[COMRAM] PTR enum E11606
   922 ;;		 -> main@status(1), digitalRead@status(1), 
   923 ;; Auto vars:     Size  Location     Type
   924 ;;  count           1   28[COMRAM] unsigned char 
   925 ;; Return value:  Size  Location     Type
   926 ;;                  1    wreg      void 
   927 ;; Registers used:
   928 ;;		wreg, fsr2l, fsr2h, status,2, status,0
   929 ;; Tracked objects:
   930 ;;		On entry : 0/0
   931 ;;		On exit  : 0/0
   932 ;;		Unchanged: 0/0
   933 ;; Data sizes:     COMRAM   BANK0   BANK1   BANK2   BANK3   BANK4   BANK5   BANK6   BANK7   BANK8   BANK9  BANK10  BANK1
      +1  BANK12  BANK13  BANK14
   934 ;;      Params:         4       0       0       0       0       0       0       0       0       0       0       0       
      +0       0       0       0
   935 ;;      Locals:         1       0       0       0       0       0       0       0       0       0       0       0       
      +0       0       0       0
   936 ;;      Temps:          1       0       0       0       0       0       0       0       0       0       0       0       
      +0       0       0       0
   937 ;;      Totals:         6       0       0       0       0       0       0       0       0       0       0       0       
      +0       0       0       0
   938 ;;Total ram usage:        6 bytes
   939 ;; Hardware stack levels used:    1
   940 ;; Hardware stack levels required when called:    3
   941 ;; This function calls:
   942 ;;		Nothing
   943 ;; This function is called by:
   944 ;;		_I2C1_MasterWrite
   945 ;;		_I2C1_MasterRead
   946 ;; This function uses a non-reentrant model
   947 ;;
   948                           
   949                           	psect	text5
   950  0003A2                     __ptext5:
   951                           	opt stack 0
   952  0003A2                     _I2C1_MasterTRBInsert:
   953                           	opt stack 25
   954                           
   955                           ;incstack = 0
   956                           ;I2C1_MasterTRBInsert@count stored from wreg
   957  0003A2  6E1D               	movwf	I2C1_MasterTRBInsert@count,c
   958                           
   959                           ;i2c1.c: 648: if (i2c1_object.trStatus.s.full != 1)
   960  0003A4  B029               	btfsc	_i2c1_object+4,0,c
   961  0003A6  D039               	goto	l229
   962                           
   963                           ;i2c1.c: 649: {
   964                           ;i2c1.c: 650: *pflag = I2C1_MESSAGE_PENDING;
   965  0003A8  C01A  FFD9         	movff	I2C1_MasterTRBInsert@pflag,fsr2l
   966  0003AC  C01B  FFDA         	movff	I2C1_MasterTRBInsert@pflag+1,fsr2h
   967  0003B0  0E02               	movlw	2
   968  0003B2  6EDF               	movwf	indf2,c
   969                           
   970                           ;i2c1.c: 652: i2c1_object.pTrTail->ptrb_list = ptrb_list;
   971  0003B4  EE20 F001          	lfsr	2,1
   972  0003B8  5025               	movf	_i2c1_object,w,c
   973  0003BA  26D9               	addwf	fsr2l,f,c
   974  0003BC  5026               	movf	_i2c1_object+1,w,c
   975  0003BE  22DA               	addwfc	fsr2h,f,c
   976  0003C0  C018  FFDE         	movff	I2C1_MasterTRBInsert@ptrb_list,postinc2
   977  0003C4  C019  FFDD         	movff	I2C1_MasterTRBInsert@ptrb_list+1,postdec2
   978                           
   979                           ;i2c1.c: 653: i2c1_object.pTrTail->count = count;
   980  0003C8  C025  FFD9         	movff	_i2c1_object,fsr2l
   981  0003CC  C026  FFDA         	movff	_i2c1_object+1,fsr2h
   982  0003D0  C01D  FFDF         	movff	I2C1_MasterTRBInsert@count,indf2
   983                           
   984                           ;i2c1.c: 654: i2c1_object.pTrTail->pTrFlag = pflag;
   985  0003D4  EE20 F003          	lfsr	2,3
   986  0003D8  5025               	movf	_i2c1_object,w,c
   987  0003DA  26D9               	addwf	fsr2l,f,c
   988  0003DC  5026               	movf	_i2c1_object+1,w,c
   989  0003DE  22DA               	addwfc	fsr2h,f,c
   990  0003E0  C01A  FFDE         	movff	I2C1_MasterTRBInsert@pflag,postinc2
   991  0003E4  C01B  FFDD         	movff	I2C1_MasterTRBInsert@pflag+1,postdec2
   992                           
   993                           ;i2c1.c: 655: i2c1_object.pTrTail++;
   994  0003E8  0E05               	movlw	5
   995  0003EA  2625               	addwf	_i2c1_object,f,c
   996  0003EC  0E00               	movlw	0
   997  0003EE  2226               	addwfc	_i2c1_object+1,f,c
   998                           
   999                           ;i2c1.c: 658: if (i2c1_object.pTrTail == (i2c1_tr_queue + 1))
  1000  0003F0  0E45               	movlw	low (_i2c1_tr_queue+5)
  1001  0003F2  1825               	xorwf	_i2c1_object,w,c
  1002  0003F4  E108               	bnz	l1360
  1003  0003F6  0E00               	movlw	high (_i2c1_tr_queue+5)
  1004  0003F8  1826               	xorwf	_i2c1_object+1,w,c
  1005  0003FA  A4D8               	btfss	status,2,c
  1006  0003FC  D004               	goto	l230
  1007                           
  1008                           ;i2c1.c: 659: {
  1009                           ;i2c1.c: 661: i2c1_object.pTrTail = i2c1_tr_queue;
  1010  0003FE  0E40               	movlw	low _i2c1_tr_queue
  1011  000400  6E25               	movwf	_i2c1_object,c
  1012  000402  0E00               	movlw	high _i2c1_tr_queue
  1013  000404  6E26               	movwf	_i2c1_object+1,c
  1014  000406                     l230:
  1015  000406                     l1360:
  1016                           
  1017                           ;i2c1.c: 662: }
  1018                           ;i2c1.c: 666: i2c1_object.trStatus.s.empty = 0;
  1019  000406  9229               	bcf	_i2c1_object+4,1,c
  1020                           
  1021                           ;i2c1.c: 669: if (i2c1_object.pTrHead == i2c1_object.pTrTail)
  1022  000408  5025               	movf	_i2c1_object,w,c
  1023  00040A  1827               	xorwf	_i2c1_object+2,w,c
  1024  00040C  E10C               	bnz	l1366
  1025  00040E  5026               	movf	_i2c1_object+1,w,c
  1026  000410  1828               	xorwf	_i2c1_object+3,w,c
  1027  000412  A4D8               	btfss	status,2,c
  1028  000414  D008               	goto	l232
  1029                           
  1030                           ;i2c1.c: 670: {
  1031                           ;i2c1.c: 672: i2c1_object.trStatus.s.full = 1;
  1032  000416  8029               	bsf	_i2c1_object+4,0,c
  1033                           
  1034                           ;i2c1.c: 673: }
  1035                           ;i2c1.c: 675: }
  1036  000418  D006               	goto	l232
  1037  00041A                     l229:
  1038                           
  1039                           ;i2c1.c: 676: else
  1040                           ;i2c1.c: 677: {
  1041                           ;i2c1.c: 678: *pflag = I2C1_MESSAGE_FAIL;
  1042  00041A  C01A  FFD9         	movff	I2C1_MasterTRBInsert@pflag,fsr2l
  1043  00041E  C01B  FFDA         	movff	I2C1_MasterTRBInsert@pflag+1,fsr2h
  1044  000422  0E01               	movlw	1
  1045  000424  6EDF               	movwf	indf2,c
  1046  000426                     l232:
  1047  000426                     l1366:
  1048                           
  1049                           ;i2c1.c: 679: }
  1050                           ;i2c1.c: 682: if (*pflag == I2C1_MESSAGE_PENDING)
  1051  000426  C01A  FFD9         	movff	I2C1_MasterTRBInsert@pflag,fsr2l
  1052  00042A  C01B  FFDA         	movff	I2C1_MasterTRBInsert@pflag+1,fsr2h
  1053  00042E  0E02               	movlw	2
  1054  000430  18DE               	xorwf	postinc2,w,c
  1055  000432  A4D8               	btfss	status,2,c
  1056  000434  0012               	return	
  1057  000436  D002               	goto	l234
  1058  000438                     l235:
  1059                           
  1060                           ;i2c1.c: 685: {
  1061                           ;i2c1.c: 688: PIR3bits.SSP1IF = 1;
  1062  000438  010E               	movlb	14	; () banked
  1063  00043A  81CD               	bsf	205,0,b	;volatile
  1064  00043C                     l234:
  1065                           
  1066                           ; BSR set to: 14
  1067  00043C  5035               	movf	_i2c1_state,w,c
  1068  00043E  B4D8               	btfsc	status,2,c
  1069  000440  0012               	return	
  1070  000442  D7FA               	goto	l235
  1071  000444                     __end_of_I2C1_MasterTRBInsert:
  1072                           	opt stack 0
  1073                           postinc0	equ	0xFEE
  1074                           wreg	equ	0xFE8
  1075                           indf2	equ	0xFDF
  1076                           postinc2	equ	0xFDE
  1077                           postdec2	equ	0xFDD
  1078                           fsr2h	equ	0xFDA
  1079                           fsr2l	equ	0xFD9
  1080                           status	equ	0xFD8
  1081                           
  1082 ;; *************** function _I2C1_MasterReadTRBBuild *****************
  1083 ;; Defined at:
  1084 ;;		line 694 in file "mcc_generated_files/i2c1.c"
  1085 ;; Parameters:    Size  Location     Type
  1086 ;;  ptrb            2   23[COMRAM] PTR struct .
  1087 ;;		 -> I2C1_MasterRead@trBlock(5), 
  1088 ;;  pdata           2   25[COMRAM] PTR unsigned char 
  1089 ;;		 -> digitalRead@result(1), 
  1090 ;;  length          1   27[COMRAM] unsigned char 
  1091 ;;  address         2   28[COMRAM] unsigned int 
  1092 ;; Auto vars:     Size  Location     Type
  1093 ;;		None
  1094 ;; Return value:  Size  Location     Type
  1095 ;;                  1    wreg      void 
  1096 ;; Registers used:
  1097 ;;		wreg, fsr2l, fsr2h, status,2, status,0
  1098 ;; Tracked objects:
  1099 ;;		On entry : 0/0
  1100 ;;		On exit  : 0/0
  1101 ;;		Unchanged: 0/0
  1102 ;; Data sizes:     COMRAM   BANK0   BANK1   BANK2   BANK3   BANK4   BANK5   BANK6   BANK7   BANK8   BANK9  BANK10  BANK1
      +1  BANK12  BANK13  BANK14
  1103 ;;      Params:         7       0       0       0       0       0       0       0       0       0       0       0       
      +0       0       0       0
  1104 ;;      Locals:         0       0       0       0       0       0       0       0       0       0       0       0       
      +0       0       0       0
  1105 ;;      Temps:          2       0       0       0       0       0       0       0       0       0       0       0       
      +0       0       0       0
  1106 ;;      Totals:         9       0       0       0       0       0       0       0       0       0       0       0       
      +0       0       0       0
  1107 ;;Total ram usage:        9 bytes
  1108 ;; Hardware stack levels used:    1
  1109 ;; Hardware stack levels required when called:    3
  1110 ;; This function calls:
  1111 ;;		Nothing
  1112 ;; This function is called by:
  1113 ;;		_I2C1_MasterRead
  1114 ;; This function uses a non-reentrant model
  1115 ;;
  1116                           
  1117                           	psect	text6
  1118  00054C                     __ptext6:
  1119                           	opt stack 0
  1120  00054C                     _I2C1_MasterReadTRBBuild:
  1121                           	opt stack 25
  1122                           
  1123                           ;i2c1.c: 700: ptrb->address = address << 1;
  1124                           
  1125                           ;incstack = 0
  1126  00054C  C01D  F01F         	movff	I2C1_MasterReadTRBBuild@address,??_I2C1_MasterReadTRBBuild
  1127  000550  C01E  F020         	movff	I2C1_MasterReadTRBBuild@address+1,??_I2C1_MasterReadTRBBuild+1
  1128  000554  90D8               	bcf	status,0,c
  1129  000556  361F               	rlcf	??_I2C1_MasterReadTRBBuild,f,c
  1130  000558  3620               	rlcf	??_I2C1_MasterReadTRBBuild+1,f,c
  1131  00055A  C018  FFD9         	movff	I2C1_MasterReadTRBBuild@ptrb,fsr2l
  1132  00055E  C019  FFDA         	movff	I2C1_MasterReadTRBBuild@ptrb+1,fsr2h
  1133  000562  C01F  FFDE         	movff	??_I2C1_MasterReadTRBBuild,postinc2
  1134  000566  C020  FFDD         	movff	??_I2C1_MasterReadTRBBuild+1,postdec2
  1135                           
  1136                           ;i2c1.c: 702: ptrb->address |= 0x01;
  1137  00056A  C018  FFD9         	movff	I2C1_MasterReadTRBBuild@ptrb,fsr2l
  1138  00056E  C019  FFDA         	movff	I2C1_MasterReadTRBBuild@ptrb+1,fsr2h
  1139  000572  0E00               	movlw	0
  1140  000574  80DB               	bsf	plusw2,0,c
  1141                           
  1142                           ;i2c1.c: 703: ptrb->length = length;
  1143  000576  EE20 F002          	lfsr	2,2
  1144  00057A  5018               	movf	I2C1_MasterReadTRBBuild@ptrb,w,c
  1145  00057C  26D9               	addwf	fsr2l,f,c
  1146  00057E  5019               	movf	I2C1_MasterReadTRBBuild@ptrb+1,w,c
  1147  000580  22DA               	addwfc	fsr2h,f,c
  1148  000582  C01C  FFDF         	movff	I2C1_MasterReadTRBBuild@length,indf2
  1149                           
  1150                           ;i2c1.c: 704: ptrb->pbuffer = pdata;
  1151  000586  EE20 F003          	lfsr	2,3
  1152  00058A  5018               	movf	I2C1_MasterReadTRBBuild@ptrb,w,c
  1153  00058C  26D9               	addwf	fsr2l,f,c
  1154  00058E  5019               	movf	I2C1_MasterReadTRBBuild@ptrb+1,w,c
  1155  000590  22DA               	addwfc	fsr2h,f,c
  1156  000592  C01A  FFDE         	movff	I2C1_MasterReadTRBBuild@pdata,postinc2
  1157  000596  C01B  FFDD         	movff	I2C1_MasterReadTRBBuild@pdata+1,postdec2
  1158  00059A  0012               	return		;funcret
  1159  00059C                     __end_of_I2C1_MasterReadTRBBuild:
  1160                           	opt stack 0
  1161                           postinc0	equ	0xFEE
  1162                           wreg	equ	0xFE8
  1163                           indf2	equ	0xFDF
  1164                           postinc2	equ	0xFDE
  1165                           postdec2	equ	0xFDD
  1166                           plusw2	equ	0xFDB
  1167                           fsr2h	equ	0xFDA
  1168                           fsr2l	equ	0xFD9
  1169                           status	equ	0xFD8
  1170                           
  1171 ;; *************** function _SYSTEM_Initialize *****************
  1172 ;; Defined at:
  1173 ;;		line 116 in file "mcc_generated_files/mcc.c"
  1174 ;; Parameters:    Size  Location     Type
  1175 ;;		None
  1176 ;; Auto vars:     Size  Location     Type
  1177 ;;		None
  1178 ;; Return value:  Size  Location     Type
  1179 ;;                  1    wreg      void 
  1180 ;; Registers used:
  1181 ;;		wreg, status,2, status,0, cstack
  1182 ;; Tracked objects:
  1183 ;;		On entry : 0/0
  1184 ;;		On exit  : 0/0
  1185 ;;		Unchanged: 0/0
  1186 ;; Data sizes:     COMRAM   BANK0   BANK1   BANK2   BANK3   BANK4   BANK5   BANK6   BANK7   BANK8   BANK9  BANK10  BANK1
      +1  BANK12  BANK13  BANK14
  1187 ;;      Params:         0       0       0       0       0       0       0       0       0       0       0       0       
      +0       0       0       0
  1188 ;;      Locals:         0       0       0       0       0       0       0       0       0       0       0       0       
      +0       0       0       0
  1189 ;;      Temps:          0       0       0       0       0       0       0       0       0       0       0       0       
      +0       0       0       0
  1190 ;;      Totals:         0       0       0       0       0       0       0       0       0       0       0       0       
      +0       0       0       0
  1191 ;;Total ram usage:        0 bytes
  1192 ;; Hardware stack levels used:    1
  1193 ;; Hardware stack levels required when called:    4
  1194 ;; This function calls:
  1195 ;;		_I2C1_Initialize
  1196 ;;		_INTERRUPT_Initialize
  1197 ;;		_OSCILLATOR_Initialize
  1198 ;;		_PIN_MANAGER_Initialize
  1199 ;;		_PMD_Initialize
  1200 ;; This function is called by:
  1201 ;;		_main
  1202 ;; This function uses a non-reentrant model
  1203 ;;
  1204                           
  1205                           	psect	text7
  1206  000748                     __ptext7:
  1207                           	opt stack 0
  1208  000748                     _SYSTEM_Initialize:
  1209                           	opt stack 26
  1210                           
  1211                           ;mcc.c: 118: INTERRUPT_Initialize();
  1212                           
  1213                           ;incstack = 0
  1214  000748  ECB2  F003         	call	_INTERRUPT_Initialize	;wreg free
  1215                           
  1216                           ;mcc.c: 119: PMD_Initialize();
  1217  00074C  EC73  F003         	call	_PMD_Initialize	;wreg free
  1218                           
  1219                           ;mcc.c: 120: PIN_MANAGER_Initialize();
  1220  000750  EC69  F002         	call	_PIN_MANAGER_Initialize	;wreg free
  1221                           
  1222                           ;mcc.c: 121: OSCILLATOR_Initialize();
  1223  000754  EC81  F003         	call	_OSCILLATOR_Initialize	;wreg free
  1224                           
  1225                           ;mcc.c: 122: I2C1_Initialize();
  1226  000758  EC59  F003         	call	_I2C1_Initialize	;wreg free
  1227  00075C  0012               	return		;funcret
  1228  00075E                     __end_of_SYSTEM_Initialize:
  1229                           	opt stack 0
  1230                           postinc0	equ	0xFEE
  1231                           wreg	equ	0xFE8
  1232                           indf2	equ	0xFDF
  1233                           postinc2	equ	0xFDE
  1234                           postdec2	equ	0xFDD
  1235                           plusw2	equ	0xFDB
  1236                           fsr2h	equ	0xFDA
  1237                           fsr2l	equ	0xFD9
  1238                           status	equ	0xFD8
  1239                           
  1240 ;; *************** function _PMD_Initialize *****************
  1241 ;; Defined at:
  1242 ;;		line 139 in file "mcc_generated_files/mcc.c"
  1243 ;; Parameters:    Size  Location     Type
  1244 ;;		None
  1245 ;; Auto vars:     Size  Location     Type
  1246 ;;		None
  1247 ;; Return value:  Size  Location     Type
  1248 ;;                  1    wreg      void 
  1249 ;; Registers used:
  1250 ;;		wreg, status,2
  1251 ;; Tracked objects:
  1252 ;;		On entry : 0/0
  1253 ;;		On exit  : 0/0
  1254 ;;		Unchanged: 0/0
  1255 ;; Data sizes:     COMRAM   BANK0   BANK1   BANK2   BANK3   BANK4   BANK5   BANK6   BANK7   BANK8   BANK9  BANK10  BANK1
      +1  BANK12  BANK13  BANK14
  1256 ;;      Params:         0       0       0       0       0       0       0       0       0       0       0       0       
      +0       0       0       0
  1257 ;;      Locals:         0       0       0       0       0       0       0       0       0       0       0       0       
      +0       0       0       0
  1258 ;;      Temps:          0       0       0       0       0       0       0       0       0       0       0       0       
      +0       0       0       0
  1259 ;;      Totals:         0       0       0       0       0       0       0       0       0       0       0       0       
      +0       0       0       0
  1260 ;;Total ram usage:        0 bytes
  1261 ;; Hardware stack levels used:    1
  1262 ;; Hardware stack levels required when called:    3
  1263 ;; This function calls:
  1264 ;;		Nothing
  1265 ;; This function is called by:
  1266 ;;		_SYSTEM_Initialize
  1267 ;; This function uses a non-reentrant model
  1268 ;;
  1269                           
  1270                           	psect	text8
  1271  0006E6                     __ptext8:
  1272                           	opt stack 0
  1273  0006E6                     _PMD_Initialize:
  1274                           	opt stack 26
  1275                           
  1276                           ;mcc.c: 142: PMD0 = 0x00;
  1277                           
  1278                           ;incstack = 0
  1279  0006E6  0E00               	movlw	0
  1280  0006E8  010E               	movlb	14	; () banked
  1281  0006EA  6FE1               	movwf	225,b	;volatile
  1282                           
  1283                           ;mcc.c: 144: PMD1 = 0x00;
  1284  0006EC  0E00               	movlw	0
  1285  0006EE  6FE2               	movwf	226,b	;volatile
  1286                           
  1287                           ;mcc.c: 146: PMD2 = 0x00;
  1288  0006F0  0E00               	movlw	0
  1289  0006F2  6FE3               	movwf	227,b	;volatile
  1290                           
  1291                           ;mcc.c: 148: PMD3 = 0x00;
  1292  0006F4  0E00               	movlw	0
  1293  0006F6  6FE4               	movwf	228,b	;volatile
  1294                           
  1295                           ;mcc.c: 150: PMD4 = 0x00;
  1296  0006F8  0E00               	movlw	0
  1297  0006FA  6FE5               	movwf	229,b	;volatile
  1298                           
  1299                           ;mcc.c: 152: PMD5 = 0x00;
  1300  0006FC  0E00               	movlw	0
  1301  0006FE  6FE6               	movwf	230,b	;volatile
  1302                           
  1303                           ; BSR set to: 14
  1304  000700  0012               	return		;funcret
  1305  000702                     __end_of_PMD_Initialize:
  1306                           	opt stack 0
  1307                           postinc0	equ	0xFEE
  1308                           wreg	equ	0xFE8
  1309                           indf2	equ	0xFDF
  1310                           postinc2	equ	0xFDE
  1311                           postdec2	equ	0xFDD
  1312                           plusw2	equ	0xFDB
  1313                           fsr2h	equ	0xFDA
  1314                           fsr2l	equ	0xFD9
  1315                           status	equ	0xFD8
  1316                           
  1317 ;; *************** function _PIN_MANAGER_Initialize *****************
  1318 ;; Defined at:
  1319 ;;		line 52 in file "mcc_generated_files/pin_manager.c"
  1320 ;; Parameters:    Size  Location     Type
  1321 ;;		None
  1322 ;; Auto vars:     Size  Location     Type
  1323 ;;		None
  1324 ;; Return value:  Size  Location     Type
  1325 ;;                  1    wreg      void 
  1326 ;; Registers used:
  1327 ;;		wreg, status,2
  1328 ;; Tracked objects:
  1329 ;;		On entry : 0/0
  1330 ;;		On exit  : 0/0
  1331 ;;		Unchanged: 0/0
  1332 ;; Data sizes:     COMRAM   BANK0   BANK1   BANK2   BANK3   BANK4   BANK5   BANK6   BANK7   BANK8   BANK9  BANK10  BANK1
      +1  BANK12  BANK13  BANK14
  1333 ;;      Params:         0       0       0       0       0       0       0       0       0       0       0       0       
      +0       0       0       0
  1334 ;;      Locals:         0       0       0       0       0       0       0       0       0       0       0       0       
      +0       0       0       0
  1335 ;;      Temps:          0       0       0       0       0       0       0       0       0       0       0       0       
      +0       0       0       0
  1336 ;;      Totals:         0       0       0       0       0       0       0       0       0       0       0       0       
      +0       0       0       0
  1337 ;;Total ram usage:        0 bytes
  1338 ;; Hardware stack levels used:    1
  1339 ;; Hardware stack levels required when called:    3
  1340 ;; This function calls:
  1341 ;;		Nothing
  1342 ;; This function is called by:
  1343 ;;		_SYSTEM_Initialize
  1344 ;; This function uses a non-reentrant model
  1345 ;;
  1346                           
  1347                           	psect	text9
  1348  0004D2                     __ptext9:
  1349                           	opt stack 0
  1350  0004D2                     _PIN_MANAGER_Initialize:
  1351                           	opt stack 26
  1352                           
  1353                           ;pin_manager.c: 57: LATE = 0x00;
  1354                           
  1355                           ; BSR set to: 14
  1356                           ;incstack = 0
  1357  0004D2  0E00               	movlw	0
  1358  0004D4  6E87               	movwf	3975,c	;volatile
  1359                           
  1360                           ;pin_manager.c: 58: LATD = 0x00;
  1361  0004D6  0E00               	movlw	0
  1362  0004D8  6E86               	movwf	3974,c	;volatile
  1363                           
  1364                           ;pin_manager.c: 59: LATA = 0x00;
  1365  0004DA  0E00               	movlw	0
  1366  0004DC  6E83               	movwf	3971,c	;volatile
  1367                           
  1368                           ;pin_manager.c: 60: LATB = 0x00;
  1369  0004DE  0E00               	movlw	0
  1370  0004E0  6E84               	movwf	3972,c	;volatile
  1371                           
  1372                           ;pin_manager.c: 61: LATC = 0x40;
  1373  0004E2  0E40               	movlw	64
  1374  0004E4  6E85               	movwf	3973,c	;volatile
  1375                           
  1376                           ;pin_manager.c: 66: TRISE = 0x07;
  1377  0004E6  0E07               	movlw	7
  1378  0004E8  6E8C               	movwf	3980,c	;volatile
  1379                           
  1380                           ;pin_manager.c: 67: TRISA = 0xFF;
  1381  0004EA  6888               	setf	3976,c	;volatile
  1382                           
  1383                           ;pin_manager.c: 68: TRISB = 0xFF;
  1384  0004EC  6889               	setf	3977,c	;volatile
  1385                           
  1386                           ;pin_manager.c: 69: TRISC = 0xBF;
  1387  0004EE  0EBF               	movlw	191
  1388  0004F0  6E8A               	movwf	3978,c	;volatile
  1389                           
  1390                           ;pin_manager.c: 70: TRISD = 0xFF;
  1391  0004F2  688B               	setf	3979,c	;volatile
  1392                           
  1393                           ;pin_manager.c: 75: ANSELC = 0x87;
  1394  0004F4  0E87               	movlw	135
  1395  0004F6  010F               	movlb	15	; () banked
  1396  0004F8  6F21               	movwf	33,b	;volatile
  1397                           
  1398                           ; BSR set to: 15
  1399                           ;pin_manager.c: 76: ANSELB = 0xFF;
  1400  0004FA  6919               	setf	25,b	;volatile
  1401                           
  1402                           ; BSR set to: 15
  1403                           ;pin_manager.c: 77: ANSELD = 0xFF;
  1404  0004FC  6926               	setf	38,b	;volatile
  1405                           
  1406                           ;pin_manager.c: 78: ANSELE = 0x07;
  1407  0004FE  0E07               	movlw	7
  1408  000500  6F2E               	movwf	46,b	;volatile
  1409                           
  1410                           ; BSR set to: 15
  1411                           ;pin_manager.c: 79: ANSELA = 0xFF;
  1412  000502  6911               	setf	17,b	;volatile
  1413                           
  1414                           ;pin_manager.c: 84: WPUD = 0x00;
  1415  000504  0E00               	movlw	0
  1416  000506  6F25               	movwf	37,b	;volatile
  1417                           
  1418                           ;pin_manager.c: 85: WPUE = 0x00;
  1419  000508  0E00               	movlw	0
  1420  00050A  6F2D               	movwf	45,b	;volatile
  1421                           
  1422                           ;pin_manager.c: 86: WPUB = 0x00;
  1423  00050C  0E00               	movlw	0
  1424  00050E  6F18               	movwf	24,b	;volatile
  1425                           
  1426                           ;pin_manager.c: 87: WPUA = 0x00;
  1427  000510  0E00               	movlw	0
  1428  000512  6F10               	movwf	16,b	;volatile
  1429                           
  1430                           ;pin_manager.c: 88: WPUC = 0x00;
  1431  000514  0E00               	movlw	0
  1432  000516  6F20               	movwf	32,b	;volatile
  1433                           
  1434                           ;pin_manager.c: 93: ODCONE = 0x00;
  1435  000518  0E00               	movlw	0
  1436  00051A  6F2C               	movwf	44,b	;volatile
  1437                           
  1438                           ;pin_manager.c: 94: ODCONA = 0x00;
  1439  00051C  0E00               	movlw	0
  1440  00051E  6F0F               	movwf	15,b	;volatile
  1441                           
  1442                           ;pin_manager.c: 95: ODCONB = 0x00;
  1443  000520  0E00               	movlw	0
  1444  000522  6F17               	movwf	23,b	;volatile
  1445                           
  1446                           ;pin_manager.c: 96: ODCONC = 0x00;
  1447  000524  0E00               	movlw	0
  1448  000526  6F1F               	movwf	31,b	;volatile
  1449                           
  1450                           ;pin_manager.c: 97: ODCOND = 0x00;
  1451  000528  0E00               	movlw	0
  1452  00052A  6F24               	movwf	36,b	;volatile
  1453                           
  1454                           ; BSR set to: 15
  1455                           ;pin_manager.c: 104: SSP1CLKPPSbits.SSPCLKPPS = 0x13;
  1456  00052C  010E               	movlb	14	; () banked
  1457  00052E  81B7               	bsf	183,0,b	;volatile
  1458  000530  83B7               	bsf	183,1,b	;volatile
  1459  000532  95B7               	bcf	183,2,b	;volatile
  1460  000534  97B7               	bcf	183,3,b	;volatile
  1461  000536  89B7               	bsf	183,4,b	;volatile
  1462                           
  1463                           ;pin_manager.c: 105: RC3PPS = 0x0F;
  1464  000538  0E0F               	movlw	15
  1465  00053A  6FFA               	movwf	250,b	;volatile
  1466                           
  1467                           ;pin_manager.c: 106: RC4PPS = 0x10;
  1468  00053C  0E10               	movlw	16
  1469  00053E  6FFB               	movwf	251,b	;volatile
  1470                           
  1471                           ; BSR set to: 14
  1472                           ;pin_manager.c: 107: SSP1DATPPSbits.SSPDATPPS = 0x14;
  1473  000540  91B8               	bcf	184,0,b	;volatile
  1474  000542  93B8               	bcf	184,1,b	;volatile
  1475  000544  85B8               	bsf	184,2,b	;volatile
  1476  000546  97B8               	bcf	184,3,b	;volatile
  1477  000548  89B8               	bsf	184,4,b	;volatile
  1478                           
  1479                           ; BSR set to: 14
  1480  00054A  0012               	return		;funcret
  1481  00054C                     __end_of_PIN_MANAGER_Initialize:
  1482                           	opt stack 0
  1483                           postinc0	equ	0xFEE
  1484                           wreg	equ	0xFE8
  1485                           indf2	equ	0xFDF
  1486                           postinc2	equ	0xFDE
  1487                           postdec2	equ	0xFDD
  1488                           plusw2	equ	0xFDB
  1489                           fsr2h	equ	0xFDA
  1490                           fsr2l	equ	0xFD9
  1491                           status	equ	0xFD8
  1492                           
  1493 ;; *************** function _OSCILLATOR_Initialize *****************
  1494 ;; Defined at:
  1495 ;;		line 125 in file "mcc_generated_files/mcc.c"
  1496 ;; Parameters:    Size  Location     Type
  1497 ;;		None
  1498 ;; Auto vars:     Size  Location     Type
  1499 ;;		None
  1500 ;; Return value:  Size  Location     Type
  1501 ;;                  1    wreg      void 
  1502 ;; Registers used:
  1503 ;;		wreg, status,2
  1504 ;; Tracked objects:
  1505 ;;		On entry : 0/0
  1506 ;;		On exit  : 0/0
  1507 ;;		Unchanged: 0/0
  1508 ;; Data sizes:     COMRAM   BANK0   BANK1   BANK2   BANK3   BANK4   BANK5   BANK6   BANK7   BANK8   BANK9  BANK10  BANK1
      +1  BANK12  BANK13  BANK14
  1509 ;;      Params:         0       0       0       0       0       0       0       0       0       0       0       0       
      +0       0       0       0
  1510 ;;      Locals:         0       0       0       0       0       0       0       0       0       0       0       0       
      +0       0       0       0
  1511 ;;      Temps:          0       0       0       0       0       0       0       0       0       0       0       0       
      +0       0       0       0
  1512 ;;      Totals:         0       0       0       0       0       0       0       0       0       0       0       0       
      +0       0       0       0
  1513 ;;Total ram usage:        0 bytes
  1514 ;; Hardware stack levels used:    1
  1515 ;; Hardware stack levels required when called:    3
  1516 ;; This function calls:
  1517 ;;		Nothing
  1518 ;; This function is called by:
  1519 ;;		_SYSTEM_Initialize
  1520 ;; This function uses a non-reentrant model
  1521 ;;
  1522                           
  1523                           	psect	text10
  1524  000702                     __ptext10:
  1525                           	opt stack 0
  1526  000702                     _OSCILLATOR_Initialize:
  1527                           	opt stack 26
  1528                           
  1529                           ;mcc.c: 128: OSCCON1 = 0x62;
  1530                           
  1531                           ; BSR set to: 14
  1532                           ;incstack = 0
  1533  000702  0E62               	movlw	98
  1534  000704  010E               	movlb	14	; () banked
  1535  000706  6FD8               	movwf	216,b	;volatile
  1536                           
  1537                           ;mcc.c: 130: OSCCON3 = 0x00;
  1538  000708  0E00               	movlw	0
  1539  00070A  6FDA               	movwf	218,b	;volatile
  1540                           
  1541                           ;mcc.c: 132: OSCEN = 0x00;
  1542  00070C  0E00               	movlw	0
  1543  00070E  6FDC               	movwf	220,b	;volatile
  1544                           
  1545                           ;mcc.c: 134: OSCFRQ = 0x05;
  1546  000710  0E05               	movlw	5
  1547  000712  6FDE               	movwf	222,b	;volatile
  1548                           
  1549                           ;mcc.c: 136: OSCTUNE = 0x20;
  1550  000714  0E20               	movlw	32
  1551  000716  6FDD               	movwf	221,b	;volatile
  1552                           
  1553                           ; BSR set to: 14
  1554  000718  0012               	return		;funcret
  1555  00071A                     __end_of_OSCILLATOR_Initialize:
  1556                           	opt stack 0
  1557                           postinc0	equ	0xFEE
  1558                           wreg	equ	0xFE8
  1559                           indf2	equ	0xFDF
  1560                           postinc2	equ	0xFDE
  1561                           postdec2	equ	0xFDD
  1562                           plusw2	equ	0xFDB
  1563                           fsr2h	equ	0xFDA
  1564                           fsr2l	equ	0xFD9
  1565                           status	equ	0xFD8
  1566                           
  1567 ;; *************** function _INTERRUPT_Initialize *****************
  1568 ;; Defined at:
  1569 ;;		line 51 in file "mcc_generated_files/interrupt_manager.c"
  1570 ;; Parameters:    Size  Location     Type
  1571 ;;		None
  1572 ;; Auto vars:     Size  Location     Type
  1573 ;;		None
  1574 ;; Return value:  Size  Location     Type
  1575 ;;                  1    wreg      void 
  1576 ;; Registers used:
  1577 ;;		None
  1578 ;; Tracked objects:
  1579 ;;		On entry : 0/0
  1580 ;;		On exit  : 0/0
  1581 ;;		Unchanged: 0/0
  1582 ;; Data sizes:     COMRAM   BANK0   BANK1   BANK2   BANK3   BANK4   BANK5   BANK6   BANK7   BANK8   BANK9  BANK10  BANK1
      +1  BANK12  BANK13  BANK14
  1583 ;;      Params:         0       0       0       0       0       0       0       0       0       0       0       0       
      +0       0       0       0
  1584 ;;      Locals:         0       0       0       0       0       0       0       0       0       0       0       0       
      +0       0       0       0
  1585 ;;      Temps:          0       0       0       0       0       0       0       0       0       0       0       0       
      +0       0       0       0
  1586 ;;      Totals:         0       0       0       0       0       0       0       0       0       0       0       0       
      +0       0       0       0
  1587 ;;Total ram usage:        0 bytes
  1588 ;; Hardware stack levels used:    1
  1589 ;; Hardware stack levels required when called:    3
  1590 ;; This function calls:
  1591 ;;		Nothing
  1592 ;; This function is called by:
  1593 ;;		_SYSTEM_Initialize
  1594 ;; This function uses a non-reentrant model
  1595 ;;
  1596                           
  1597                           	psect	text11
  1598  000764                     __ptext11:
  1599                           	opt stack 0
  1600  000764                     _INTERRUPT_Initialize:
  1601                           	opt stack 26
  1602                           
  1603                           ;interrupt_manager.c: 54: INTCONbits.IPEN = 0;
  1604                           
  1605                           ; BSR set to: 14
  1606                           ;incstack = 0
  1607  000764  9AF2               	bcf	intcon,5,c	;volatile
  1608  000766  0012               	return		;funcret
  1609  000768                     __end_of_INTERRUPT_Initialize:
  1610                           	opt stack 0
  1611                           intcon	equ	0xFF2
  1612                           postinc0	equ	0xFEE
  1613                           wreg	equ	0xFE8
  1614                           indf2	equ	0xFDF
  1615                           postinc2	equ	0xFDE
  1616                           postdec2	equ	0xFDD
  1617                           plusw2	equ	0xFDB
  1618                           fsr2h	equ	0xFDA
  1619                           fsr2l	equ	0xFD9
  1620                           status	equ	0xFD8
  1621                           
  1622 ;; *************** function _I2C1_Initialize *****************
  1623 ;; Defined at:
  1624 ;;		line 196 in file "mcc_generated_files/i2c1.c"
  1625 ;; Parameters:    Size  Location     Type
  1626 ;;		None
  1627 ;; Auto vars:     Size  Location     Type
  1628 ;;		None
  1629 ;; Return value:  Size  Location     Type
  1630 ;;                  1    wreg      void 
  1631 ;; Registers used:
  1632 ;;		wreg, status,2, status,0
  1633 ;; Tracked objects:
  1634 ;;		On entry : 0/0
  1635 ;;		On exit  : 0/0
  1636 ;;		Unchanged: 0/0
  1637 ;; Data sizes:     COMRAM   BANK0   BANK1   BANK2   BANK3   BANK4   BANK5   BANK6   BANK7   BANK8   BANK9  BANK10  BANK1
      +1  BANK12  BANK13  BANK14
  1638 ;;      Params:         0       0       0       0       0       0       0       0       0       0       0       0       
      +0       0       0       0
  1639 ;;      Locals:         0       0       0       0       0       0       0       0       0       0       0       0       
      +0       0       0       0
  1640 ;;      Temps:          0       0       0       0       0       0       0       0       0       0       0       0       
      +0       0       0       0
  1641 ;;      Totals:         0       0       0       0       0       0       0       0       0       0       0       0       
      +0       0       0       0
  1642 ;;Total ram usage:        0 bytes
  1643 ;; Hardware stack levels used:    1
  1644 ;; Hardware stack levels required when called:    3
  1645 ;; This function calls:
  1646 ;;		Nothing
  1647 ;; This function is called by:
  1648 ;;		_SYSTEM_Initialize
  1649 ;;		_main
  1650 ;; This function uses a non-reentrant model
  1651 ;;
  1652                           
  1653                           	psect	text12
  1654  0006B2                     __ptext12:
  1655                           	opt stack 0
  1656  0006B2                     _I2C1_Initialize:
  1657                           	opt stack 26
  1658                           
  1659                           ;i2c1.c: 198: i2c1_object.pTrHead = i2c1_tr_queue;
  1660                           
  1661                           ;incstack = 0
  1662  0006B2  0E40               	movlw	low _i2c1_tr_queue
  1663  0006B4  6E27               	movwf	_i2c1_object+2,c
  1664  0006B6  0E00               	movlw	high _i2c1_tr_queue
  1665  0006B8  6E28               	movwf	_i2c1_object+3,c
  1666                           
  1667                           ;i2c1.c: 199: i2c1_object.pTrTail = i2c1_tr_queue;
  1668  0006BA  0E40               	movlw	low _i2c1_tr_queue
  1669  0006BC  6E25               	movwf	_i2c1_object,c
  1670  0006BE  0E00               	movlw	high _i2c1_tr_queue
  1671  0006C0  6E26               	movwf	_i2c1_object+1,c
  1672                           
  1673                           ;i2c1.c: 200: i2c1_object.trStatus.s.empty = 1;
  1674  0006C2  8229               	bsf	_i2c1_object+4,1,c
  1675                           
  1676                           ;i2c1.c: 201: i2c1_object.trStatus.s.full = 0;
  1677  0006C4  9029               	bcf	_i2c1_object+4,0,c
  1678                           
  1679                           ;i2c1.c: 203: i2c1_object.i2cErrors = 0;
  1680  0006C6  0E00               	movlw	0
  1681  0006C8  6E2B               	movwf	_i2c1_object+6,c
  1682                           
  1683                           ;i2c1.c: 206: SSP1STAT = 0x00;
  1684  0006CA  0E00               	movlw	0
  1685  0006CC  6E95               	movwf	3989,c	;volatile
  1686                           
  1687                           ;i2c1.c: 208: SSP1CON1 = 0x28;
  1688  0006CE  0E28               	movlw	40
  1689  0006D0  6E96               	movwf	3990,c	;volatile
  1690                           
  1691                           ;i2c1.c: 210: SSP1CON3 = 0x00;
  1692  0006D2  0E00               	movlw	0
  1693  0006D4  6E98               	movwf	3992,c	;volatile
  1694                           
  1695                           ;i2c1.c: 212: SSP1ADD = 0x03;
  1696  0006D6  0E03               	movlw	3
  1697  0006D8  6E93               	movwf	3987,c	;volatile
  1698                           
  1699                           ;i2c1.c: 215: PIR3bits.SSP1IF = 0;
  1700  0006DA  010E               	movlb	14	; () banked
  1701  0006DC  91CD               	bcf	205,0,b	;volatile
  1702                           
  1703                           ; BSR set to: 14
  1704                           ;i2c1.c: 216: PIR3bits.BCL1IF = 0;
  1705  0006DE  93CD               	bcf	205,1,b	;volatile
  1706                           
  1707                           ; BSR set to: 14
  1708                           ;i2c1.c: 219: PIE3bits.SSP1IE = 1;
  1709  0006E0  81C5               	bsf	197,0,b	;volatile
  1710                           
  1711                           ; BSR set to: 14
  1712                           ;i2c1.c: 220: PIE3bits.BCL1IE = 1;
  1713  0006E2  83C5               	bsf	197,1,b	;volatile
  1714                           
  1715                           ; BSR set to: 14
  1716  0006E4  0012               	return		;funcret
  1717  0006E6                     __end_of_I2C1_Initialize:
  1718                           	opt stack 0
  1719                           intcon	equ	0xFF2
  1720                           postinc0	equ	0xFEE
  1721                           wreg	equ	0xFE8
  1722                           indf2	equ	0xFDF
  1723                           postinc2	equ	0xFDE
  1724                           postdec2	equ	0xFDD
  1725                           plusw2	equ	0xFDB
  1726                           fsr2h	equ	0xFDA
  1727                           fsr2l	equ	0xFD9
  1728                           status	equ	0xFD8
  1729                           
  1730 ;; *************** function _INTERRUPT_InterruptManager *****************
  1731 ;; Defined at:
  1732 ;;		line 57 in file "mcc_generated_files/interrupt_manager.c"
  1733 ;; Parameters:    Size  Location     Type
  1734 ;;		None
  1735 ;; Auto vars:     Size  Location     Type
  1736 ;;		None
  1737 ;; Return value:  Size  Location     Type
  1738 ;;                  1    wreg      void 
  1739 ;; Registers used:
  1740 ;;		wreg, fsr2l, fsr2h, status,2, status,0, cstack
  1741 ;; Tracked objects:
  1742 ;;		On entry : 0/0
  1743 ;;		On exit  : 0/0
  1744 ;;		Unchanged: 0/0
  1745 ;; Data sizes:     COMRAM   BANK0   BANK1   BANK2   BANK3   BANK4   BANK5   BANK6   BANK7   BANK8   BANK9  BANK10  BANK1
      +1  BANK12  BANK13  BANK14
  1746 ;;      Params:         0       0       0       0       0       0       0       0       0       0       0       0       
      +0       0       0       0
  1747 ;;      Locals:         0       0       0       0       0       0       0       0       0       0       0       0       
      +0       0       0       0
  1748 ;;      Temps:         18       0       0       0       0       0       0       0       0       0       0       0       
      +0       0       0       0
  1749 ;;      Totals:        18       0       0       0       0       0       0       0       0       0       0       0       
      +0       0       0       0
  1750 ;;Total ram usage:       18 bytes
  1751 ;; Hardware stack levels used:    1
  1752 ;; Hardware stack levels required when called:    2
  1753 ;; This function calls:
  1754 ;;		_I2C1_BusCollisionISR
  1755 ;;		_I2C1_ISR
  1756 ;; This function is called by:
  1757 ;;		Interrupt level 2
  1758 ;; This function uses a non-reentrant model
  1759 ;;
  1760                           
  1761                           	psect	intcode
  1762  000008                     __pintcode:
  1763                           	opt stack 0
  1764  000008                     _INTERRUPT_InterruptManager:
  1765                           	opt stack 25
  1766                           
  1767                           ; BSR set to: 14
  1768                           ;incstack = 0
  1769  000008  8247               	bsf	btemp,1,c	;set compiler interrupt flag (level 2)
  1770  00000A  CFFA F006          	movff	pclath,??_INTERRUPT_InterruptManager
  1771  00000E  CFFB F007          	movff	pclatu,??_INTERRUPT_InterruptManager+1
  1772  000012  CFE9 F008          	movff	fsr0l,??_INTERRUPT_InterruptManager+2
  1773  000016  CFEA F009          	movff	fsr0h,??_INTERRUPT_InterruptManager+3
  1774  00001A  CFE1 F00A          	movff	fsr1l,??_INTERRUPT_InterruptManager+4
  1775  00001E  CFE2 F00B          	movff	fsr1h,??_INTERRUPT_InterruptManager+5
  1776  000022  CFD9 F00C          	movff	fsr2l,??_INTERRUPT_InterruptManager+6
  1777  000026  CFDA F00D          	movff	fsr2h,??_INTERRUPT_InterruptManager+7
  1778  00002A  CFF3 F00E          	movff	prodl,??_INTERRUPT_InterruptManager+8
  1779  00002E  CFF4 F00F          	movff	prodh,??_INTERRUPT_InterruptManager+9
  1780  000032  CFF6 F010          	movff	tblptrl,??_INTERRUPT_InterruptManager+10
  1781  000036  CFF7 F011          	movff	tblptrh,??_INTERRUPT_InterruptManager+11
  1782  00003A  CFF8 F012          	movff	tblptru,??_INTERRUPT_InterruptManager+12
  1783  00003E  CFF5 F013          	movff	tablat,??_INTERRUPT_InterruptManager+13
  1784  000042  C047  F014         	movff	btemp,??_INTERRUPT_InterruptManager+14
  1785  000046  C048  F015         	movff	btemp+1,??_INTERRUPT_InterruptManager+15
  1786  00004A  C049  F016         	movff	btemp+2,??_INTERRUPT_InterruptManager+16
  1787  00004E  C04A  F017         	movff	btemp+3,??_INTERRUPT_InterruptManager+17
  1788                           
  1789                           ;interrupt_manager.c: 60: if(INTCONbits.PEIE == 1)
  1790  000052  ACF2               	btfss	intcon,6,c	;volatile
  1791  000054  D00C               	goto	i2l273
  1792                           
  1793                           ;interrupt_manager.c: 61: {
  1794                           ;interrupt_manager.c: 62: if(PIE3bits.BCL1IE == 1 && PIR3bits.BCL1IF == 1)
  1795  000056  010E               	movlb	14	; () banked
  1796  000058  B3C5               	btfsc	197,1,b	;volatile
  1797                           
  1798                           ; BSR set to: 14
  1799  00005A  A3CD               	btfss	205,1,b	;volatile
  1800  00005C  D003               	goto	i2l271
  1801                           
  1802                           ; BSR set to: 14
  1803                           ;interrupt_manager.c: 63: {
  1804                           ;interrupt_manager.c: 64: I2C1_BusCollisionISR();
  1805  00005E  ECAF  F003         	call	_I2C1_BusCollisionISR	;wreg free
  1806                           
  1807                           ;interrupt_manager.c: 65: }
  1808  000062  D005               	goto	i2l273
  1809  000064                     i2l271:
  1810                           
  1811                           ; BSR set to: 14
  1812                           ;interrupt_manager.c: 66: else if(PIE3bits.SSP1IE == 1 && PIR3bits.SSP1IF == 1)
  1813  000064  B1C5               	btfsc	197,0,b	;volatile
  1814                           
  1815                           ; BSR set to: 14
  1816  000066  A1CD               	btfss	205,0,b	;volatile
  1817  000068  D002               	goto	i2l273
  1818                           
  1819                           ; BSR set to: 14
  1820                           ;interrupt_manager.c: 67: {
  1821                           ;interrupt_manager.c: 68: I2C1_ISR();
  1822  00006A  EC5F  F000         	call	_I2C1_ISR	;wreg free
  1823  00006E                     i2l273:
  1824                           
  1825                           ;interrupt_manager.c: 75: else
  1826                           ;interrupt_manager.c: 76: {
  1827                           
  1828                           ;interrupt_manager.c: 73: }
  1829                           ;interrupt_manager.c: 74: }
  1830                           
  1831                           ;interrupt_manager.c: 70: else
  1832                           ;interrupt_manager.c: 71: {
  1833  00006E  C017  F04A         	movff	??_INTERRUPT_InterruptManager+17,btemp+3
  1834  000072  C016  F049         	movff	??_INTERRUPT_InterruptManager+16,btemp+2
  1835  000076  C015  F048         	movff	??_INTERRUPT_InterruptManager+15,btemp+1
  1836  00007A  C014  F047         	movff	??_INTERRUPT_InterruptManager+14,btemp
  1837  00007E  C013  FFF5         	movff	??_INTERRUPT_InterruptManager+13,tablat
  1838  000082  C012  FFF8         	movff	??_INTERRUPT_InterruptManager+12,tblptru
  1839  000086  C011  FFF7         	movff	??_INTERRUPT_InterruptManager+11,tblptrh
  1840  00008A  C010  FFF6         	movff	??_INTERRUPT_InterruptManager+10,tblptrl
  1841  00008E  C00F  FFF4         	movff	??_INTERRUPT_InterruptManager+9,prodh
  1842  000092  C00E  FFF3         	movff	??_INTERRUPT_InterruptManager+8,prodl
  1843  000096  C00D  FFDA         	movff	??_INTERRUPT_InterruptManager+7,fsr2h
  1844  00009A  C00C  FFD9         	movff	??_INTERRUPT_InterruptManager+6,fsr2l
  1845  00009E  C00B  FFE2         	movff	??_INTERRUPT_InterruptManager+5,fsr1h
  1846  0000A2  C00A  FFE1         	movff	??_INTERRUPT_InterruptManager+4,fsr1l
  1847  0000A6  C009  FFEA         	movff	??_INTERRUPT_InterruptManager+3,fsr0h
  1848  0000AA  C008  FFE9         	movff	??_INTERRUPT_InterruptManager+2,fsr0l
  1849  0000AE  C007  FFFB         	movff	??_INTERRUPT_InterruptManager+1,pclatu
  1850  0000B2  C006  FFFA         	movff	??_INTERRUPT_InterruptManager,pclath
  1851  0000B6  9247               	bcf	btemp,1,c	;clear compiler interrupt flag (level 2)
  1852  0000B8  0011               	retfie		f
  1853  0000BA                     __end_of_INTERRUPT_InterruptManager:
  1854                           	opt stack 0
  1855                           pclatu	equ	0xFFB
  1856                           pclath	equ	0xFFA
  1857                           tblptru	equ	0xFF8
  1858                           tblptrh	equ	0xFF7
  1859                           tblptrl	equ	0xFF6
  1860                           tablat	equ	0xFF5
  1861                           prodh	equ	0xFF4
  1862                           prodl	equ	0xFF3
  1863                           intcon	equ	0xFF2
  1864                           postinc0	equ	0xFEE
  1865                           fsr0h	equ	0xFEA
  1866                           fsr0l	equ	0xFE9
  1867                           wreg	equ	0xFE8
  1868                           fsr1h	equ	0xFE2
  1869                           fsr1l	equ	0xFE1
  1870                           indf2	equ	0xFDF
  1871                           postinc2	equ	0xFDE
  1872                           postdec2	equ	0xFDD
  1873                           plusw2	equ	0xFDB
  1874                           fsr2h	equ	0xFDA
  1875                           fsr2l	equ	0xFD9
  1876                           status	equ	0xFD8
  1877                           
  1878 ;; *************** function _I2C1_ISR *****************
  1879 ;; Defined at:
  1880 ;;		line 233 in file "mcc_generated_files/i2c1.c"
  1881 ;; Parameters:    Size  Location     Type
  1882 ;;		None
  1883 ;; Auto vars:     Size  Location     Type
  1884 ;;		None
  1885 ;; Return value:  Size  Location     Type
  1886 ;;                  1    wreg      void 
  1887 ;; Registers used:
  1888 ;;		wreg, fsr2l, fsr2h, status,2, status,0, cstack
  1889 ;; Tracked objects:
  1890 ;;		On entry : 0/0
  1891 ;;		On exit  : 0/0
  1892 ;;		Unchanged: 0/0
  1893 ;; Data sizes:     COMRAM   BANK0   BANK1   BANK2   BANK3   BANK4   BANK5   BANK6   BANK7   BANK8   BANK9  BANK10  BANK1
      +1  BANK12  BANK13  BANK14
  1894 ;;      Params:         0       0       0       0       0       0       0       0       0       0       0       0       
      +0       0       0       0
  1895 ;;      Locals:         0       0       0       0       0       0       0       0       0       0       0       0       
      +0       0       0       0
  1896 ;;      Temps:          2       0       0       0       0       0       0       0       0       0       0       0       
      +0       0       0       0
  1897 ;;      Totals:         2       0       0       0       0       0       0       0       0       0       0       0       
      +0       0       0       0
  1898 ;;Total ram usage:        2 bytes
  1899 ;; Hardware stack levels used:    1
  1900 ;; Hardware stack levels required when called:    1
  1901 ;; This function calls:
  1902 ;;		_I2C1_FunctionComplete
  1903 ;;		_I2C1_Stop
  1904 ;; This function is called by:
  1905 ;;		_INTERRUPT_InterruptManager
  1906 ;; This function uses a non-reentrant model
  1907 ;;
  1908                           
  1909                           	psect	text14
  1910  0000BE                     __ptext14:
  1911                           	opt stack 0
  1912  0000BE                     _I2C1_ISR:
  1913                           	opt stack 25
  1914                           
  1915                           ;i2c1.c: 236: static uint8_t *pi2c_buf_ptr;
  1916                           ;i2c1.c: 237: static uint16_t i2c_address = 0;
  1917                           ;i2c1.c: 238: static uint8_t i2c_bytes_left = 0;
  1918                           ;i2c1.c: 239: static uint8_t i2c_10bit_address_restart = 0;
  1919                           ;i2c1.c: 241: PIR3bits.SSP1IF = 0;
  1920                           
  1921                           ;incstack = 0
  1922  0000BE  010E               	movlb	14	; () banked
  1923  0000C0  91CD               	bcf	205,0,b	;volatile
  1924                           
  1925                           ;i2c1.c: 245: if(SSP1CON1bits.WCOL)
  1926  0000C2  AE96               	btfss	3990,7,c	;volatile
  1927  0000C4  D0F9               	goto	i2l164
  1928                           
  1929                           ; BSR set to: 14
  1930                           ;i2c1.c: 246: {
  1931                           ;i2c1.c: 248: SSP1CON1bits.WCOL = 0;
  1932  0000C6  9E96               	bcf	3990,7,c	;volatile
  1933                           
  1934                           ; BSR set to: 14
  1935                           ;i2c1.c: 249: i2c1_state = S_MASTER_IDLE;
  1936  0000C8  0E00               	movlw	0
  1937  0000CA  6E35               	movwf	_i2c1_state,c
  1938                           
  1939                           ; BSR set to: 14
  1940                           ;i2c1.c: 250: *(p_i2c1_current->pTrFlag) = I2C1_MESSAGE_FAIL;
  1941  0000CC  EE20 F003          	lfsr	2,3
  1942  0000D0  502E               	movf	_p_i2c1_current,w,c
  1943  0000D2  26D9               	addwf	fsr2l,f,c
  1944  0000D4  502F               	movf	_p_i2c1_current+1,w,c
  1945  0000D6  22DA               	addwfc	fsr2h,f,c
  1946  0000D8  CFDE F004          	movff	postinc2,??_I2C1_ISR
  1947  0000DC  CFDD F005          	movff	postdec2,??_I2C1_ISR+1
  1948  0000E0  C004  FFD9         	movff	??_I2C1_ISR,fsr2l
  1949  0000E4  C005  FFDA         	movff	??_I2C1_ISR+1,fsr2h
  1950  0000E8  0E01               	movlw	1
  1951  0000EA  6EDF               	movwf	indf2,c
  1952                           
  1953                           ; BSR set to: 14
  1954                           ;i2c1.c: 253: p_i2c1_current = (0);
  1955  0000EC  0E00               	movlw	0
  1956  0000EE  6E2E               	movwf	_p_i2c1_current,c
  1957  0000F0  0E00               	movlw	0
  1958  0000F2  6E2F               	movwf	_p_i2c1_current+1,c
  1959                           
  1960                           ; BSR set to: 14
  1961                           ;i2c1.c: 255: return;
  1962  0000F4  0012               	return	
  1963  0000F6                     i2l165:
  1964                           
  1965                           ;i2c1.c: 263: if(i2c1_object.trStatus.s.empty != 1)
  1966  0000F6  B229               	btfsc	_i2c1_object+4,1,c
  1967  0000F8  0012               	return	
  1968                           
  1969                           ;i2c1.c: 264: {
  1970                           ;i2c1.c: 266: p_i2c1_current = i2c1_object.pTrHead;
  1971  0000FA  C027  F02E         	movff	_i2c1_object+2,_p_i2c1_current
  1972  0000FE  C028  F02F         	movff	_i2c1_object+3,_p_i2c1_current+1
  1973                           
  1974                           ;i2c1.c: 267: i2c1_trb_count = i2c1_object.pTrHead->count;
  1975  000102  C027  FFD9         	movff	_i2c1_object+2,fsr2l
  1976  000106  C028  FFDA         	movff	_i2c1_object+3,fsr2h
  1977  00010A  50DF               	movf	indf2,w,c
  1978  00010C  6E34               	movwf	_i2c1_trb_count,c
  1979                           
  1980                           ;i2c1.c: 268: p_i2c1_trb_current = i2c1_object.pTrHead->ptrb_list;
  1981  00010E  EE20 F001          	lfsr	2,1
  1982  000112  5027               	movf	_i2c1_object+2,w,c
  1983  000114  26D9               	addwf	fsr2l,f,c
  1984  000116  5028               	movf	_i2c1_object+3,w,c
  1985  000118  22DA               	addwfc	fsr2h,f,c
  1986  00011A  CFDE F030          	movff	postinc2,_p_i2c1_trb_current
  1987  00011E  CFDD F031          	movff	postdec2,_p_i2c1_trb_current+1
  1988                           
  1989                           ;i2c1.c: 270: i2c1_object.pTrHead++;
  1990  000122  0E05               	movlw	5
  1991  000124  2627               	addwf	_i2c1_object+2,f,c
  1992  000126  0E00               	movlw	0
  1993  000128  2228               	addwfc	_i2c1_object+3,f,c
  1994                           
  1995                           ;i2c1.c: 273: if(i2c1_object.pTrHead == (i2c1_tr_queue + 1))
  1996  00012A  0E45               	movlw	low (_i2c1_tr_queue+5)
  1997  00012C  1827               	xorwf	_i2c1_object+2,w,c
  1998  00012E  E108               	bnz	i2l1490
  1999  000130  0E00               	movlw	high (_i2c1_tr_queue+5)
  2000  000132  1828               	xorwf	_i2c1_object+3,w,c
  2001  000134  A4D8               	btfss	status,2,c
  2002  000136  D004               	goto	i2l167
  2003                           
  2004                           ;i2c1.c: 274: {
  2005                           ;i2c1.c: 276: i2c1_object.pTrHead = i2c1_tr_queue;
  2006  000138  0E40               	movlw	low _i2c1_tr_queue
  2007  00013A  6E27               	movwf	_i2c1_object+2,c
  2008  00013C  0E00               	movlw	high _i2c1_tr_queue
  2009  00013E  6E28               	movwf	_i2c1_object+3,c
  2010  000140                     i2l167:
  2011  000140                     i2l1490:
  2012                           
  2013                           ;i2c1.c: 277: }
  2014                           ;i2c1.c: 281: i2c1_object.trStatus.s.full = 0;
  2015  000140  9029               	bcf	_i2c1_object+4,0,c
  2016                           
  2017                           ;i2c1.c: 284: if(i2c1_object.pTrHead == i2c1_object.pTrTail)
  2018  000142  5025               	movf	_i2c1_object,w,c
  2019  000144  1827               	xorwf	_i2c1_object+2,w,c
  2020  000146  E104               	bnz	i2l168
  2021  000148  5026               	movf	_i2c1_object+1,w,c
  2022  00014A  1828               	xorwf	_i2c1_object+3,w,c
  2023  00014C  B4D8               	btfsc	status,2,c
  2024                           
  2025                           ;i2c1.c: 285: {
  2026                           ;i2c1.c: 287: i2c1_object.trStatus.s.empty = 1;
  2027  00014E  8229               	bsf	_i2c1_object+4,1,c
  2028  000150                     i2l168:
  2029                           
  2030                           ;i2c1.c: 288: }
  2031                           ;i2c1.c: 291: SSP1CON2bits.SEN = 1;
  2032  000150  8097               	bsf	3991,0,c	;volatile
  2033                           
  2034                           ;i2c1.c: 294: i2c1_state = S_MASTER_SEND_ADDR;
  2035  000152  0E02               	movlw	2
  2036  000154  6E35               	movwf	_i2c1_state,c
  2037                           
  2038                           ;i2c1.c: 295: }
  2039                           ;i2c1.c: 297: break;
  2040  000156  0012               	return	
  2041  000158                     i2l170:
  2042                           
  2043                           ;i2c1.c: 304: SSP1CON2bits.RSEN = 1;
  2044  000158  8297               	bsf	3991,1,c	;volatile
  2045                           
  2046                           ;i2c1.c: 307: i2c1_state = S_MASTER_SEND_ADDR;
  2047  00015A  0E02               	movlw	2
  2048  00015C  6E35               	movwf	_i2c1_state,c
  2049                           
  2050                           ;i2c1.c: 309: break;
  2051  00015E  0012               	return	
  2052  000160                     i2l171:
  2053                           
  2054                           ;i2c1.c: 313: if(SSP1CON2bits.ACKSTAT)
  2055  000160  AC97               	btfss	3991,6,c	;volatile
  2056  000162  D005               	goto	i2l172
  2057                           
  2058                           ;i2c1.c: 314: {
  2059                           ;i2c1.c: 315: i2c1_object.i2cErrors++;
  2060  000164  2A2B               	incf	_i2c1_object+6,f,c
  2061                           
  2062                           ;i2c1.c: 316: I2C1_Stop(I2C1_MESSAGE_ADDRESS_NO_ACK);
  2063  000166  0E04               	movlw	4
  2064  000168  EC3A  F003         	call	_I2C1_Stop
  2065                           
  2066                           ;i2c1.c: 317: }
  2067  00016C  0012               	return	
  2068  00016E                     i2l172:
  2069                           
  2070                           ;i2c1.c: 318: else
  2071                           ;i2c1.c: 319: {
  2072                           ;i2c1.c: 321: SSP1BUF = (i2c_address >> 1) & 0x00FF;
  2073  00016E  90D8               	bcf	status,0,c
  2074  000170  3046               	rrcf	I2C1_ISR@i2c_address+1,w,c
  2075  000172  6E05               	movwf	(??_I2C1_ISR+1)& (0+255),c
  2076  000174  3045               	rrcf	I2C1_ISR@i2c_address,w,c
  2077  000176  6E04               	movwf	??_I2C1_ISR& (0+255),c
  2078  000178  5004               	movf	??_I2C1_ISR,w,c
  2079  00017A  6E92               	movwf	3986,c	;volatile
  2080                           
  2081                           ;i2c1.c: 324: if(i2c_address & 0x01)
  2082  00017C  A045               	btfss	I2C1_ISR@i2c_address,0,c
  2083  00017E  D003               	goto	i2l174
  2084                           
  2085                           ;i2c1.c: 325: {
  2086                           ;i2c1.c: 328: i2c1_state = S_MASTER_10BIT_RESTART;
  2087  000180  0E0B               	movlw	11
  2088  000182  6E35               	movwf	_i2c1_state,c
  2089                           
  2090                           ;i2c1.c: 329: }
  2091  000184  0012               	return	
  2092  000186                     i2l174:
  2093                           
  2094                           ;i2c1.c: 330: else
  2095                           ;i2c1.c: 331: {
  2096                           ;i2c1.c: 333: i2c1_state = S_MASTER_SEND_DATA;
  2097  000186  0E03               	movlw	3
  2098  000188  6E35               	movwf	_i2c1_state,c
  2099                           
  2100                           ;i2c1.c: 334: }
  2101                           ;i2c1.c: 335: }
  2102                           ;i2c1.c: 337: break;
  2103  00018A  0012               	return	
  2104  00018C                     i2l176:
  2105                           
  2106                           ;i2c1.c: 341: if(SSP1CON2bits.ACKSTAT)
  2107  00018C  AC97               	btfss	3991,6,c	;volatile
  2108  00018E  D005               	goto	i2l177
  2109                           
  2110                           ;i2c1.c: 342: {
  2111                           ;i2c1.c: 343: i2c1_object.i2cErrors++;
  2112  000190  2A2B               	incf	_i2c1_object+6,f,c
  2113                           
  2114                           ;i2c1.c: 344: I2C1_Stop(I2C1_MESSAGE_ADDRESS_NO_ACK);
  2115  000192  0E04               	movlw	4
  2116  000194  EC3A  F003         	call	_I2C1_Stop
  2117                           
  2118                           ;i2c1.c: 345: }
  2119  000198  0012               	return	
  2120  00019A                     i2l177:
  2121                           
  2122                           ;i2c1.c: 346: else
  2123                           ;i2c1.c: 347: {
  2124                           ;i2c1.c: 350: SSP1CON2bits.RSEN = 1;
  2125  00019A  8297               	bsf	3991,1,c	;volatile
  2126                           
  2127                           ;i2c1.c: 354: i2c_address = 0x00F0 | ((i2c_address >> 8) & 0x0006);
  2128  00019C  C045  F004         	movff	I2C1_ISR@i2c_address,??_I2C1_ISR
  2129  0001A0  C046  F005         	movff	I2C1_ISR@i2c_address+1,??_I2C1_ISR+1
  2130  0001A4  C005  F004         	movff	??_I2C1_ISR+1,??_I2C1_ISR
  2131  0001A8  6A05               	clrf	??_I2C1_ISR+1,c
  2132  0001AA  0E06               	movlw	6
  2133  0001AC  1604               	andwf	??_I2C1_ISR,f,c
  2134  0001AE  0E00               	movlw	0
  2135  0001B0  1605               	andwf	??_I2C1_ISR+1,f,c
  2136  0001B2  0EF0               	movlw	240
  2137  0001B4  1004               	iorwf	??_I2C1_ISR,w,c
  2138  0001B6  6E45               	movwf	I2C1_ISR@i2c_address,c
  2139  0001B8  5005               	movf	??_I2C1_ISR+1,w,c
  2140  0001BA  6E46               	movwf	I2C1_ISR@i2c_address+1,c
  2141                           
  2142                           ;i2c1.c: 357: i2c_address |= 0x0001;
  2143  0001BC  8045               	bsf	I2C1_ISR@i2c_address,0,c
  2144                           
  2145                           ;i2c1.c: 360: i2c_10bit_address_restart = 1;
  2146  0001BE  0E01               	movlw	1
  2147  0001C0  6E32               	movwf	I2C1_ISR@i2c_10bit_address_restart,c
  2148                           
  2149                           ;i2c1.c: 363: i2c1_state = S_MASTER_SEND_ADDR;
  2150  0001C2  0E02               	movlw	2
  2151  0001C4  6E35               	movwf	_i2c1_state,c
  2152                           
  2153                           ;i2c1.c: 364: }
  2154                           ;i2c1.c: 366: break;
  2155  0001C6  0012               	return	
  2156  0001C8                     
  2157                           ;i2c1.c: 381: if(i2c_10bit_address_restart != 1)
  2158  0001C8  0432               	decf	I2C1_ISR@i2c_10bit_address_restart,w,c
  2159  0001CA  B4D8               	btfsc	status,2,c
  2160  0001CC  D01A               	goto	i2l181
  2161                           
  2162                           ;i2c1.c: 382: {
  2163                           ;i2c1.c: 384: i2c_address = p_i2c1_trb_current->address;
  2164  0001CE  C030  FFD9         	movff	_p_i2c1_trb_current,fsr2l
  2165  0001D2  C031  FFDA         	movff	_p_i2c1_trb_current+1,fsr2h
  2166  0001D6  CFDE F045          	movff	postinc2,I2C1_ISR@i2c_address
  2167  0001DA  CFDD F046          	movff	postdec2,I2C1_ISR@i2c_address+1
  2168                           
  2169                           ;i2c1.c: 385: pi2c_buf_ptr = p_i2c1_trb_current->pbuffer;
  2170  0001DE  EE20 F003          	lfsr	2,3
  2171  0001E2  5030               	movf	_p_i2c1_trb_current,w,c
  2172  0001E4  26D9               	addwf	fsr2l,f,c
  2173  0001E6  5031               	movf	_p_i2c1_trb_current+1,w,c
  2174  0001E8  22DA               	addwfc	fsr2h,f,c
  2175  0001EA  CFDE F02C          	movff	postinc2,I2C1_ISR@pi2c_buf_ptr
  2176  0001EE  CFDD F02D          	movff	postdec2,I2C1_ISR@pi2c_buf_ptr+1
  2177                           
  2178                           ;i2c1.c: 386: i2c_bytes_left = p_i2c1_trb_current->length;
  2179  0001F2  EE20 F002          	lfsr	2,2
  2180  0001F6  5030               	movf	_p_i2c1_trb_current,w,c
  2181  0001F8  26D9               	addwf	fsr2l,f,c
  2182  0001FA  5031               	movf	_p_i2c1_trb_current+1,w,c
  2183  0001FC  22DA               	addwfc	fsr2h,f,c
  2184  0001FE  50DF               	movf	indf2,w,c
  2185  000200  6E33               	movwf	I2C1_ISR@i2c_bytes_left,c
  2186  000202                     i2l181:
  2187                           
  2188                           ;i2c1.c: 409: else
  2189                           ;i2c1.c: 410: {
  2190                           ;i2c1.c: 412: SSP1BUF = i2c_address;
  2191  000202  C045  FF92         	movff	I2C1_ISR@i2c_address,3986	;volatile
  2192                           
  2193                           ;i2c1.c: 413: if(i2c_address & 0x01)
  2194  000206  A045               	btfss	I2C1_ISR@i2c_address,0,c
  2195  000208  D003               	goto	i2l185
  2196                           
  2197                           ;i2c1.c: 414: {
  2198                           ;i2c1.c: 416: i2c1_state = S_MASTER_ACK_ADDR;
  2199  00020A  0E05               	movlw	5
  2200  00020C  6E35               	movwf	_i2c1_state,c
  2201                           
  2202                           ;i2c1.c: 417: }
  2203  00020E  0012               	return	
  2204  000210                     i2l185:
  2205                           
  2206                           ;i2c1.c: 418: else
  2207                           ;i2c1.c: 419: {
  2208                           ;i2c1.c: 421: i2c1_state = S_MASTER_SEND_DATA;
  2209  000210  0E03               	movlw	3
  2210  000212  6E35               	movwf	_i2c1_state,c
  2211                           
  2212                           ;i2c1.c: 422: }
  2213                           ;i2c1.c: 423: }
  2214                           ;i2c1.c: 424: break;
  2215  000214  0012               	return	
  2216  000216                     i2l187:
  2217                           
  2218                           ;i2c1.c: 429: if(SSP1CON2bits.ACKSTAT)
  2219  000216  AC97               	btfss	3991,6,c	;volatile
  2220  000218  D006               	goto	i2l188
  2221                           
  2222                           ;i2c1.c: 430: {
  2223                           ;i2c1.c: 432: i2c1_object.i2cErrors++;
  2224  00021A  2A2B               	incf	_i2c1_object+6,f,c
  2225                           
  2226                           ;i2c1.c: 435: SSP1CON2bits.ACKSTAT = 0;
  2227  00021C  9C97               	bcf	3991,6,c	;volatile
  2228                           
  2229                           ;i2c1.c: 438: I2C1_Stop(I2C1_DATA_NO_ACK);
  2230  00021E  0E05               	movlw	5
  2231  000220  EC3A  F003         	call	_I2C1_Stop
  2232                           
  2233                           ;i2c1.c: 440: }
  2234  000224  0012               	return	
  2235  000226                     i2l188:
  2236                           
  2237                           ;i2c1.c: 441: else
  2238                           ;i2c1.c: 442: {
  2239                           ;i2c1.c: 444: if(i2c_bytes_left-- == 0U)
  2240  000226  0633               	decf	I2C1_ISR@i2c_bytes_left,f,c
  2241  000228  2833               	incf	I2C1_ISR@i2c_bytes_left,w,c
  2242  00022A  A4D8               	btfss	status,2,c
  2243  00022C  D00E               	goto	i2l190
  2244                           
  2245                           ;i2c1.c: 445: {
  2246                           ;i2c1.c: 449: p_i2c1_trb_current++;
  2247  00022E  0E05               	movlw	5
  2248  000230  2630               	addwf	_p_i2c1_trb_current,f,c
  2249  000232  0E00               	movlw	0
  2250  000234  2231               	addwfc	_p_i2c1_trb_current+1,f,c
  2251                           
  2252                           ;i2c1.c: 452: if(--i2c1_trb_count == 0)
  2253  000236  2E34               	decfsz	_i2c1_trb_count,f,c
  2254  000238  D004               	goto	i2l191
  2255                           
  2256                           ;i2c1.c: 453: {
  2257                           ;i2c1.c: 454: I2C1_Stop(I2C1_MESSAGE_COMPLETE);
  2258  00023A  0E00               	movlw	0
  2259  00023C  EC3A  F003         	call	_I2C1_Stop
  2260                           
  2261                           ;i2c1.c: 455: }
  2262  000240  0012               	return	
  2263  000242                     i2l191:
  2264                           
  2265                           ;i2c1.c: 456: else
  2266                           ;i2c1.c: 457: {
  2267                           ;i2c1.c: 464: SSP1CON2bits.RSEN = 1;
  2268  000242  8297               	bsf	3991,1,c	;volatile
  2269                           
  2270                           ;i2c1.c: 467: i2c1_state = S_MASTER_SEND_ADDR;
  2271  000244  0E02               	movlw	2
  2272  000246  6E35               	movwf	_i2c1_state,c
  2273                           
  2274                           ;i2c1.c: 469: }
  2275                           ;i2c1.c: 470: }
  2276  000248  0012               	return	
  2277  00024A                     i2l190:
  2278                           
  2279                           ;i2c1.c: 471: else
  2280                           ;i2c1.c: 472: {
  2281                           ;i2c1.c: 474: SSP1BUF = *pi2c_buf_ptr++;
  2282  00024A  C02C  FFD9         	movff	I2C1_ISR@pi2c_buf_ptr,fsr2l
  2283  00024E  C02D  FFDA         	movff	I2C1_ISR@pi2c_buf_ptr+1,fsr2h
  2284  000252  50DF               	movf	indf2,w,c
  2285  000254  6E92               	movwf	3986,c	;volatile
  2286  000256  4A2C               	infsnz	I2C1_ISR@pi2c_buf_ptr,f,c
  2287  000258  2A2D               	incf	I2C1_ISR@pi2c_buf_ptr+1,f,c
  2288                           
  2289                           ;i2c1.c: 475: }
  2290                           ;i2c1.c: 476: }
  2291                           ;i2c1.c: 477: break;
  2292  00025A  0012               	return	
  2293  00025C                     i2l194:
  2294                           
  2295                           ;i2c1.c: 482: if(SSP1CON2bits.ACKSTAT)
  2296  00025C  AC97               	btfss	3991,6,c	;volatile
  2297  00025E  D006               	goto	i2l195
  2298                           
  2299                           ;i2c1.c: 483: {
  2300                           ;i2c1.c: 486: i2c1_object.i2cErrors++;
  2301  000260  2A2B               	incf	_i2c1_object+6,f,c
  2302                           
  2303                           ;i2c1.c: 489: I2C1_Stop(I2C1_MESSAGE_ADDRESS_NO_ACK);
  2304  000262  0E04               	movlw	4
  2305  000264  EC3A  F003         	call	_I2C1_Stop
  2306                           
  2307                           ;i2c1.c: 492: SSP1CON2bits.ACKSTAT = 0;
  2308  000268  9C97               	bcf	3991,6,c	;volatile
  2309                           
  2310                           ;i2c1.c: 493: }
  2311  00026A  0012               	return	
  2312  00026C                     i2l195:
  2313                           
  2314                           ;i2c1.c: 494: else
  2315                           ;i2c1.c: 495: {
  2316                           ;i2c1.c: 496: SSP1CON2bits.RCEN = 1;
  2317  00026C  8697               	bsf	3991,3,c	;volatile
  2318                           
  2319                           ;i2c1.c: 497: i2c1_state = S_MASTER_ACK_RCV_DATA;
  2320  00026E  0E08               	movlw	8
  2321  000270  6E35               	movwf	_i2c1_state,c
  2322                           
  2323                           ;i2c1.c: 498: }
  2324                           ;i2c1.c: 499: break;
  2325  000272  0012               	return	
  2326  000274                     
  2327                           ;i2c1.c: 506: i2c1_state = S_MASTER_ACK_RCV_DATA;
  2328  000274  0E08               	movlw	8
  2329  000276  6E35               	movwf	_i2c1_state,c
  2330                           
  2331                           ;i2c1.c: 509: SSP1CON2bits.RCEN = 1;
  2332  000278  8697               	bsf	3991,3,c	;volatile
  2333                           
  2334                           ;i2c1.c: 511: break;
  2335  00027A  0012               	return	
  2336  00027C                     
  2337                           ;i2c1.c: 516: *pi2c_buf_ptr++ = SSP1BUF;
  2338  00027C  C02C  FFD9         	movff	I2C1_ISR@pi2c_buf_ptr,fsr2l
  2339  000280  C02D  FFDA         	movff	I2C1_ISR@pi2c_buf_ptr+1,fsr2h
  2340  000284  CF92 FFDF          	movff	3986,indf2	;volatile
  2341  000288  4A2C               	infsnz	I2C1_ISR@pi2c_buf_ptr,f,c
  2342  00028A  2A2D               	incf	I2C1_ISR@pi2c_buf_ptr+1,f,c
  2343                           
  2344                           ;i2c1.c: 519: if(--i2c_bytes_left)
  2345  00028C  0E01               	movlw	1
  2346  00028E  5E33               	subwf	I2C1_ISR@i2c_bytes_left,f,c
  2347  000290  B4D8               	btfsc	status,2,c
  2348  000292  D004               	goto	i2l199
  2349                           
  2350                           ;i2c1.c: 520: {
  2351                           ;i2c1.c: 526: SSP1CON2bits.ACKDT = 0;
  2352  000294  9A97               	bcf	3991,5,c	;volatile
  2353                           
  2354                           ;i2c1.c: 529: i2c1_state = S_MASTER_RCV_DATA;
  2355  000296  0E06               	movlw	6
  2356  000298  6E35               	movwf	_i2c1_state,c
  2357                           
  2358                           ;i2c1.c: 530: }
  2359  00029A  D003               	goto	i2l200
  2360  00029C                     i2l199:
  2361                           
  2362                           ;i2c1.c: 531: else
  2363                           ;i2c1.c: 532: {
  2364                           ;i2c1.c: 536: SSP1CON2bits.ACKDT = 1;
  2365  00029C  8A97               	bsf	3991,5,c	;volatile
  2366                           
  2367                           ;i2c1.c: 538: I2C1_FunctionComplete();
  2368  00029E  EC8D  F003         	call	_I2C1_FunctionComplete	;wreg free
  2369  0002A2                     i2l200:
  2370                           
  2371                           ;i2c1.c: 539: }
  2372                           ;i2c1.c: 542: SSP1CON2bits.ACKEN = 1;
  2373  0002A2  8897               	bsf	3991,4,c	;volatile
  2374                           
  2375                           ;i2c1.c: 543: break;
  2376  0002A4  0012               	return	
  2377  0002A6                     
  2378                           ;i2c1.c: 546: case S_MASTER_SEND_STOP:
  2379                           ;i2c1.c: 549: I2C1_Stop(I2C1_MESSAGE_COMPLETE);
  2380  0002A6  0E00               	movlw	0
  2381  0002A8  EC3A  F003         	call	_I2C1_Stop
  2382                           
  2383                           ;i2c1.c: 550: break;
  2384  0002AC  0012               	return	
  2385  0002AE                     
  2386                           ;i2c1.c: 556: i2c1_object.i2cErrors++;
  2387  0002AE  2A2B               	incf	_i2c1_object+6,f,c
  2388                           
  2389                           ;i2c1.c: 557: I2C1_Stop(I2C1_LOST_STATE);
  2390  0002B0  0E06               	movlw	6
  2391  0002B2  EC3A  F003         	call	_I2C1_Stop
  2392                           
  2393                           ;i2c1.c: 560: }
  2394                           
  2395                           ;i2c1.c: 558: break;
  2396  0002B6  0012               	return	
  2397  0002B8                     i2l164:
  2398  0002B8  5035               	movf	_i2c1_state,w,c
  2399                           
  2400                           ; Switch size 1, requested type "space"
  2401                           ; Number of cases is 11, Range of values is 0 to 11
  2402                           ; switch strategies available:
  2403                           ; Name         Instructions Cycles
  2404                           ; simple_byte           34    18 (average)
  2405                           ;	Chosen strategy is simple_byte
  2406  0002BA  0A00               	xorlw	0	; case 0
  2407  0002BC  B4D8               	btfsc	status,2,c
  2408  0002BE  D71B               	goto	i2l165
  2409  0002C0  0A01               	xorlw	1	; case 1
  2410  0002C2  B4D8               	btfsc	status,2,c
  2411  0002C4  D749               	goto	i2l170
  2412  0002C6  0A03               	xorlw	3	; case 2
  2413  0002C8  B4D8               	btfsc	status,2,c
  2414  0002CA  D77E               	goto	i2l179
  2415  0002CC  0A01               	xorlw	1	; case 3
  2416  0002CE  B4D8               	btfsc	status,2,c
  2417  0002D0  D7A2               	goto	i2l187
  2418  0002D2  0A07               	xorlw	7	; case 4
  2419  0002D4  B4D8               	btfsc	status,2,c
  2420  0002D6  D7E7               	goto	i2l201
  2421  0002D8  0A01               	xorlw	1	; case 5
  2422  0002DA  B4D8               	btfsc	status,2,c
  2423  0002DC  D7BF               	goto	i2l194
  2424  0002DE  0A03               	xorlw	3	; case 6
  2425  0002E0  B4D8               	btfsc	status,2,c
  2426  0002E2  D7C8               	goto	i2l197
  2427  0002E4  0A01               	xorlw	1	; case 7
  2428  0002E6  B4D8               	btfsc	status,2,c
  2429  0002E8  D7DE               	goto	i2l201
  2430  0002EA  0A0F               	xorlw	15	; case 8
  2431  0002EC  B4D8               	btfsc	status,2,c
  2432  0002EE  D7C6               	goto	i2l198
  2433  0002F0  0A02               	xorlw	2	; case 10
  2434  0002F2  B4D8               	btfsc	status,2,c
  2435  0002F4  D735               	goto	i2l171
  2436  0002F6  0A01               	xorlw	1	; case 11
  2437  0002F8  B4D8               	btfsc	status,2,c
  2438  0002FA  D748               	goto	i2l176
  2439  0002FC  D7D8               	goto	i2l203
  2440  0002FE                     __end_of_I2C1_ISR:
  2441                           	opt stack 0
  2442                           pclatu	equ	0xFFB
  2443                           pclath	equ	0xFFA
  2444                           tblptru	equ	0xFF8
  2445                           tblptrh	equ	0xFF7
  2446                           tblptrl	equ	0xFF6
  2447                           tablat	equ	0xFF5
  2448                           prodh	equ	0xFF4
  2449                           prodl	equ	0xFF3
  2450                           intcon	equ	0xFF2
  2451                           postinc0	equ	0xFEE
  2452                           fsr0h	equ	0xFEA
  2453                           fsr0l	equ	0xFE9
  2454                           wreg	equ	0xFE8
  2455                           fsr1h	equ	0xFE2
  2456                           fsr1l	equ	0xFE1
  2457                           indf2	equ	0xFDF
  2458                           postinc2	equ	0xFDE
  2459                           postdec2	equ	0xFDD
  2460                           plusw2	equ	0xFDB
  2461                           fsr2h	equ	0xFDA
  2462                           fsr2l	equ	0xFD9
  2463                           status	equ	0xFD8
  2464                           
  2465 ;; *************** function _I2C1_Stop *****************
  2466 ;; Defined at:
  2467 ;;		line 581 in file "mcc_generated_files/i2c1.c"
  2468 ;; Parameters:    Size  Location     Type
  2469 ;;  completion_c    1    wreg     enum E11606
  2470 ;; Auto vars:     Size  Location     Type
  2471 ;;  completion_c    1    2[COMRAM] enum E11606
  2472 ;; Return value:  Size  Location     Type
  2473 ;;                  1    wreg      void 
  2474 ;; Registers used:
  2475 ;;		wreg, fsr2l, fsr2h, status,2, status,0
  2476 ;; Tracked objects:
  2477 ;;		On entry : 0/0
  2478 ;;		On exit  : 0/0
  2479 ;;		Unchanged: 0/0
  2480 ;; Data sizes:     COMRAM   BANK0   BANK1   BANK2   BANK3   BANK4   BANK5   BANK6   BANK7   BANK8   BANK9  BANK10  BANK1
      +1  BANK12  BANK13  BANK14
  2481 ;;      Params:         0       0       0       0       0       0       0       0       0       0       0       0       
      +0       0       0       0
  2482 ;;      Locals:         1       0       0       0       0       0       0       0       0       0       0       0       
      +0       0       0       0
  2483 ;;      Temps:          2       0       0       0       0       0       0       0       0       0       0       0       
      +0       0       0       0
  2484 ;;      Totals:         3       0       0       0       0       0       0       0       0       0       0       0       
      +0       0       0       0
  2485 ;;Total ram usage:        3 bytes
  2486 ;; Hardware stack levels used:    1
  2487 ;; This function calls:
  2488 ;;		Nothing
  2489 ;; This function is called by:
  2490 ;;		_I2C1_ISR
  2491 ;; This function uses a non-reentrant model
  2492 ;;
  2493                           
  2494                           	psect	text15
  2495  000674                     __ptext15:
  2496                           	opt stack 0
  2497  000674                     _I2C1_Stop:
  2498                           	opt stack 25
  2499                           
  2500                           ;incstack = 0
  2501                           ;I2C1_Stop@completion_code stored from wreg
  2502  000674  6E03               	movwf	I2C1_Stop@completion_code,c
  2503                           
  2504                           ;i2c1.c: 584: SSP1CON2bits.PEN = 1;
  2505  000676  8497               	bsf	3991,2,c	;volatile
  2506                           
  2507                           ;i2c1.c: 587: if (p_i2c1_current->pTrFlag != (0))
  2508  000678  EE20 F003          	lfsr	2,3
  2509  00067C  502E               	movf	_p_i2c1_current,w,c
  2510  00067E  26D9               	addwf	fsr2l,f,c
  2511  000680  502F               	movf	_p_i2c1_current+1,w,c
  2512  000682  22DA               	addwfc	fsr2h,f,c
  2513  000684  50DE               	movf	postinc2,w,c
  2514  000686  10DE               	iorwf	postinc2,w,c
  2515  000688  B4D8               	btfsc	status,2,c
  2516  00068A  D010               	goto	i2l211
  2517                           
  2518                           ;i2c1.c: 588: {
  2519                           ;i2c1.c: 590: *(p_i2c1_current->pTrFlag) = completion_code;
  2520  00068C  EE20 F003          	lfsr	2,3
  2521  000690  502E               	movf	_p_i2c1_current,w,c
  2522  000692  26D9               	addwf	fsr2l,f,c
  2523  000694  502F               	movf	_p_i2c1_current+1,w,c
  2524  000696  22DA               	addwfc	fsr2h,f,c
  2525  000698  CFDE F001          	movff	postinc2,??_I2C1_Stop
  2526  00069C  CFDD F002          	movff	postdec2,??_I2C1_Stop+1
  2527  0006A0  C001  FFD9         	movff	??_I2C1_Stop,fsr2l
  2528  0006A4  C002  FFDA         	movff	??_I2C1_Stop+1,fsr2h
  2529  0006A8  C003  FFDF         	movff	I2C1_Stop@completion_code,indf2
  2530  0006AC                     i2l211:
  2531                           
  2532                           ;i2c1.c: 591: }
  2533                           ;i2c1.c: 594: i2c1_state = S_MASTER_IDLE;
  2534  0006AC  0E00               	movlw	0
  2535  0006AE  6E35               	movwf	_i2c1_state,c
  2536  0006B0  0012               	return		;funcret
  2537  0006B2                     __end_of_I2C1_Stop:
  2538                           	opt stack 0
  2539                           pclatu	equ	0xFFB
  2540                           pclath	equ	0xFFA
  2541                           tblptru	equ	0xFF8
  2542                           tblptrh	equ	0xFF7
  2543                           tblptrl	equ	0xFF6
  2544                           tablat	equ	0xFF5
  2545                           prodh	equ	0xFF4
  2546                           prodl	equ	0xFF3
  2547                           intcon	equ	0xFF2
  2548                           postinc0	equ	0xFEE
  2549                           fsr0h	equ	0xFEA
  2550                           fsr0l	equ	0xFE9
  2551                           wreg	equ	0xFE8
  2552                           fsr1h	equ	0xFE2
  2553                           fsr1l	equ	0xFE1
  2554                           indf2	equ	0xFDF
  2555                           postinc2	equ	0xFDE
  2556                           postdec2	equ	0xFDD
  2557                           plusw2	equ	0xFDB
  2558                           fsr2h	equ	0xFDA
  2559                           fsr2l	equ	0xFD9
  2560                           status	equ	0xFD8
  2561                           
  2562 ;; *************** function _I2C1_FunctionComplete *****************
  2563 ;; Defined at:
  2564 ;;		line 563 in file "mcc_generated_files/i2c1.c"
  2565 ;; Parameters:    Size  Location     Type
  2566 ;;		None
  2567 ;; Auto vars:     Size  Location     Type
  2568 ;;		None
  2569 ;; Return value:  Size  Location     Type
  2570 ;;                  1    wreg      void 
  2571 ;; Registers used:
  2572 ;;		wreg, status,2, status,0
  2573 ;; Tracked objects:
  2574 ;;		On entry : 0/0
  2575 ;;		On exit  : 0/0
  2576 ;;		Unchanged: 0/0
  2577 ;; Data sizes:     COMRAM   BANK0   BANK1   BANK2   BANK3   BANK4   BANK5   BANK6   BANK7   BANK8   BANK9  BANK10  BANK1
      +1  BANK12  BANK13  BANK14
  2578 ;;      Params:         0       0       0       0       0       0       0       0       0       0       0       0       
      +0       0       0       0
  2579 ;;      Locals:         0       0       0       0       0       0       0       0       0       0       0       0       
      +0       0       0       0
  2580 ;;      Temps:          0       0       0       0       0       0       0       0       0       0       0       0       
      +0       0       0       0
  2581 ;;      Totals:         0       0       0       0       0       0       0       0       0       0       0       0       
      +0       0       0       0
  2582 ;;Total ram usage:        0 bytes
  2583 ;; Hardware stack levels used:    1
  2584 ;; This function calls:
  2585 ;;		Nothing
  2586 ;; This function is called by:
  2587 ;;		_I2C1_ISR
  2588 ;; This function uses a non-reentrant model
  2589 ;;
  2590                           
  2591                           	psect	text16
  2592  00071A                     __ptext16:
  2593                           	opt stack 0
  2594  00071A                     _I2C1_FunctionComplete:
  2595                           	opt stack 25
  2596                           
  2597                           ;i2c1.c: 567: p_i2c1_trb_current++;
  2598                           
  2599                           ;incstack = 0
  2600  00071A  0E05               	movlw	5
  2601  00071C  2630               	addwf	_p_i2c1_trb_current,f,c
  2602  00071E  0E00               	movlw	0
  2603  000720  2231               	addwfc	_p_i2c1_trb_current+1,f,c
  2604                           
  2605                           ;i2c1.c: 570: if(--i2c1_trb_count == 0)
  2606  000722  2E34               	decfsz	_i2c1_trb_count,f,c
  2607  000724  D003               	goto	i2l206
  2608                           
  2609                           ;i2c1.c: 571: {
  2610                           ;i2c1.c: 572: i2c1_state = S_MASTER_SEND_STOP;
  2611  000726  0E04               	movlw	4
  2612  000728  6E35               	movwf	_i2c1_state,c
  2613                           
  2614                           ;i2c1.c: 573: }
  2615  00072A  0012               	return	
  2616  00072C                     i2l206:
  2617                           
  2618                           ;i2c1.c: 574: else
  2619                           ;i2c1.c: 575: {
  2620                           ;i2c1.c: 576: i2c1_state = S_MASTER_RESTART;
  2621  00072C  0E01               	movlw	1
  2622  00072E  6E35               	movwf	_i2c1_state,c
  2623  000730  0012               	return	
  2624  000732                     __end_of_I2C1_FunctionComplete:
  2625                           	opt stack 0
  2626                           pclatu	equ	0xFFB
  2627                           pclath	equ	0xFFA
  2628                           tblptru	equ	0xFF8
  2629                           tblptrh	equ	0xFF7
  2630                           tblptrl	equ	0xFF6
  2631                           tablat	equ	0xFF5
  2632                           prodh	equ	0xFF4
  2633                           prodl	equ	0xFF3
  2634                           intcon	equ	0xFF2
  2635                           postinc0	equ	0xFEE
  2636                           fsr0h	equ	0xFEA
  2637                           fsr0l	equ	0xFE9
  2638                           wreg	equ	0xFE8
  2639                           fsr1h	equ	0xFE2
  2640                           fsr1l	equ	0xFE1
  2641                           indf2	equ	0xFDF
  2642                           postinc2	equ	0xFDE
  2643                           postdec2	equ	0xFDD
  2644                           plusw2	equ	0xFDB
  2645                           fsr2h	equ	0xFDA
  2646                           fsr2l	equ	0xFD9
  2647                           status	equ	0xFD8
  2648                           
  2649 ;; *************** function _I2C1_BusCollisionISR *****************
  2650 ;; Defined at:
  2651 ;;		line 728 in file "mcc_generated_files/i2c1.c"
  2652 ;; Parameters:    Size  Location     Type
  2653 ;;		None
  2654 ;; Auto vars:     Size  Location     Type
  2655 ;;		None
  2656 ;; Return value:  Size  Location     Type
  2657 ;;                  1    wreg      void 
  2658 ;; Registers used:
  2659 ;;		None
  2660 ;; Tracked objects:
  2661 ;;		On entry : 0/0
  2662 ;;		On exit  : 0/0
  2663 ;;		Unchanged: 0/0
  2664 ;; Data sizes:     COMRAM   BANK0   BANK1   BANK2   BANK3   BANK4   BANK5   BANK6   BANK7   BANK8   BANK9  BANK10  BANK1
      +1  BANK12  BANK13  BANK14
  2665 ;;      Params:         0       0       0       0       0       0       0       0       0       0       0       0       
      +0       0       0       0
  2666 ;;      Locals:         0       0       0       0       0       0       0       0       0       0       0       0       
      +0       0       0       0
  2667 ;;      Temps:          0       0       0       0       0       0       0       0       0       0       0       0       
      +0       0       0       0
  2668 ;;      Totals:         0       0       0       0       0       0       0       0       0       0       0       0       
      +0       0       0       0
  2669 ;;Total ram usage:        0 bytes
  2670 ;; Hardware stack levels used:    1
  2671 ;; This function calls:
  2672 ;;		Nothing
  2673 ;; This function is called by:
  2674 ;;		_INTERRUPT_InterruptManager
  2675 ;; This function uses a non-reentrant model
  2676 ;;
  2677                           
  2678                           	psect	text17
  2679  00075E                     __ptext17:
  2680                           	opt stack 0
  2681  00075E                     _I2C1_BusCollisionISR:
  2682                           	opt stack 26
  2683                           
  2684                           ;i2c1.c: 731: PIR3bits.BCL1IF = 0;
  2685                           
  2686                           ;incstack = 0
  2687  00075E  010E               	movlb	14	; () banked
  2688  000760  93CD               	bcf	205,1,b	;volatile
  2689                           
  2690                           ; BSR set to: 14
  2691  000762  0012               	return		;funcret
  2692  000764                     __end_of_I2C1_BusCollisionISR:
  2693                           	opt stack 0
  2694  0000                     pclatu	equ	0xFFB
  2695                           pclath	equ	0xFFA
  2696                           tblptru	equ	0xFF8
  2697                           tblptrh	equ	0xFF7
  2698                           tblptrl	equ	0xFF6
  2699                           tablat	equ	0xFF5
  2700                           prodh	equ	0xFF4
  2701                           prodl	equ	0xFF3
  2702                           intcon	equ	0xFF2
  2703                           postinc0	equ	0xFEE
  2704                           fsr0h	equ	0xFEA
  2705                           fsr0l	equ	0xFE9
  2706                           wreg	equ	0xFE8
  2707                           fsr1h	equ	0xFE2
  2708                           fsr1l	equ	0xFE1
  2709                           indf2	equ	0xFDF
  2710                           postinc2	equ	0xFDE
  2711                           postdec2	equ	0xFDD
  2712                           plusw2	equ	0xFDB
  2713                           fsr2h	equ	0xFDA
  2714                           fsr2l	equ	0xFD9
  2715                           status	equ	0xFD8
  2716                           pclatu	equ	0xFFB
  2717                           pclath	equ	0xFFA
  2718                           tblptru	equ	0xFF8
  2719                           tblptrh	equ	0xFF7
  2720                           tblptrl	equ	0xFF6
  2721                           tablat	equ	0xFF5
  2722                           prodh	equ	0xFF4
  2723                           prodl	equ	0xFF3
  2724                           intcon	equ	0xFF2
  2725                           postinc0	equ	0xFEE
  2726                           fsr0h	equ	0xFEA
  2727                           fsr0l	equ	0xFE9
  2728                           wreg	equ	0xFE8
  2729                           fsr1h	equ	0xFE2
  2730                           fsr1l	equ	0xFE1
  2731                           indf2	equ	0xFDF
  2732                           postinc2	equ	0xFDE
  2733                           postdec2	equ	0xFDD
  2734                           plusw2	equ	0xFDB
  2735                           fsr2h	equ	0xFDA
  2736                           fsr2l	equ	0xFD9
  2737                           status	equ	0xFD8
  2738                           
  2739                           	psect	rparam
  2740  0000                     pclatu	equ	0xFFB
  2741                           pclath	equ	0xFFA
  2742                           tblptru	equ	0xFF8
  2743                           tblptrh	equ	0xFF7
  2744                           tblptrl	equ	0xFF6
  2745                           tablat	equ	0xFF5
  2746                           prodh	equ	0xFF4
  2747                           prodl	equ	0xFF3
  2748                           intcon	equ	0xFF2
  2749                           postinc0	equ	0xFEE
  2750                           fsr0h	equ	0xFEA
  2751                           fsr0l	equ	0xFE9
  2752                           wreg	equ	0xFE8
  2753                           fsr1h	equ	0xFE2
  2754                           fsr1l	equ	0xFE1
  2755                           indf2	equ	0xFDF
  2756                           postinc2	equ	0xFDE
  2757                           postdec2	equ	0xFDD
  2758                           plusw2	equ	0xFDB
  2759                           fsr2h	equ	0xFDA
  2760                           fsr2l	equ	0xFD9
  2761                           status	equ	0xFD8
  2762                           
  2763                           	psect	temp
  2764  000047                     btemp:
  2765                           	opt stack 0
  2766  000047                     	ds	1
  2767  0000                     int$flags	set	btemp
  2768  0000                     wtemp6	set	btemp+1
  2769                           pclatu	equ	0xFFB
  2770                           pclath	equ	0xFFA
  2771                           tblptru	equ	0xFF8
  2772                           tblptrh	equ	0xFF7
  2773                           tblptrl	equ	0xFF6
  2774                           tablat	equ	0xFF5
  2775                           prodh	equ	0xFF4
  2776                           prodl	equ	0xFF3
  2777                           intcon	equ	0xFF2
  2778                           postinc0	equ	0xFEE
  2779                           fsr0h	equ	0xFEA
  2780                           fsr0l	equ	0xFE9
  2781                           wreg	equ	0xFE8
  2782                           fsr1h	equ	0xFE2
  2783                           fsr1l	equ	0xFE1
  2784                           indf2	equ	0xFDF
  2785                           postinc2	equ	0xFDE
  2786                           postdec2	equ	0xFDD
  2787                           plusw2	equ	0xFDB
  2788                           fsr2h	equ	0xFDA
  2789                           fsr2l	equ	0xFD9
  2790                           status	equ	0xFD8


Data Sizes:
    Strings     0
    Constant    0
    Data        0
    BSS         34
    Persistent  0
    Stack       0

Auto Spaces:
    Space          Size  Autos    Used
    COMRAM           94     36      70
    BANK0           160     16      16
    BANK1           256      0       0
    BANK2           256      0       0
    BANK3           256      0       0
    BANK4           256      0       0
    BANK5           256      0       0
    BANK6           256      0       0
    BANK7           256      0       0
    BANK8           256      0       0
    BANK9           256      0       0
    BANK10          256      0       0
    BANK11          256      0       0
    BANK12          256      0       0
    BANK13          256      0       0
    BANK14          136      0       0

Pointer List with Targets:

    i2c1_tr_queue.ptrb_list.pbuffer	PTR unsigned char  size(2) Largest target is 0
		 -> main@data(BANK0[1]), main@status(BANK0[1]), digitalRead@result(BANK0[1]), digitalRead@regAddr(BANK0[1]), 
		 -> digitalRead@status(BANK0[1]), 

    i2c1_tr_queue.pTrFlag	PTR enum E11606 size(2) Largest target is 0
		 -> main@data(BANK0[1]), main@status(BANK0[1]), digitalRead@result(BANK0[1]), digitalRead@regAddr(BANK0[1]), 
		 -> digitalRead@status(BANK0[1]), 

    i2c1_tr_queue.ptrb_list	PTR struct . size(2) Largest target is 0
		 -> I2C1_MasterRead@trBlock(COMRAM[5]), I2C1_MasterWrite@trBlock(COMRAM[5]), 

    I2C1_MasterWriteTRBBuild@pdata	PTR unsigned char  size(2) Largest target is 1
		 -> main@data(BANK0[1]), digitalRead@regAddr(BANK0[1]), 

    I2C1_MasterWriteTRBBuild@ptrb.pbuffer	PTR unsigned char  size(2) Largest target is 1
		 -> main@data(BANK0[1]), main@status(BANK0[1]), digitalRead@result(BANK0[1]), digitalRead@regAddr(BANK0[1]), 
		 -> digitalRead@status(BANK0[1]), 

    I2C1_MasterWriteTRBBuild@ptrb	PTR struct . size(2) Largest target is 6
		 -> I2C1_MasterWrite@trBlock(COMRAM[5]), 

    I2C1_MasterReadTRBBuild@pdata	PTR unsigned char  size(2) Largest target is 1
		 -> digitalRead@result(BANK0[1]), 

    I2C1_MasterReadTRBBuild@ptrb.pbuffer	PTR unsigned char  size(2) Largest target is 1
		 -> main@data(BANK0[1]), main@status(BANK0[1]), digitalRead@result(BANK0[1]), digitalRead@regAddr(BANK0[1]), 
		 -> digitalRead@status(BANK0[1]), 

    I2C1_MasterReadTRBBuild@ptrb	PTR struct . size(2) Largest target is 6
		 -> I2C1_MasterRead@trBlock(COMRAM[5]), 

    i2c1_object.pTrTail.ptrb_list.pbuffer	PTR unsigned char  size(2) Largest target is 1
		 -> main@data(BANK0[1]), main@status(BANK0[1]), digitalRead@result(BANK0[1]), digitalRead@regAddr(BANK0[1]), 
		 -> digitalRead@status(BANK0[1]), 

    i2c1_object.pTrTail.pTrFlag	PTR enum E11606 size(2) Largest target is 1
		 -> main@data(BANK0[1]), main@status(BANK0[1]), digitalRead@result(BANK0[1]), digitalRead@regAddr(BANK0[1]), 
		 -> digitalRead@status(BANK0[1]), 

    i2c1_object.pTrTail.ptrb_list	PTR struct . size(2) Largest target is 6
		 -> I2C1_MasterRead@trBlock(COMRAM[5]), I2C1_MasterWrite@trBlock(COMRAM[5]), 

    I2C1_MasterTRBInsert@ptrb_list	PTR struct . size(2) Largest target is 6
		 -> I2C1_MasterRead@trBlock(COMRAM[5]), I2C1_MasterWrite@trBlock(COMRAM[5]), 

    I2C1_MasterTRBInsert@pflag	PTR enum E11606 size(2) Largest target is 1
		 -> main@status(BANK0[1]), digitalRead@status(BANK0[1]), 

    I2C1_MasterRead@pflag	PTR enum E11606 size(2) Largest target is 1
		 -> digitalRead@status(BANK0[1]), 

    I2C1_MasterRead@pdata	PTR unsigned char  size(2) Largest target is 1
		 -> digitalRead@result(BANK0[1]), 

    F11718.pbuffer	PTR unsigned char  size(2) Largest target is 1
		 -> main@data(BANK0[1]), main@status(BANK0[1]), digitalRead@result(BANK0[1]), digitalRead@regAddr(BANK0[1]), 
		 -> digitalRead@status(BANK0[1]), 

    I2C1_MasterWrite@pflag	PTR enum E11606 size(2) Largest target is 1
		 -> main@status(BANK0[1]), digitalRead@status(BANK0[1]), 

    I2C1_MasterWrite@pdata	PTR unsigned char  size(2) Largest target is 1
		 -> main@data(BANK0[1]), digitalRead@regAddr(BANK0[1]), 

    F11713.pbuffer	PTR unsigned char  size(2) Largest target is 1
		 -> main@data(BANK0[1]), main@status(BANK0[1]), digitalRead@result(BANK0[1]), digitalRead@regAddr(BANK0[1]), 
		 -> digitalRead@status(BANK0[1]), 

    I2C1_ISR@pi2c_buf_ptr	PTR unsigned char  size(2) Largest target is 1
		 -> main@data(BANK0[1]), main@status(BANK0[1]), digitalRead@result(BANK0[1]), digitalRead@regAddr(BANK0[1]), 
		 -> digitalRead@status(BANK0[1]), NULL(NULL[0]), 

    p_i2c1_trb_current.pbuffer	PTR unsigned char  size(2) Largest target is 1
		 -> main@data(BANK0[1]), main@status(BANK0[1]), digitalRead@result(BANK0[1]), digitalRead@regAddr(BANK0[1]), 
		 -> digitalRead@status(BANK0[1]), 

    p_i2c1_trb_current	PTR struct . size(2) Largest target is 6
		 -> I2C1_MasterRead@trBlock(COMRAM[5]), I2C1_MasterWrite@trBlock(COMRAM[5]), NULL(NULL[0]), 

    i2c1_object.pTrHead.pTrFlag	PTR enum E11606 size(2) Largest target is 1
		 -> main@data(BANK0[1]), main@status(BANK0[1]), digitalRead@result(BANK0[1]), digitalRead@regAddr(BANK0[1]), 
		 -> digitalRead@status(BANK0[1]), 

    i2c1_object.pTrHead.ptrb_list	PTR struct . size(2) Largest target is 6
		 -> I2C1_MasterRead@trBlock(COMRAM[5]), I2C1_MasterWrite@trBlock(COMRAM[5]), 

    S98$pbuffer	PTR unsigned char  size(2) Largest target is 1
		 -> main@data(BANK0[1]), main@status(BANK0[1]), digitalRead@result(BANK0[1]), digitalRead@regAddr(BANK0[1]), 
		 -> digitalRead@status(BANK0[1]), 

    p_i2c1_current.pbuffer	PTR unsigned char  size(2) Largest target is 1
		 -> main@data(BANK0[1]), main@status(BANK0[1]), digitalRead@result(BANK0[1]), digitalRead@regAddr(BANK0[1]), 
		 -> digitalRead@status(BANK0[1]), 

    S110$pTrFlag	PTR enum E11606 size(2) Largest target is 1
		 -> main@data(BANK0[1]), main@status(BANK0[1]), digitalRead@result(BANK0[1]), digitalRead@regAddr(BANK0[1]), 
		 -> digitalRead@status(BANK0[1]), 

    p_i2c1_current.pTrFlag	PTR enum E11606 size(2) Largest target is 1
		 -> main@data(BANK0[1]), main@status(BANK0[1]), digitalRead@result(BANK0[1]), digitalRead@regAddr(BANK0[1]), 
		 -> digitalRead@status(BANK0[1]), 

    S110$ptrb_list	PTR struct . size(2) Largest target is 6
		 -> I2C1_MasterRead@trBlock(COMRAM[5]), I2C1_MasterWrite@trBlock(COMRAM[5]), 

    p_i2c1_current.ptrb_list	PTR struct . size(2) Largest target is 6
		 -> I2C1_MasterRead@trBlock(COMRAM[5]), I2C1_MasterWrite@trBlock(COMRAM[5]), 

    p_i2c1_current	PTR struct . size(2) Largest target is 7
		 -> i2c1_tr_queue(COMRAM[5]), NULL(NULL[0]), 

    S121$pTrHead	PTR struct . size(2) Largest target is 7
		 -> i2c1_tr_queue(COMRAM[5]), 

    i2c1_object.pTrHead	PTR struct . size(2) Largest target is 7
		 -> i2c1_tr_queue(COMRAM[5]), 

    S121$pTrTail	PTR struct . size(2) Largest target is 7
		 -> i2c1_tr_queue(COMRAM[5]), 

    i2c1_object.pTrTail	PTR struct . size(2) Largest target is 7
		 -> i2c1_tr_queue(COMRAM[5]), 


Critical Paths under _main in COMRAM

    _main->_digitalRead
    _I2C1_MasterWrite->_I2C1_MasterWriteTRBBuild
    _I2C1_MasterRead->_I2C1_MasterReadTRBBuild

Critical Paths under _INTERRUPT_InterruptManager in COMRAM

    _INTERRUPT_InterruptManager->_I2C1_ISR
    _I2C1_ISR->_I2C1_Stop

Critical Paths under _main in BANK0

    _main->_digitalRead
    _digitalRead->_I2C1_MasterRead
    _digitalRead->_I2C1_MasterWrite

Critical Paths under _INTERRUPT_InterruptManager in BANK0

    None.

Critical Paths under _main in BANK1

    None.

Critical Paths under _INTERRUPT_InterruptManager in BANK1

    None.

Critical Paths under _main in BANK2

    None.

Critical Paths under _INTERRUPT_InterruptManager in BANK2

    None.

Critical Paths under _main in BANK3

    None.

Critical Paths under _INTERRUPT_InterruptManager in BANK3

    None.

Critical Paths under _main in BANK4

    None.

Critical Paths under _INTERRUPT_InterruptManager in BANK4

    None.

Critical Paths under _main in BANK5

    None.

Critical Paths under _INTERRUPT_InterruptManager in BANK5

    None.

Critical Paths under _main in BANK6

    None.

Critical Paths under _INTERRUPT_InterruptManager in BANK6

    None.

Critical Paths under _main in BANK7

    None.

Critical Paths under _INTERRUPT_InterruptManager in BANK7

    None.

Critical Paths under _main in BANK8

    None.

Critical Paths under _INTERRUPT_InterruptManager in BANK8

    None.

Critical Paths under _main in BANK9

    None.

Critical Paths under _INTERRUPT_InterruptManager in BANK9

    None.

Critical Paths under _main in BANK10

    None.

Critical Paths under _INTERRUPT_InterruptManager in BANK10

    None.

Critical Paths under _main in BANK11

    None.

Critical Paths under _INTERRUPT_InterruptManager in BANK11

    None.

Critical Paths under _main in BANK12

    None.

Critical Paths under _INTERRUPT_InterruptManager in BANK12

    None.

Critical Paths under _main in BANK13

    None.

Critical Paths under _INTERRUPT_InterruptManager in BANK13

    None.

Critical Paths under _main in BANK14

    None.

Critical Paths under _INTERRUPT_InterruptManager in BANK14

    None.

Call Graph Tables:

 ---------------------------------------------------------------------------------
 (Depth) Function   	        Calls       Base Space   Used Autos Params    Refs
 ---------------------------------------------------------------------------------
 (0) _main                                                 5     5      0    6933
                                             34 COMRAM     2     2      0
                                             13 BANK0      3     3      0
                    _I2C1_Initialize
                   _I2C1_MasterWrite
                  _SYSTEM_Initialize
                        _digitalRead
 ---------------------------------------------------------------------------------
 (1) _digitalRead                                          8     8      0    4359
                                             32 COMRAM     2     2      0
                                              7 BANK0      6     6      0
                    _I2C1_MasterRead
                   _I2C1_MasterWrite
 ---------------------------------------------------------------------------------
 (2) _I2C1_MasterWrite                                     7     0      7    2327
                                              0 BANK0      7     0      7
               _I2C1_MasterTRBInsert
           _I2C1_MasterWriteTRBBuild
 ---------------------------------------------------------------------------------
 (3) _I2C1_MasterWriteTRBBuild                             9     2      7     546
                                             23 COMRAM     9     2      7
 ---------------------------------------------------------------------------------
 (2) _I2C1_MasterRead                                      7     0      7    1638
                                              0 BANK0      7     0      7
            _I2C1_MasterReadTRBBuild
               _I2C1_MasterTRBInsert
 ---------------------------------------------------------------------------------
 (3) _I2C1_MasterTRBInsert                                 6     2      4     546
                                             23 COMRAM     6     2      4
 ---------------------------------------------------------------------------------
 (3) _I2C1_MasterReadTRBBuild                              9     2      7     577
                                             23 COMRAM     9     2      7
 ---------------------------------------------------------------------------------
 (1) _SYSTEM_Initialize                                    0     0      0       0
                    _I2C1_Initialize
               _INTERRUPT_Initialize
              _OSCILLATOR_Initialize
             _PIN_MANAGER_Initialize
                     _PMD_Initialize
 ---------------------------------------------------------------------------------
 (2) _PMD_Initialize                                       0     0      0       0
 ---------------------------------------------------------------------------------
 (2) _PIN_MANAGER_Initialize                               0     0      0       0
 ---------------------------------------------------------------------------------
 (2) _OSCILLATOR_Initialize                                0     0      0       0
 ---------------------------------------------------------------------------------
 (2) _INTERRUPT_Initialize                                 0     0      0       0
 ---------------------------------------------------------------------------------
 (2) _I2C1_Initialize                                      0     0      0       0
 ---------------------------------------------------------------------------------
 Estimated maximum stack depth 3
 ---------------------------------------------------------------------------------
 (Depth) Function   	        Calls       Base Space   Used Autos Params    Refs
 ---------------------------------------------------------------------------------
 (4) _INTERRUPT_InterruptManager                          18    18      0      22
                                              5 COMRAM    18    18      0
               _I2C1_BusCollisionISR
                           _I2C1_ISR
 ---------------------------------------------------------------------------------
 (5) _I2C1_ISR                                             2     2      0      22
                                              3 COMRAM     2     2      0
              _I2C1_FunctionComplete
                          _I2C1_Stop
 ---------------------------------------------------------------------------------
 (6) _I2C1_Stop                                            3     3      0      22
                                              0 COMRAM     3     3      0
 ---------------------------------------------------------------------------------
 (6) _I2C1_FunctionComplete                                0     0      0       0
 ---------------------------------------------------------------------------------
 (5) _I2C1_BusCollisionISR                                 0     0      0       0
 ---------------------------------------------------------------------------------
 Estimated maximum stack depth 6
 ---------------------------------------------------------------------------------

 Call Graph Graphs:

 _main (ROOT)
   _I2C1_Initialize
   _I2C1_MasterWrite
     _I2C1_MasterTRBInsert
     _I2C1_MasterWriteTRBBuild
   _SYSTEM_Initialize
     _I2C1_Initialize
     _INTERRUPT_Initialize
     _OSCILLATOR_Initialize
     _PIN_MANAGER_Initialize
     _PMD_Initialize
   _digitalRead
     _I2C1_MasterRead
       _I2C1_MasterReadTRBBuild
       _I2C1_MasterTRBInsert
     _I2C1_MasterWrite
       _I2C1_MasterTRBInsert
       _I2C1_MasterWriteTRBBuild

 _INTERRUPT_InterruptManager (ROOT)
   _I2C1_BusCollisionISR
   _I2C1_ISR
     _I2C1_FunctionComplete
     _I2C1_Stop

 Address spaces:
Name               Size   Autos  Total    Cost      Usage
BIGRAM             E87      0       0      35        0.0%
EEDATA             400      0       0       0        0.0%
BITBANK13          100      0       0      31        0.0%
BANK13             100      0       0      32        0.0%
BITBANK12          100      0       0      29        0.0%
BANK12             100      0       0      30        0.0%
BITBANK11          100      0       0      27        0.0%
BANK11             100      0       0      28        0.0%
BITBANK10          100      0       0      25        0.0%
BANK10             100      0       0      26        0.0%
BITBANK9           100      0       0      23        0.0%
BANK9              100      0       0      24        0.0%
BITBANK8           100      0       0      21        0.0%
BANK8              100      0       0      22        0.0%
BITBANK7           100      0       0      19        0.0%
BANK7              100      0       0      20        0.0%
BITBANK6           100      0       0      17        0.0%
BANK6              100      0       0      18        0.0%
BITBANK5           100      0       0      15        0.0%
BANK5              100      0       0      16        0.0%
BITBANK4           100      0       0      13        0.0%
BANK4              100      0       0      14        0.0%
BITBANK3           100      0       0      11        0.0%
BANK3              100      0       0      12        0.0%
BITBANK2           100      0       0       9        0.0%
BANK2              100      0       0      10        0.0%
BITBANK1           100      0       0       7        0.0%
BANK1              100      0       0       8        0.0%
BITBANK0            A0      0       0       4        0.0%
BANK0               A0     10      10       5       10.0%
BITBANK14           88      0       0      33        0.0%
BANK14              88      0       0      34        0.0%
BITCOMRAM           5E      0       0       0        0.0%
COMRAM              5E     24      46       1       74.5%
BITSFR_2             0      0       0     200        0.0%
SFR_2                0      0       0     200        0.0%
BITSFR_1             0      0       0     200        0.0%
SFR_1                0      0       0     200        0.0%
BITSFR               0      0       0     200        0.0%
SFR                  0      0       0     200        0.0%
STACK                0      0       0       2        0.0%
NULL                 0      0       0       0        0.0%
ABS                  0      0      56       6        0.0%
DATA                 0      0      56       3        0.0%
CODE                 0      0       0       0        0.0%


Microchip Technology PIC18 Macro Assembler V1.45 build -152302408 
Symbol Table                                                                                   Wed Mar 28 10:05:14 2018

                        __CFG_CP$OFF 000000                          main@i2caddr 006D  
                        __CFG_LVP$ON 000000                                  l301 0392  
                                l230 0406                                  l232 0426  
                                l224 0622                                  l217 05D8  
                                l234 043C                                  l235 0438  
                                l229 041A                                  l291 0462  
                                l298 0368                         __CFG_CPD$OFF 000000  
                                u750 037C                                  u684 04C8  
                                u756 037E                                  u685 04C4  
                                u767 0398              __size_of_PMD_Initialize 001C  
                                wreg 000FE8                         __CFG_ZCD$OFF 000000  
                   __end_of_I2C1_ISR 02FE                                 l1360 0406  
                               l1366 0426                                 _LATA 000F83  
                               _LATB 000F84                                 _LATC 000F85  
                               _LATD 000F86                                 _LATE 000F87  
                               _PMD0 000EE1                                 _PMD1 000EE2  
                               _PMD2 000EE3                                 _PMD3 000EE4  
                               _PMD4 000EE5                                 _PMD5 000EE6  
                               _WPUA 000F10                                 _WPUB 000F18  
                               _WPUC 000F20                                 _WPUD 000F25  
                               _WPUE 000F2D      __end_of_I2C1_MasterReadTRBBuild 059C  
                      __CFG_FCMEN$ON 000000                                 _main 02FE  
                               fsr0h 000FEA                                 fsr1h 000FE2  
                               fsr2h 000FDA                                 fsr0l 000FE9  
                               indf2 000FDF                                 fsr1l 000FE1  
                               fsr2l 000FD9               ??_I2C1_MasterTRBInsert 001C  
                               btemp 0047                                 prodh 000FF4  
                               prodl 000FF3                                 start 00BA  
                      __CFG_CSWEN$ON 000000                         ___param_bank 000000  
     I2C1_MasterWriteTRBBuild@length 001C                        __CFG_SCANE$ON 000000  
                         _i2c1_state 0035       __size_of_OSCILLATOR_Initialize 0018  
          I2C1_MasterTRBInsert@count 001D        __end_of_OSCILLATOR_Initialize 071A  
          I2C1_MasterTRBInsert@pflag 001A                                ?_main 0001  
                  __end_of_I2C1_Stop 06B2                        __CFG_WDTE$OFF 000000  
                     __CFG_DEBUG$OFF 000000                                i2l200 02A2  
                              i2l201 02A6                                i2l211 06AC  
                              i2l203 02AE                                i2l206 072C  
                              i2l170 0158                                i2l171 0160  
                              i2l164 02B8                                i2l172 016E  
                              i2l181 0202                                i2l165 00F6  
                              i2l190 024A                                i2l174 0186  
                              i2l191 0242                                i2l167 0140  
                              i2l271 0064                                i2l176 018C  
                              i2l168 0150                                i2l185 0210  
                              i2l177 019A                                i2l273 006E  
                              i2l194 025C                                i2l195 026C  
                              i2l187 0216                                i2l179 01C8  
                              i2l188 0226                                i2l197 0274  
                              i2l198 027C                                i2l199 029C  
                              _OSCEN 000EDC                                _TRISA 000F88  
                              _TRISB 000F89                                _TRISC 000F8A  
                              _TRISD 000F8B                                _TRISE 000F8C  
       __end_of_I2C1_BusCollisionISR 0764                        __CFG_WRT0$OFF 000000  
                      __CFG_WRT1$OFF 000000                        __CFG_WRT2$OFF 000000  
                      __CFG_WRT3$OFF 000000                    ??_I2C1_MasterRead 0021  
                      __CFG_WRT4$OFF 000000                        __CFG_WRT5$OFF 000000  
                      __CFG_WRT6$OFF 000000                        __CFG_WRT7$OFF 000000  
                     __CFG_EBTR0$OFF 000000                       __CFG_EBTR1$OFF 000000  
                     __CFG_EBTR2$OFF 000000                       __CFG_EBTR3$OFF 000000  
                  ??_I2C1_Initialize 0018                       __CFG_EBTR4$OFF 000000  
                     __CFG_EBTR5$OFF 000000                       __CFG_EBTR6$OFF 000000  
                     __CFG_EBTR7$OFF 000000                        __CFG_WRTB$OFF 000000  
                      __CFG_WRTC$OFF 000000                        __CFG_WRTD$OFF 000000  
                     __CFG_EBTRB$OFF 000000                   __CFG_MCLRE$EXTMCLR 000000  
                              pclath 000FFA                                tablat 000FF5  
                              plusw2 000FDB                                status 000FD8  
                              wtemp6 0048      I2C1_MasterWriteTRBBuild@address 001D  
                    __initialization 0732                I2C1_MasterWrite@pdata 0060  
              I2C1_MasterWrite@pflag 0065                         __end_of_main 03A2  
        ?_INTERRUPT_InterruptManager 0001                          _i2c1_object 0025  
                             ??_main 0023                        __activetblptr 000003  
               __size_of_digitalRead 008E                               _ANSELA 000F11  
                             _ANSELB 000F19                               _ANSELC 000F21  
                             _ANSELD 000F26                               _ANSELE 000F2E  
                             _RC3PPS 000EFA                               _RC4PPS 000EFB  
                             _ODCONA 000F0F                               _ODCONB 000F17  
                             _ODCONC 000F1F                               _ODCOND 000F24  
                             _ODCONE 000F2C                       __CFG_WDTCCS$SC 000000  
                             i2l1490 0140                               _OSCFRQ 000EDE  
                  ?_I2C1_MasterWrite 0060                       __CFG_PWRTE$OFF 000000  
                     __CFG_XINST$OFF 000000                   ??_I2C1_MasterWrite 0021  
          __CFG_RSTOSC$HFINTOSC_1MHZ 000000                       _p_i2c1_current 002E  
                     __CFG_STVREN$ON 000000           ??_I2C1_MasterWriteTRBBuild 001F  
                          ?_I2C1_ISR 0001                               clear_0 0738  
   __size_of_I2C1_MasterReadTRBBuild 0050                       _PMD_Initialize 06E6  
                             tblptrh 000FF7                               tblptrl 000FF6  
                             tblptru 000FF8                   digitalRead@i2caddr 0069  
      I2C1_MasterWriteTRBBuild@pdata 001A        __size_of_INTERRUPT_Initialize 0004  
                  _SYSTEM_Initialize 0748                           __accesstop 0060  
            __end_of__initialization 073E                   ?_SYSTEM_Initialize 0001  
                      ___rparam_used 000001                       _i2c1_trb_count 0034  
              _I2C1_FunctionComplete 071A                 _I2C1_BusCollisionISR 075E  
                     __pcstackCOMRAM 0001                   digitalRead@regAddr 006A  
             I2C1_MasterWrite@length 0062                  ??_SYSTEM_Initialize 0018  
                         ??_I2C1_ISR 0004               __end_of_PMD_Initialize 0702  
     I2C1_MasterReadTRBBuild@address 001D            __end_of_SYSTEM_Initialize 075E  
              ?_I2C1_BusCollisionISR 0001                       _SSP1DATPPSbits 000EB8  
                    __CFG_PPS1WAY$ON 000000                      _I2C1_MasterRead 05E6  
                    _I2C1_Initialize 06B2                       _SSP1CLKPPSbits 000EB7  
                    ?_PMD_Initialize 0001                              _OSCCON1 000ED8  
                            _OSCCON3 000EDA                            _I2C1_Stop 0674  
                            _OSCTUNE 000EDD                              _SSP1ADD 000F93  
                            _SSP1BUF 000F92        I2C1_MasterTRBInsert@ptrb_list 0018  
             ?_I2C1_FunctionComplete 0001                              __Hparam 0000  
      __size_of_I2C1_MasterTRBInsert 00A2                              __Lparam 0000  
                 _p_i2c1_trb_current 0030                              __pcinit 0732  
                            __ramtop 0F00              _I2C1_MasterReadTRBBuild 054C  
                            __ptext0 02FE                              __ptext1 0444  
                            __ptext2 059C                              __ptext3 0630  
                            __ptext4 05E6                              __ptext5 03A2  
                            __ptext6 054C                              __ptext7 0748  
                            __ptext8 06E6                              __ptext9 04D2  
              _OSCILLATOR_Initialize 0702         I2C1_MasterReadTRBBuild@pdata 001A  
               I2C1_MasterRead@pdata 0060                 I2C1_MasterRead@pflag 0065  
           ??_PIN_MANAGER_Initialize 0018                           ?_I2C1_Stop 0001  
         __size_of_SYSTEM_Initialize 0016                 I2C1_ISR@pi2c_buf_ptr 002C  
               end_of_initialization 073E                       digitalRead@pin 0068  
            __end_of_I2C1_MasterRead 0630               ??_I2C1_BusCollisionISR 0001  
            __end_of_I2C1_Initialize 06E6                              postdec2 000FDD  
                            postinc0 000FEE                              postinc2 000FDE  
                      ??_digitalRead 0021                __CFG_WDTCPS$WDTCPS_31 000000  
          __size_of_I2C1_MasterWrite 004A                    __size_of_I2C1_ISR 0240  
                   __CFG_FEXTOSC$OFF 000000    I2C1_ISR@i2c_10bit_address_restart 0032  
            I2C1_MasterWrite@address 0063                           main@status 006F  
          ??_I2C1_MasterReadTRBBuild 001F         __end_of_INTERRUPT_Initialize 0768  
            I2C1_MasterWrite@trBlock 003B             I2C1_Stop@completion_code 0003  
             ?_OSCILLATOR_Initialize 0001                  start_initialization 0732  
                __end_of_digitalRead 04D2                          ??_I2C1_Stop 0001  
    __size_of_PIN_MANAGER_Initialize 007A    __size_of_I2C1_MasterWriteTRBBuild 0044  
          ?_I2C1_MasterWriteTRBBuild 0018                     ?_I2C1_MasterRead 0060  
                   ?_I2C1_Initialize 0001                     __CFG_LPBOREN$OFF 000000  
                   ??_PMD_Initialize 0018         I2C1_MasterWriteTRBBuild@ptrb 0018  
                        __pbssCOMRAM 0025                        __pcstackBANK0 0060  
                      _i2c1_tr_queue 0040                    digitalRead@result 006B  
                  digitalRead@status 006C              ??_I2C1_FunctionComplete 0001  
             _PIN_MANAGER_Initialize 04D2                            __pintcode 0008  
                           _I2C1_ISR 00BE                          _digitalRead 0444  
       ??_INTERRUPT_InterruptManager 0006                     _I2C1_MasterWrite 059C  
       __end_of_I2C1_MasterTRBInsert 0444               I2C1_MasterRead@address 0063  
               _INTERRUPT_Initialize 0764          I2C1_MasterReadTRBBuild@ptrb 0018  
             I2C1_MasterRead@trBlock 0036                             _LATCbits 000F85  
                           _PIE3bits 000EC5                  __CFG_BORV$VBOR_2P45 000000  
__size_of_INTERRUPT_InterruptManager 00B2                             _PIR3bits 000ECD  
                           _SSP1CON1 000F96                             _SSP1CON3 000F98  
                           _SSP1STAT 000F95                ?_INTERRUPT_Initialize 0001  
                           __Hrparam 0000        __size_of_I2C1_BusCollisionISR 0006  
                           __Lrparam 0000                   __CFG_BOREN$SBORDIS 000000  
             I2C1_ISR@i2c_bytes_left 0033              ??_OSCILLATOR_Initialize 0018  
   __end_of_I2C1_MasterWriteTRBBuild 0674                  I2C1_ISR@i2c_address 0045  
                           __ptext10 0702                             __ptext11 0764  
                           __ptext12 06B2                             __ptext14 00BE  
                           __ptext15 0674                             __ptext16 071A  
                           __ptext17 075E                         _SSP1CON1bits 000F96  
                       _SSP1CON2bits 000F97                        __size_of_main 00A4  
      I2C1_MasterReadTRBBuild@length 001C                I2C1_MasterRead@length 0062  
               __CFG_WDTCWS$WDTCWS_7 000000                 _I2C1_MasterTRBInsert 03A2  
                           int$flags 0047   __end_of_INTERRUPT_InterruptManager 00BA  
         _INTERRUPT_InterruptManager 0008                             main@data 006E  
                         _INTCONbits 000FF2               ??_INTERRUPT_Initialize 0018  
                    digitalRead@bity 0067                             intlevel2 0000  
            ?_PIN_MANAGER_Initialize 0001             __end_of_I2C1_MasterWrite 05E6  
                  __CFG_CLKOUTEN$OFF 000000       __size_of_I2C1_FunctionComplete 0018  
      __end_of_I2C1_FunctionComplete 0732                ?_I2C1_MasterTRBInsert 0018  
           ?_I2C1_MasterReadTRBBuild 0018             __size_of_I2C1_MasterRead 004A  
                       ?_digitalRead 0001             __size_of_I2C1_Initialize 0034  
           _I2C1_MasterWriteTRBBuild 0630       __end_of_PIN_MANAGER_Initialize 054C  
                 __size_of_I2C1_Stop 003E  
